ARM GAS  /tmp/ccCvdTgV.s 			page 1


   1              		.cpu cortex-m4
   2              		.eabi_attribute 27, 1
   3              		.eabi_attribute 20, 1
   4              		.eabi_attribute 21, 1
   5              		.eabi_attribute 23, 3
   6              		.eabi_attribute 24, 1
   7              		.eabi_attribute 25, 1
   8              		.eabi_attribute 26, 1
   9              		.eabi_attribute 30, 2
  10              		.eabi_attribute 34, 1
  11              		.eabi_attribute 18, 4
  12              		.file	"adc_arch.c"
  13              		.text
  14              		.section	.text.adcerrorcallback,"ax",%progbits
  15              		.align	1
  16              		.p2align 4,,15
  17              		.arch armv7e-m
  18              		.syntax unified
  19              		.thumb
  20              		.thumb_func
  21              		.fpu fpv4-sp-d16
  22              		.type	adcerrorcallback, %function
  23              	adcerrorcallback:
  24              		@ args = 0, pretend = 0, frame = 0
  25              		@ frame_needed = 0, uses_anonymous_args = 0
  26 0000 38B5     		push	{r3, r4, r5, lr}
  27 0002 0546     		mov	r5, r0
  28 0004 0C46     		mov	r4, r1
  29 0006 3023     		movs	r3, #48
  30              		.syntax unified
  31              	@ 493 "/home/gautier/dev/paparazzi/sw/ext/chibios/os/common/ext/ARM/CMSIS/Core/Include/cmsis_gcc.h"
  32 0008 83F31188 		MSR basepri, r3
  33              	@ 0 "" 2
  34              		.thumb
  35              		.syntax unified
  36 000c FFF7FEFF 		bl	__stats_start_measure_crit_isr
  37 0010 044A     		ldr	r2, .L4
  38 0012 054B     		ldr	r3, .L4+4
  39 0014 1560     		str	r5, [r2]
  40 0016 1C70     		strb	r4, [r3]
  41 0018 FFF7FEFF 		bl	__stats_stop_measure_crit_isr
  42 001c 0023     		movs	r3, #0
  43              		.syntax unified
  44              	@ 493 "/home/gautier/dev/paparazzi/sw/ext/chibios/os/common/ext/ARM/CMSIS/Core/Include/cmsis_gcc.h"
  45 001e 83F31188 		MSR basepri, r3
  46              	@ 0 "" 2
  47              		.thumb
  48              		.syntax unified
  49 0022 38BD     		pop	{r3, r4, r5, pc}
  50              	.L5:
  51              		.align	2
  52              	.L4:
  53 0024 00000000 		.word	.LANCHOR0
  54 0028 00000000 		.word	.LANCHOR1
  55              		.size	adcerrorcallback, .-adcerrorcallback
  56              		.section	.text.adc1callback,"ax",%progbits
  57              		.align	1
ARM GAS  /tmp/ccCvdTgV.s 			page 2


  58              		.p2align 4,,15
  59              		.global	adc1callback
  60              		.syntax unified
  61              		.thumb
  62              		.thumb_func
  63              		.fpu fpv4-sp-d16
  64              		.type	adc1callback, %function
  65              	adc1callback:
  66              		@ args = 0, pretend = 0, frame = 0
  67              		@ frame_needed = 0, uses_anonymous_args = 0
  68 0000 08B5     		push	{r3, lr}
  69 0002 0378     		ldrb	r3, [r0]	@ zero_extendqisi2
  70 0004 012B     		cmp	r3, #1
  71 0006 00D1     		bne	.L12
  72 0008 08BD     		pop	{r3, pc}
  73              	.L12:
  74 000a 3023     		movs	r3, #48
  75              		.syntax unified
  76              	@ 493 "/home/gautier/dev/paparazzi/sw/ext/chibios/os/common/ext/ARM/CMSIS/Core/Include/cmsis_gcc.h"
  77 000c 83F31188 		MSR basepri, r3
  78              	@ 0 "" 2
  79              		.thumb
  80              		.syntax unified
  81 0010 FFF7FEFF 		bl	__stats_start_measure_crit_isr
  82 0014 FFF7FEFF 		bl	__stats_stop_measure_crit_isr
  83 0018 0023     		movs	r3, #0
  84              		.syntax unified
  85              	@ 493 "/home/gautier/dev/paparazzi/sw/ext/chibios/os/common/ext/ARM/CMSIS/Core/Include/cmsis_gcc.h"
  86 001a 83F31188 		MSR basepri, r3
  87              	@ 0 "" 2
  88              		.thumb
  89              		.syntax unified
  90 001e 08BD     		pop	{r3, pc}
  91              		.size	adc1callback, .-adc1callback
  92              		.section	.text.adc_buf_channel,"ax",%progbits
  93              		.align	1
  94              		.p2align 4,,15
  95              		.global	adc_buf_channel
  96              		.syntax unified
  97              		.thumb
  98              		.thumb_func
  99              		.fpu fpv4-sp-d16
 100              		.type	adc_buf_channel, %function
 101              	adc_buf_channel:
 102              		@ args = 0, pretend = 0, frame = 0
 103              		@ frame_needed = 0, uses_anonymous_args = 0
 104              		@ link register save eliminated.
 105 0000 7047     		bx	lr
 106              		.size	adc_buf_channel, .-adc_buf_channel
 107 0002 00BF     		.section	.text.adc_init,"ax",%progbits
 108              		.align	1
 109              		.p2align 4,,15
 110              		.global	adc_init
 111              		.syntax unified
 112              		.thumb
 113              		.thumb_func
 114              		.fpu fpv4-sp-d16
ARM GAS  /tmp/ccCvdTgV.s 			page 3


 115              		.type	adc_init, %function
 116              	adc_init:
 117              		@ args = 0, pretend = 0, frame = 0
 118              		@ frame_needed = 0, uses_anonymous_args = 0
 119 0000 70B5     		push	{r4, r5, r6, lr}
 120 0002 0D4C     		ldr	r4, .L16
 121 0004 0D4D     		ldr	r5, .L16+4
 122 0006 0E4A     		ldr	r2, .L16+8
 123 0008 0123     		movs	r3, #1
 124 000a 2370     		strb	r3, [r4]
 125 000c 0D4B     		ldr	r3, .L16+12
 126 000e 0021     		movs	r1, #0
 127 0010 C4E90123 		strd	r2, r3, [r4, #4]
 128 0014 2846     		mov	r0, r5
 129 0016 0C4A     		ldr	r2, .L16+16
 130 0018 6180     		strh	r1, [r4, #2]	@ movhi
 131 001a 4FF08043 		mov	r3, #1073741824
 132 001e 2262     		str	r2, [r4, #32]
 133 0020 2361     		str	r3, [r4, #16]
 134 0022 FFF7FEFF 		bl	adcStart
 135 0026 2146     		mov	r1, r4
 136 0028 2846     		mov	r0, r5
 137 002a 084A     		ldr	r2, .L16+20
 138 002c BDE87040 		pop	{r4, r5, r6, lr}
 139 0030 1023     		movs	r3, #16
 140 0032 FFF7FEBF 		b	adcStartConversion
 141              	.L17:
 142 0036 00BF     		.align	2
 143              	.L16:
 144 0038 00000000 		.word	.LANCHOR2
 145 003c 00000000 		.word	ADCD1
 146 0040 00000000 		.word	adc1callback
 147 0044 00000000 		.word	adcerrorcallback
 148 0048 0000F0FF 		.word	-1048576
 149 004c 00000000 		.word	.LANCHOR3
 150              		.size	adc_init, .-adc_init
 151              		.section	.text.register_adc_watchdog,"ax",%progbits
 152              		.align	1
 153              		.p2align 4,,15
 154              		.global	register_adc_watchdog
 155              		.syntax unified
 156              		.thumb
 157              		.thumb_func
 158              		.fpu fpv4-sp-d16
 159              		.type	register_adc_watchdog, %function
 160              	register_adc_watchdog:
 161              		@ args = 0, pretend = 0, frame = 0
 162              		@ frame_needed = 0, uses_anonymous_args = 0
 163              		@ link register save eliminated.
 164 0000 7047     		bx	lr
 165              		.size	register_adc_watchdog, .-register_adc_watchdog
 166              		.global	adcp_err
 167              		.global	adc_error_flag
 168 0002 00BF     		.section	.bss.adc1_group,"aw",%nobits
 169              		.align	2
 170              		.set	.LANCHOR2,. + 0
 171              		.type	adc1_group, %object
ARM GAS  /tmp/ccCvdTgV.s 			page 4


 172              		.size	adc1_group, 44
 173              	adc1_group:
 174 0000 00000000 		.space	44
 174      00000000 
 174      00000000 
 174      00000000 
 174      00000000 
 175              		.section	.bss.adc_error_flag,"aw",%nobits
 176              		.set	.LANCHOR1,. + 0
 177              		.type	adc_error_flag, %object
 178              		.size	adc_error_flag, 1
 179              	adc_error_flag:
 180 0000 00       		.space	1
 181              		.section	.bss.adcp_err,"aw",%nobits
 182              		.align	2
 183              		.set	.LANCHOR0,. + 0
 184              		.type	adcp_err, %object
 185              		.size	adcp_err, 4
 186              	adcp_err:
 187 0000 00000000 		.space	4
 188              		.section	.ram0_init,"aw"
 189              		.align	3
 190              		.set	.LANCHOR3,. + 0
 191              		.type	adc_samples, %object
 192              		.size	adc_samples, 0
 193              	adc_samples:
 194              		.ident	"GCC: (15:10.3-2021.07-4) 10.3.1 20210621 (release)"
ARM GAS  /tmp/ccCvdTgV.s 			page 5

