ARM GAS  /tmp/ccdfSvOo.s 			page 1


   1              		.cpu cortex-m4
   2              		.eabi_attribute 27, 1
   3              		.eabi_attribute 20, 1
   4              		.eabi_attribute 21, 1
   5              		.eabi_attribute 23, 3
   6              		.eabi_attribute 24, 1
   7              		.eabi_attribute 25, 1
   8              		.eabi_attribute 26, 1
   9              		.eabi_attribute 30, 2
  10              		.eabi_attribute 34, 1
  11              		.eabi_attribute 18, 4
  12              		.file	"autopilot.c"
  13              		.text
  14              		.section	.text.rc_cb,"ax",%progbits
  15              		.align	1
  16              		.p2align 4,,15
  17              		.arch armv7e-m
  18              		.syntax unified
  19              		.thumb
  20              		.thumb_func
  21              		.fpu fpv4-sp-d16
  22              		.type	rc_cb, %function
  23              	rc_cb:
  24              		@ args = 0, pretend = 0, frame = 0
  25              		@ frame_needed = 0, uses_anonymous_args = 0
  26              		@ link register save eliminated.
  27 0000 FFF7FEBF 		b	autopilot_static_on_rc_frame
  28              		.size	rc_cb, .-rc_cb
  29              		.section	.rodata.send_dl_value.str1.4,"aMS",%progbits,1
  30              		.align	2
  31              	.LC0:
  32 0000 444C5F56 		.ascii	"DL_VALUE\000"
  32      414C5545 
  32      00
  33              		.section	.text.send_dl_value,"ax",%progbits
  34              		.align	1
  35              		.p2align 4,,15
  36              		.syntax unified
  37              		.thumb
  38              		.thumb_func
  39              		.fpu fpv4-sp-d16
  40              		.type	send_dl_value, %function
  41              	send_dl_value:
  42              		@ args = 0, pretend = 0, frame = 24
  43              		@ frame_needed = 0, uses_anonymous_args = 0
  44 0000 2DE9F041 		push	{r4, r5, r6, r7, r8, lr}
  45 0004 C04D     		ldr	r5, .L79
  46 0006 2B78     		ldrb	r3, [r5]	@ zero_extendqisi2
  47 0008 452B     		cmp	r3, #69
  48 000a 88B0     		sub	sp, sp, #32
  49 000c 7BD9     		bls	.L4
  50 000e 0023     		movs	r3, #0
  51 0010 2B70     		strb	r3, [r5]
  52              	.L5:
  53 0012 BE4B     		ldr	r3, .L79+4
  54 0014 1B78     		ldrb	r3, [r3]	@ zero_extendqisi2
  55 0016 07EE903A 		vmov	s15, r3	@ int
ARM GAS  /tmp/ccdfSvOo.s 			page 2


  56 001a F8EE677A 		vcvt.f32.u32	s15, s15
  57 001e CDED037A 		vstr.32	s15, [sp, #12]
  58              	.L75:
  59 0022 0024     		movs	r4, #0
  60 0024 1F27     		movs	r7, #31
  61 0026 0368     		ldr	r3, [r0]
  62 0028 0690     		str	r0, [sp, #24]
  63 002a 0791     		str	r1, [sp, #28]
  64 002c ADF81470 		strh	r7, [sp, #20]	@ movhi
  65 0030 0921     		movs	r1, #9
  66 0032 8DF81640 		strb	r4, [sp, #22]
  67 0036 0494     		str	r4, [sp, #16]
  68 0038 05A8     		add	r0, sp, #20
  69 003a 9847     		blx	r3
  70 003c 069B     		ldr	r3, [sp, #24]
  71 003e 0646     		mov	r6, r0
  72 0040 82B2     		uxth	r2, r0
  73 0042 5B68     		ldr	r3, [r3, #4]
  74 0044 04A9     		add	r1, sp, #16
  75 0046 05A8     		add	r0, sp, #20
  76 0048 9847     		blx	r3
  77 004a 0028     		cmp	r0, #0
  78 004c 00F0F482 		beq	.L76
  79 0050 069B     		ldr	r3, [sp, #24]
  80 0052 3146     		mov	r1, r6
  81 0054 DB69     		ldr	r3, [r3, #28]
  82 0056 05A8     		add	r0, sp, #20
  83 0058 9847     		blx	r3
  84 005a 069B     		ldr	r3, [sp, #24]
  85 005c 0499     		ldr	r1, [sp, #16]
  86 005e 1B69     		ldr	r3, [r3, #16]
  87 0060 05A8     		add	r0, sp, #20
  88 0062 0922     		movs	r2, #9
  89 0064 9847     		blx	r3
  90 0066 0126     		movs	r6, #1
  91 0068 069B     		ldr	r3, [sp, #24]
  92 006a 0196     		str	r6, [sp, #4]
  93 006c 05AA     		add	r2, sp, #20
  94 006e 0092     		str	r2, [sp]
  95 0070 D3F80880 		ldr	r8, [r3, #8]
  96 0074 0499     		ldr	r1, [sp, #16]
  97 0076 1046     		mov	r0, r2
  98 0078 2346     		mov	r3, r4
  99 007a 0222     		movs	r2, #2
 100 007c C047     		blx	r8
 101 007e 069B     		ldr	r3, [sp, #24]
 102 0080 9DF81520 		ldrb	r2, [sp, #21]	@ zero_extendqisi2
 103 0084 0092     		str	r2, [sp]
 104 0086 0194     		str	r4, [sp, #4]
 105 0088 D3F80C80 		ldr	r8, [r3, #12]
 106 008c 0499     		ldr	r1, [sp, #16]
 107 008e 2346     		mov	r3, r4
 108 0090 05A8     		add	r0, sp, #20
 109 0092 0222     		movs	r2, #2
 110 0094 C047     		blx	r8
 111 0096 9DF81630 		ldrb	r3, [sp, #22]	@ zero_extendqisi2
 112 009a 0194     		str	r4, [sp, #4]
ARM GAS  /tmp/ccdfSvOo.s 			page 3


 113 009c 1B01     		lsls	r3, r3, #4
 114 009e 3343     		orrs	r3, r3, r6
 115 00a0 DBB2     		uxtb	r3, r3
 116 00a2 0093     		str	r3, [sp]
 117 00a4 069B     		ldr	r3, [sp, #24]
 118 00a6 0499     		ldr	r1, [sp, #16]
 119 00a8 D3F80C80 		ldr	r8, [r3, #12]
 120 00ac 05A8     		add	r0, sp, #20
 121 00ae 2346     		mov	r3, r4
 122 00b0 0222     		movs	r2, #2
 123 00b2 C047     		blx	r8
 124 00b4 069B     		ldr	r3, [sp, #24]
 125 00b6 964A     		ldr	r2, .L79+8
 126 00b8 0192     		str	r2, [sp, #4]
 127 00ba 0097     		str	r7, [sp]
 128 00bc DF68     		ldr	r7, [r3, #12]
 129 00be 0499     		ldr	r1, [sp, #16]
 130 00c0 2346     		mov	r3, r4
 131 00c2 05A8     		add	r0, sp, #20
 132 00c4 0222     		movs	r2, #2
 133 00c6 B847     		blx	r7
 134 00c8 CDE90056 		strd	r5, r6, [sp]
 135 00cc 069A     		ldr	r2, [sp, #24]
 136 00ce 0499     		ldr	r1, [sp, #16]
 137 00d0 9668     		ldr	r6, [r2, #8]
 138 00d2 2346     		mov	r3, r4
 139 00d4 05A8     		add	r0, sp, #20
 140 00d6 0222     		movs	r2, #2
 141 00d8 B047     		blx	r6
 142 00da 0422     		movs	r2, #4
 143 00dc 069B     		ldr	r3, [sp, #24]
 144 00de 0192     		str	r2, [sp, #4]
 145 00e0 03AA     		add	r2, sp, #12
 146 00e2 0092     		str	r2, [sp]
 147 00e4 9E68     		ldr	r6, [r3, #8]
 148 00e6 0499     		ldr	r1, [sp, #16]
 149 00e8 2346     		mov	r3, r4
 150 00ea 05A8     		add	r0, sp, #20
 151 00ec 0A22     		movs	r2, #10
 152 00ee B047     		blx	r6
 153 00f0 069B     		ldr	r3, [sp, #24]
 154 00f2 0499     		ldr	r1, [sp, #16]
 155 00f4 5B69     		ldr	r3, [r3, #20]
 156 00f6 05A8     		add	r0, sp, #20
 157 00f8 9847     		blx	r3
 158              	.L77:
 159 00fa 2B78     		ldrb	r3, [r5]	@ zero_extendqisi2
 160 00fc 0133     		adds	r3, r3, #1
 161 00fe 2B70     		strb	r3, [r5]
 162 0100 08B0     		add	sp, sp, #32
 163              		@ sp needed
 164 0102 BDE8F081 		pop	{r4, r5, r6, r7, r8, pc}
 165              	.L4:
 166 0106 452B     		cmp	r3, #69
 167 0108 00F29080 		bhi	.L6
 168 010c 01A2     		adr	r2, .L8
 169 010e 52F823F0 		ldr	pc, [r2, r3, lsl #2]
ARM GAS  /tmp/ccdfSvOo.s 			page 4


 170 0112 00BF     		.p2align 2
 171              	.L8:
 172 0114 13000000 		.word	.L5+1
 173 0118 31060000 		.word	.L74+1
 174 011c DB050000 		.word	.L73+1
 175 0120 C9050000 		.word	.L72+1
 176 0124 25050000 		.word	.L71+1
 177 0128 13050000 		.word	.L70+1
 178 012c 01050000 		.word	.L69+1
 179 0130 2D020000 		.word	.L6+1
 180 0134 F9040000 		.word	.L68+1
 181 0138 4F040000 		.word	.L67+1
 182 013c 47040000 		.word	.L66+1
 183 0140 3F040000 		.word	.L65+1
 184 0144 35040000 		.word	.L64+1
 185 0148 5B050000 		.word	.L63+1
 186 014c 53050000 		.word	.L62+1
 187 0150 4B050000 		.word	.L61+1
 188 0154 37050000 		.word	.L60+1
 189 0158 63020000 		.word	.L59+1
 190 015c 4F020000 		.word	.L58+1
 191 0160 3B020000 		.word	.L57+1
 192 0164 2D020000 		.word	.L6+1
 193 0168 33020000 		.word	.L56+1
 194 016c F1040000 		.word	.L55+1
 195 0170 E9040000 		.word	.L54+1
 196 0174 D5040000 		.word	.L53+1
 197 0178 C1040000 		.word	.L52+1
 198 017c AD040000 		.word	.L51+1
 199 0180 99040000 		.word	.L50+1
 200 0184 87040000 		.word	.L49+1
 201 0188 7F040000 		.word	.L48+1
 202 018c 77040000 		.word	.L47+1
 203 0190 6F040000 		.word	.L46+1
 204 0194 67040000 		.word	.L45+1
 205 0198 57040000 		.word	.L44+1
 206 019c B9050000 		.word	.L43+1
 207 01a0 B1050000 		.word	.L42+1
 208 01a4 A1050000 		.word	.L41+1
 209 01a8 8D050000 		.word	.L40+1
 210 01ac 25040000 		.word	.L39+1
 211 01b0 15040000 		.word	.L38+1
 212 01b4 05040000 		.word	.L37+1
 213 01b8 F5030000 		.word	.L36+1
 214 01bc E5030000 		.word	.L35+1
 215 01c0 D5030000 		.word	.L34+1
 216 01c4 C5030000 		.word	.L33+1
 217 01c8 B5030000 		.word	.L32+1
 218 01cc A1030000 		.word	.L31+1
 219 01d0 8D030000 		.word	.L30+1
 220 01d4 83030000 		.word	.L29+1
 221 01d8 79030000 		.word	.L28+1
 222 01dc 6F030000 		.word	.L27+1
 223 01e0 65030000 		.word	.L26+1
 224 01e4 55030000 		.word	.L25+1
 225 01e8 45030000 		.word	.L24+1
 226 01ec 35030000 		.word	.L23+1
ARM GAS  /tmp/ccdfSvOo.s 			page 5


 227 01f0 25030000 		.word	.L22+1
 228 01f4 F7020000 		.word	.L21+1
 229 01f8 E7020000 		.word	.L20+1
 230 01fc D7020000 		.word	.L19+1
 231 0200 C7020000 		.word	.L18+1
 232 0204 B7020000 		.word	.L17+1
 233 0208 A7020000 		.word	.L16+1
 234 020c 97020000 		.word	.L15+1
 235 0210 87020000 		.word	.L14+1
 236 0214 7F020000 		.word	.L13+1
 237 0218 77020000 		.word	.L12+1
 238 021c 85050000 		.word	.L11+1
 239 0220 7D050000 		.word	.L10+1
 240 0224 75050000 		.word	.L9+1
 241 0228 6D050000 		.word	.L7+1
 242              		.p2align 1
 243              	.L6:
 244 022c 0023     		movs	r3, #0
 245 022e 0393     		str	r3, [sp, #12]	@ float
 246 0230 F7E6     		b	.L75
 247              	.L56:
 248 0232 384B     		ldr	r3, .L79+12
 249 0234 1B68     		ldr	r3, [r3]	@ float
 250 0236 0393     		str	r3, [sp, #12]	@ float
 251 0238 F3E6     		b	.L75
 252              	.L57:
 253 023a 374B     		ldr	r3, .L79+16
 254 023c 93F82330 		ldrb	r3, [r3, #35]	@ zero_extendqisi2
 255 0240 07EE903A 		vmov	s15, r3	@ int
 256 0244 F8EE677A 		vcvt.f32.u32	s15, s15
 257 0248 CDED037A 		vstr.32	s15, [sp, #12]
 258 024c E9E6     		b	.L75
 259              	.L58:
 260 024e 324B     		ldr	r3, .L79+16
 261 0250 93F82430 		ldrb	r3, [r3, #36]	@ zero_extendqisi2
 262 0254 07EE903A 		vmov	s15, r3	@ int
 263 0258 F8EE677A 		vcvt.f32.u32	s15, s15
 264 025c CDED037A 		vstr.32	s15, [sp, #12]
 265 0260 DFE6     		b	.L75
 266              	.L59:
 267 0262 2D4B     		ldr	r3, .L79+16
 268 0264 93F82130 		ldrb	r3, [r3, #33]	@ zero_extendqisi2
 269 0268 07EE903A 		vmov	s15, r3	@ int
 270 026c F8EE677A 		vcvt.f32.u32	s15, s15
 271 0270 CDED037A 		vstr.32	s15, [sp, #12]
 272 0274 D5E6     		b	.L75
 273              	.L12:
 274 0276 294B     		ldr	r3, .L79+20
 275 0278 1B6C     		ldr	r3, [r3, #64]	@ float
 276 027a 0393     		str	r3, [sp, #12]	@ float
 277 027c D1E6     		b	.L75
 278              	.L13:
 279 027e 274B     		ldr	r3, .L79+20
 280 0280 5B6B     		ldr	r3, [r3, #52]	@ float
 281 0282 0393     		str	r3, [sp, #12]	@ float
 282 0284 CDE6     		b	.L75
 283              	.L14:
ARM GAS  /tmp/ccdfSvOo.s 			page 6


 284 0286 264B     		ldr	r3, .L79+24
 285 0288 D3ED087A 		vldr.32	s15, [r3, #32]	@ int
 286 028c F8EEE77A 		vcvt.f32.s32	s15, s15
 287 0290 CDED037A 		vstr.32	s15, [sp, #12]
 288 0294 C5E6     		b	.L75
 289              	.L15:
 290 0296 224B     		ldr	r3, .L79+24
 291 0298 D3ED0B7A 		vldr.32	s15, [r3, #44]	@ int
 292 029c F8EEE77A 		vcvt.f32.s32	s15, s15
 293 02a0 CDED037A 		vstr.32	s15, [sp, #12]
 294 02a4 BDE6     		b	.L75
 295              	.L16:
 296 02a6 1E4B     		ldr	r3, .L79+24
 297 02a8 D3ED057A 		vldr.32	s15, [r3, #20]	@ int
 298 02ac F8EEE77A 		vcvt.f32.s32	s15, s15
 299 02b0 CDED037A 		vstr.32	s15, [sp, #12]
 300 02b4 B5E6     		b	.L75
 301              	.L17:
 302 02b6 1A4B     		ldr	r3, .L79+24
 303 02b8 D3ED027A 		vldr.32	s15, [r3, #8]	@ int
 304 02bc F8EEE77A 		vcvt.f32.s32	s15, s15
 305 02c0 CDED037A 		vstr.32	s15, [sp, #12]
 306 02c4 ADE6     		b	.L75
 307              	.L18:
 308 02c6 164B     		ldr	r3, .L79+24
 309 02c8 D3ED077A 		vldr.32	s15, [r3, #28]	@ int
 310 02cc F8EEE77A 		vcvt.f32.s32	s15, s15
 311 02d0 CDED037A 		vstr.32	s15, [sp, #12]
 312 02d4 A5E6     		b	.L75
 313              	.L19:
 314 02d6 124B     		ldr	r3, .L79+24
 315 02d8 D3ED0A7A 		vldr.32	s15, [r3, #40]	@ int
 316 02dc F8EEE77A 		vcvt.f32.s32	s15, s15
 317 02e0 CDED037A 		vstr.32	s15, [sp, #12]
 318 02e4 9DE6     		b	.L75
 319              	.L20:
 320 02e6 0E4B     		ldr	r3, .L79+24
 321 02e8 D3ED047A 		vldr.32	s15, [r3, #16]	@ int
 322 02ec F8EEE77A 		vcvt.f32.s32	s15, s15
 323 02f0 CDED037A 		vstr.32	s15, [sp, #12]
 324 02f4 95E6     		b	.L75
 325              	.L21:
 326 02f6 0A4B     		ldr	r3, .L79+24
 327 02f8 D3ED017A 		vldr.32	s15, [r3, #4]	@ int
 328 02fc F8EEE77A 		vcvt.f32.s32	s15, s15
 329 0300 CDED037A 		vstr.32	s15, [sp, #12]
 330 0304 8DE6     		b	.L75
 331              	.L80:
 332 0306 00BF     		.align	2
 333              	.L79:
 334 0308 00000000 		.word	.LANCHOR0
 335 030c 00000000 		.word	telemetry_mode_Main
 336 0310 00000000 		.word	.LC0
 337 0314 D8080000 		.word	imu+2264
 338 0318 00000000 		.word	air_data
 339 031c 00000000 		.word	att_ref_quat_i
 340 0320 00000000 		.word	stabilization_gains
ARM GAS  /tmp/ccdfSvOo.s 			page 7


 341              	.L22:
 342 0324 AF4B     		ldr	r3, .L81
 343 0326 D3ED067A 		vldr.32	s15, [r3, #24]	@ int
 344 032a F8EEE77A 		vcvt.f32.s32	s15, s15
 345 032e CDED037A 		vstr.32	s15, [sp, #12]
 346 0332 76E6     		b	.L75
 347              	.L23:
 348 0334 AB4B     		ldr	r3, .L81
 349 0336 D3ED097A 		vldr.32	s15, [r3, #36]	@ int
 350 033a F8EEE77A 		vcvt.f32.s32	s15, s15
 351 033e CDED037A 		vstr.32	s15, [sp, #12]
 352 0342 6EE6     		b	.L75
 353              	.L24:
 354 0344 A74B     		ldr	r3, .L81
 355 0346 D3ED037A 		vldr.32	s15, [r3, #12]	@ int
 356 034a F8EEE77A 		vcvt.f32.s32	s15, s15
 357 034e CDED037A 		vstr.32	s15, [sp, #12]
 358 0352 66E6     		b	.L75
 359              	.L25:
 360 0354 A34B     		ldr	r3, .L81
 361 0356 D3ED007A 		vldr.32	s15, [r3]	@ int
 362 035a F8EEE77A 		vcvt.f32.s32	s15, s15
 363 035e CDED037A 		vstr.32	s15, [sp, #12]
 364 0362 5EE6     		b	.L75
 365              	.L26:
 366 0364 A04B     		ldr	r3, .L81+4
 367 0366 D3F89030 		ldr	r3, [r3, #144]	@ float
 368 036a 0393     		str	r3, [sp, #12]	@ float
 369 036c 59E6     		b	.L75
 370              	.L27:
 371 036e 9E4B     		ldr	r3, .L81+4
 372 0370 D3F88C30 		ldr	r3, [r3, #140]	@ float
 373 0374 0393     		str	r3, [sp, #12]	@ float
 374 0376 54E6     		b	.L75
 375              	.L28:
 376 0378 9B4B     		ldr	r3, .L81+4
 377 037a D3F88830 		ldr	r3, [r3, #136]	@ float
 378 037e 0393     		str	r3, [sp, #12]	@ float
 379 0380 4FE6     		b	.L75
 380              	.L29:
 381 0382 994B     		ldr	r3, .L81+4
 382 0384 D3F88430 		ldr	r3, [r3, #132]	@ float
 383 0388 0393     		str	r3, [sp, #12]	@ float
 384 038a 4AE6     		b	.L75
 385              	.L30:
 386 038c 974B     		ldr	r3, .L81+8
 387 038e 93F83430 		ldrb	r3, [r3, #52]	@ zero_extendqisi2
 388 0392 07EE903A 		vmov	s15, r3	@ int
 389 0396 F8EE677A 		vcvt.f32.u32	s15, s15
 390 039a CDED037A 		vstr.32	s15, [sp, #12]
 391 039e 40E6     		b	.L75
 392              	.L31:
 393 03a0 934B     		ldr	r3, .L81+12
 394 03a2 93F82D30 		ldrb	r3, [r3, #45]	@ zero_extendqisi2
 395 03a6 07EE903A 		vmov	s15, r3	@ int
 396 03aa F8EE677A 		vcvt.f32.u32	s15, s15
 397 03ae CDED037A 		vstr.32	s15, [sp, #12]
ARM GAS  /tmp/ccdfSvOo.s 			page 8


 398 03b2 36E6     		b	.L75
 399              	.L32:
 400 03b4 8E4B     		ldr	r3, .L81+12
 401 03b6 D3ED077A 		vldr.32	s15, [r3, #28]	@ int
 402 03ba F8EEE77A 		vcvt.f32.s32	s15, s15
 403 03be CDED037A 		vstr.32	s15, [sp, #12]
 404 03c2 2EE6     		b	.L75
 405              	.L33:
 406 03c4 8A4B     		ldr	r3, .L81+12
 407 03c6 D3ED067A 		vldr.32	s15, [r3, #24]	@ int
 408 03ca F8EEE77A 		vcvt.f32.s32	s15, s15
 409 03ce CDED037A 		vstr.32	s15, [sp, #12]
 410 03d2 26E6     		b	.L75
 411              	.L34:
 412 03d4 864B     		ldr	r3, .L81+12
 413 03d6 D3ED057A 		vldr.32	s15, [r3, #20]	@ int
 414 03da F8EEE77A 		vcvt.f32.s32	s15, s15
 415 03de CDED037A 		vstr.32	s15, [sp, #12]
 416 03e2 1EE6     		b	.L75
 417              	.L35:
 418 03e4 824B     		ldr	r3, .L81+12
 419 03e6 D3ED047A 		vldr.32	s15, [r3, #16]	@ int
 420 03ea F8EEE77A 		vcvt.f32.s32	s15, s15
 421 03ee CDED037A 		vstr.32	s15, [sp, #12]
 422 03f2 16E6     		b	.L75
 423              	.L36:
 424 03f4 7E4B     		ldr	r3, .L81+12
 425 03f6 D3ED037A 		vldr.32	s15, [r3, #12]	@ int
 426 03fa F8EEE77A 		vcvt.f32.s32	s15, s15
 427 03fe CDED037A 		vstr.32	s15, [sp, #12]
 428 0402 0EE6     		b	.L75
 429              	.L37:
 430 0404 7A4B     		ldr	r3, .L81+12
 431 0406 D3ED027A 		vldr.32	s15, [r3, #8]	@ int
 432 040a F8EEE77A 		vcvt.f32.s32	s15, s15
 433 040e CDED037A 		vstr.32	s15, [sp, #12]
 434 0412 06E6     		b	.L75
 435              	.L38:
 436 0414 764B     		ldr	r3, .L81+12
 437 0416 D3ED017A 		vldr.32	s15, [r3, #4]	@ int
 438 041a F8EEE77A 		vcvt.f32.s32	s15, s15
 439 041e CDED037A 		vstr.32	s15, [sp, #12]
 440 0422 FEE5     		b	.L75
 441              	.L39:
 442 0424 724B     		ldr	r3, .L81+12
 443 0426 D3ED007A 		vldr.32	s15, [r3]	@ int
 444 042a F8EEE77A 		vcvt.f32.s32	s15, s15
 445 042e CDED037A 		vstr.32	s15, [sp, #12]
 446 0432 F6E5     		b	.L75
 447              	.L64:
 448 0434 6F4B     		ldr	r3, .L81+16
 449 0436 D3F88030 		ldr	r3, [r3, #128]	@ float
 450 043a 0393     		str	r3, [sp, #12]	@ float
 451 043c F1E5     		b	.L75
 452              	.L65:
 453 043e 6D4B     		ldr	r3, .L81+16
 454 0440 DB6F     		ldr	r3, [r3, #124]	@ float
ARM GAS  /tmp/ccdfSvOo.s 			page 9


 455 0442 0393     		str	r3, [sp, #12]	@ float
 456 0444 EDE5     		b	.L75
 457              	.L66:
 458 0446 6B4B     		ldr	r3, .L81+16
 459 0448 1B6E     		ldr	r3, [r3, #96]	@ float
 460 044a 0393     		str	r3, [sp, #12]	@ float
 461 044c E9E5     		b	.L75
 462              	.L67:
 463 044e 694B     		ldr	r3, .L81+16
 464 0450 1B6C     		ldr	r3, [r3, #64]	@ float
 465 0452 0393     		str	r3, [sp, #12]	@ float
 466 0454 E5E5     		b	.L75
 467              	.L44:
 468 0456 684B     		ldr	r3, .L81+20
 469 0458 D3ED017A 		vldr.32	s15, [r3, #4]	@ int
 470 045c F8EEE77A 		vcvt.f32.s32	s15, s15
 471 0460 CDED037A 		vstr.32	s15, [sp, #12]
 472 0464 DDE5     		b	.L75
 473              	.L45:
 474 0466 654B     		ldr	r3, .L81+24
 475 0468 9B6A     		ldr	r3, [r3, #40]	@ float
 476 046a 0393     		str	r3, [sp, #12]	@ float
 477 046c D9E5     		b	.L75
 478              	.L46:
 479 046e 634B     		ldr	r3, .L81+24
 480 0470 5B6A     		ldr	r3, [r3, #36]	@ float
 481 0472 0393     		str	r3, [sp, #12]	@ float
 482 0474 D5E5     		b	.L75
 483              	.L47:
 484 0476 614B     		ldr	r3, .L81+24
 485 0478 1B6A     		ldr	r3, [r3, #32]	@ float
 486 047a 0393     		str	r3, [sp, #12]	@ float
 487 047c D1E5     		b	.L75
 488              	.L48:
 489 047e 5F4B     		ldr	r3, .L81+24
 490 0480 DB6A     		ldr	r3, [r3, #44]	@ float
 491 0482 0393     		str	r3, [sp, #12]	@ float
 492 0484 CDE5     		b	.L75
 493              	.L49:
 494 0486 5C4B     		ldr	r3, .L81+20
 495 0488 5B78     		ldrb	r3, [r3, #1]	@ zero_extendqisi2
 496 048a 07EE903A 		vmov	s15, r3	@ int
 497 048e F8EE677A 		vcvt.f32.u32	s15, s15
 498 0492 CDED037A 		vstr.32	s15, [sp, #12]
 499 0496 C4E5     		b	.L75
 500              	.L50:
 501 0498 594B     		ldr	r3, .L81+28
 502 049a 93F80A39 		ldrb	r3, [r3, #2314]	@ zero_extendqisi2
 503 049e 07EE903A 		vmov	s15, r3	@ int
 504 04a2 F8EE677A 		vcvt.f32.u32	s15, s15
 505 04a6 CDED037A 		vstr.32	s15, [sp, #12]
 506 04aa BAE5     		b	.L75
 507              	.L51:
 508 04ac 544B     		ldr	r3, .L81+28
 509 04ae 93F80939 		ldrb	r3, [r3, #2313]	@ zero_extendqisi2
 510 04b2 07EE903A 		vmov	s15, r3	@ int
 511 04b6 F8EE677A 		vcvt.f32.u32	s15, s15
ARM GAS  /tmp/ccdfSvOo.s 			page 10


 512 04ba CDED037A 		vstr.32	s15, [sp, #12]
 513 04be B0E5     		b	.L75
 514              	.L52:
 515 04c0 4F4B     		ldr	r3, .L81+28
 516 04c2 93F80839 		ldrb	r3, [r3, #2312]	@ zero_extendqisi2
 517 04c6 07EE903A 		vmov	s15, r3	@ int
 518 04ca F8EE677A 		vcvt.f32.u32	s15, s15
 519 04ce CDED037A 		vstr.32	s15, [sp, #12]
 520 04d2 A6E5     		b	.L75
 521              	.L53:
 522 04d4 4A4B     		ldr	r3, .L81+28
 523 04d6 93F80B39 		ldrb	r3, [r3, #2315]	@ zero_extendqisi2
 524 04da 07EE903A 		vmov	s15, r3	@ int
 525 04de F8EE677A 		vcvt.f32.u32	s15, s15
 526 04e2 CDED037A 		vstr.32	s15, [sp, #12]
 527 04e6 9CE5     		b	.L75
 528              	.L54:
 529 04e8 464B     		ldr	r3, .L81+32
 530 04ea 1B68     		ldr	r3, [r3]	@ float
 531 04ec 0393     		str	r3, [sp, #12]	@ float
 532 04ee 98E5     		b	.L75
 533              	.L55:
 534 04f0 454B     		ldr	r3, .L81+36
 535 04f2 1B68     		ldr	r3, [r3]	@ float
 536 04f4 0393     		str	r3, [sp, #12]	@ float
 537 04f6 94E5     		b	.L75
 538              	.L68:
 539 04f8 444B     		ldr	r3, .L81+40
 540 04fa 1B68     		ldr	r3, [r3]	@ float
 541 04fc 0393     		str	r3, [sp, #12]	@ float
 542 04fe 90E5     		b	.L75
 543              	.L69:
 544 0500 434B     		ldr	r3, .L81+44
 545 0502 1B78     		ldrb	r3, [r3]	@ zero_extendqisi2
 546 0504 07EE903A 		vmov	s15, r3	@ int
 547 0508 F8EE677A 		vcvt.f32.u32	s15, s15
 548 050c CDED037A 		vstr.32	s15, [sp, #12]
 549 0510 87E5     		b	.L75
 550              	.L70:
 551 0512 3F4B     		ldr	r3, .L81+44
 552 0514 1B7A     		ldrb	r3, [r3, #8]	@ zero_extendqisi2
 553 0516 07EE903A 		vmov	s15, r3	@ int
 554 051a F8EE677A 		vcvt.f32.u32	s15, s15
 555 051e CDED037A 		vstr.32	s15, [sp, #12]
 556 0522 7EE5     		b	.L75
 557              	.L71:
 558 0524 3B4B     		ldr	r3, .L81+48
 559 0526 1B78     		ldrb	r3, [r3]	@ zero_extendqisi2
 560 0528 07EE903A 		vmov	s15, r3	@ int
 561 052c F8EE677A 		vcvt.f32.u32	s15, s15
 562 0530 CDED037A 		vstr.32	s15, [sp, #12]
 563 0534 75E5     		b	.L75
 564              	.L60:
 565 0536 384B     		ldr	r3, .L81+52
 566 0538 93F82230 		ldrb	r3, [r3, #34]	@ zero_extendqisi2
 567 053c 07EE903A 		vmov	s15, r3	@ int
 568 0540 F8EE677A 		vcvt.f32.u32	s15, s15
ARM GAS  /tmp/ccdfSvOo.s 			page 11


 569 0544 CDED037A 		vstr.32	s15, [sp, #12]
 570 0548 6BE5     		b	.L75
 571              	.L61:
 572 054a 334B     		ldr	r3, .L81+52
 573 054c 5B69     		ldr	r3, [r3, #20]	@ float
 574 054e 0393     		str	r3, [sp, #12]	@ float
 575 0550 67E5     		b	.L75
 576              	.L62:
 577 0552 314B     		ldr	r3, .L81+52
 578 0554 9B69     		ldr	r3, [r3, #24]	@ float
 579 0556 0393     		str	r3, [sp, #12]	@ float
 580 0558 63E5     		b	.L75
 581              	.L63:
 582 055a 304B     		ldr	r3, .L81+56
 583 055c 1B78     		ldrb	r3, [r3]	@ zero_extendqisi2
 584 055e 07EE903A 		vmov	s15, r3	@ int
 585 0562 F8EE677A 		vcvt.f32.u32	s15, s15
 586 0566 CDED037A 		vstr.32	s15, [sp, #12]
 587 056a 5AE5     		b	.L75
 588              	.L7:
 589 056c 2C4B     		ldr	r3, .L81+60
 590 056e 9B6C     		ldr	r3, [r3, #72]	@ float
 591 0570 0393     		str	r3, [sp, #12]	@ float
 592 0572 56E5     		b	.L75
 593              	.L9:
 594 0574 2A4B     		ldr	r3, .L81+60
 595 0576 DB6B     		ldr	r3, [r3, #60]	@ float
 596 0578 0393     		str	r3, [sp, #12]	@ float
 597 057a 52E5     		b	.L75
 598              	.L10:
 599 057c 284B     		ldr	r3, .L81+60
 600 057e 5B6C     		ldr	r3, [r3, #68]	@ float
 601 0580 0393     		str	r3, [sp, #12]	@ float
 602 0582 4EE5     		b	.L75
 603              	.L11:
 604 0584 264B     		ldr	r3, .L81+60
 605 0586 9B6B     		ldr	r3, [r3, #56]	@ float
 606 0588 0393     		str	r3, [sp, #12]	@ float
 607 058a 4AE5     		b	.L75
 608              	.L40:
 609 058c 184B     		ldr	r3, .L81+12
 610 058e 93F82C30 		ldrb	r3, [r3, #44]	@ zero_extendqisi2
 611 0592 07EE903A 		vmov	s15, r3	@ int
 612 0596 F8EE677A 		vcvt.f32.u32	s15, s15
 613 059a CDED037A 		vstr.32	s15, [sp, #12]
 614 059e 40E5     		b	.L75
 615              	.L41:
 616 05a0 204B     		ldr	r3, .L81+64
 617 05a2 D3ED017A 		vldr.32	s15, [r3, #4]	@ int
 618 05a6 F8EEE77A 		vcvt.f32.s32	s15, s15
 619 05aa CDED037A 		vstr.32	s15, [sp, #12]
 620 05ae 38E5     		b	.L75
 621              	.L42:
 622 05b0 1C4B     		ldr	r3, .L81+64
 623 05b2 9B6A     		ldr	r3, [r3, #40]	@ float
 624 05b4 0393     		str	r3, [sp, #12]	@ float
 625 05b6 34E5     		b	.L75
ARM GAS  /tmp/ccdfSvOo.s 			page 12


 626              	.L43:
 627 05b8 0F4B     		ldr	r3, .L81+20
 628 05ba D3ED027A 		vldr.32	s15, [r3, #8]	@ int
 629 05be F8EEE77A 		vcvt.f32.s32	s15, s15
 630 05c2 CDED037A 		vstr.32	s15, [sp, #12]
 631 05c6 2CE5     		b	.L75
 632              	.L72:
 633 05c8 174B     		ldr	r3, .L81+68
 634 05ca 1B78     		ldrb	r3, [r3]	@ zero_extendqisi2
 635 05cc 07EE903A 		vmov	s15, r3	@ int
 636 05d0 F8EE677A 		vcvt.f32.u32	s15, s15
 637 05d4 CDED037A 		vstr.32	s15, [sp, #12]
 638 05d8 23E5     		b	.L75
 639              	.L73:
 640 05da 144B     		ldr	r3, .L81+72
 641 05dc 1B68     		ldr	r3, [r3]	@ float
 642 05de 0393     		str	r3, [sp, #12]	@ float
 643 05e0 1FE5     		b	.L75
 644              	.L82:
 645 05e2 00BF     		.align	2
 646              	.L81:
 647 05e4 00000000 		.word	stabilization_gains
 648 05e8 00000000 		.word	vff
 649 05ec 00000000 		.word	ahrs_madgwick
 650 05f0 00000000 		.word	guidance_pid
 651 05f4 00000000 		.word	nav
 652 05f8 00000000 		.word	guidance_h
 653 05fc 00000000 		.word	gh_ref
 654 0600 00000000 		.word	imu
 655 0604 E0080000 		.word	imu+2272
 656 0608 DC080000 		.word	imu+2268
 657 060c 00000000 		.word	flight_altitude
 658 0610 00000000 		.word	.LANCHOR1
 659 0614 00000000 		.word	autopilot_mode_auto2
 660 0618 00000000 		.word	air_data
 661 061c 00000000 		.word	multi_gps_mode
 662 0620 00000000 		.word	att_ref_quat_i
 663 0624 00000000 		.word	guidance_v
 664 0628 00000000 		.word	gps_datalink_gps_datalink_periodic_check_status
 665 062c 00000000 		.word	desired_heading
 666              	.L74:
 667 0630 044B     		ldr	r3, .L83
 668 0632 1B68     		ldr	r3, [r3]	@ float
 669 0634 0393     		str	r3, [sp, #12]	@ float
 670 0636 F4E4     		b	.L75
 671              	.L76:
 672 0638 069B     		ldr	r3, [sp, #24]
 673 063a 05A8     		add	r0, sp, #20
 674 063c 9B69     		ldr	r3, [r3, #24]
 675 063e 9847     		blx	r3
 676 0640 5BE5     		b	.L77
 677              	.L84:
 678 0642 00BF     		.align	2
 679              	.L83:
 680 0644 00000000 		.word	nominal_alt
 681              		.size	send_dl_value, .-send_dl_value
 682              		.section	.rodata.send_alive.str1.4,"aMS",%progbits,1
ARM GAS  /tmp/ccdfSvOo.s 			page 13


 683              		.align	2
 684              	.LC1:
 685 0000 414C4956 		.ascii	"ALIVE\000"
 685      4500
 686 0006 0000     		.align	2
 687              	.LC2:
 688 0008 B44E0F38 		.ascii	"\264N\0178N\327\"\314\277\306\341\004Mn\235\204\000"
 688      4ED722CC 
 688      BFC6E104 
 688      4D6E9D84 
 688      00
 689              		.section	.text.send_alive,"ax",%progbits
 690              		.align	1
 691              		.p2align 4,,15
 692              		.syntax unified
 693              		.thumb
 694              		.thumb_func
 695              		.fpu fpv4-sp-d16
 696              		.type	send_alive, %function
 697              	send_alive:
 698              		@ args = 0, pretend = 0, frame = 24
 699              		@ frame_needed = 0, uses_anonymous_args = 0
 700 0000 F0B5     		push	{r4, r5, r6, r7, lr}
 701 0002 89B0     		sub	sp, sp, #36
 702 0004 1022     		movs	r2, #16
 703 0006 0024     		movs	r4, #0
 704 0008 1F25     		movs	r5, #31
 705 000a 0368     		ldr	r3, [r0]
 706 000c 0690     		str	r0, [sp, #24]
 707 000e 0791     		str	r1, [sp, #28]
 708 0010 ADF81450 		strh	r5, [sp, #20]	@ movhi
 709 0014 8DF80F20 		strb	r2, [sp, #15]
 710 0018 1521     		movs	r1, #21
 711 001a 8DF81640 		strb	r4, [sp, #22]
 712 001e 0494     		str	r4, [sp, #16]
 713 0020 05A8     		add	r0, sp, #20
 714 0022 9847     		blx	r3
 715 0024 069B     		ldr	r3, [sp, #24]
 716 0026 82B2     		uxth	r2, r0
 717 0028 5B68     		ldr	r3, [r3, #4]
 718 002a 0546     		mov	r5, r0
 719 002c 04A9     		add	r1, sp, #16
 720 002e 05A8     		add	r0, sp, #20
 721 0030 9847     		blx	r3
 722 0032 069B     		ldr	r3, [sp, #24]
 723 0034 0028     		cmp	r0, #0
 724 0036 59D0     		beq	.L86
 725 0038 2946     		mov	r1, r5
 726 003a 05A8     		add	r0, sp, #20
 727 003c DB69     		ldr	r3, [r3, #28]
 728 003e 9847     		blx	r3
 729 0040 9DF80F20 		ldrb	r2, [sp, #15]	@ zero_extendqisi2
 730 0044 069B     		ldr	r3, [sp, #24]
 731 0046 0499     		ldr	r1, [sp, #16]
 732 0048 1B69     		ldr	r3, [r3, #16]
 733 004a 0532     		adds	r2, r2, #5
 734 004c 05A8     		add	r0, sp, #20
ARM GAS  /tmp/ccdfSvOo.s 			page 14


 735 004e D2B2     		uxtb	r2, r2
 736 0050 9847     		blx	r3
 737 0052 0126     		movs	r6, #1
 738 0054 069A     		ldr	r2, [sp, #24]
 739 0056 0196     		str	r6, [sp, #4]
 740 0058 05AB     		add	r3, sp, #20
 741 005a 0093     		str	r3, [sp]
 742 005c 9568     		ldr	r5, [r2, #8]
 743 005e 0499     		ldr	r1, [sp, #16]
 744 0060 2346     		mov	r3, r4
 745 0062 05A8     		add	r0, sp, #20
 746 0064 0222     		movs	r2, #2
 747 0066 A847     		blx	r5
 748 0068 9DF81530 		ldrb	r3, [sp, #21]	@ zero_extendqisi2
 749 006c 069A     		ldr	r2, [sp, #24]
 750 006e 0499     		ldr	r1, [sp, #16]
 751 0070 CDE90034 		strd	r3, r4, [sp]
 752 0074 05A8     		add	r0, sp, #20
 753 0076 D568     		ldr	r5, [r2, #12]
 754 0078 2346     		mov	r3, r4
 755 007a 0222     		movs	r2, #2
 756 007c A847     		blx	r5
 757 007e 9DF81630 		ldrb	r3, [sp, #22]	@ zero_extendqisi2
 758 0082 069A     		ldr	r2, [sp, #24]
 759 0084 0499     		ldr	r1, [sp, #16]
 760 0086 1B01     		lsls	r3, r3, #4
 761 0088 3343     		orrs	r3, r3, r6
 762 008a DBB2     		uxtb	r3, r3
 763 008c CDE90034 		strd	r3, r4, [sp]
 764 0090 05A8     		add	r0, sp, #20
 765 0092 D568     		ldr	r5, [r2, #12]
 766 0094 2346     		mov	r3, r4
 767 0096 0222     		movs	r2, #2
 768 0098 A847     		blx	r5
 769 009a 069B     		ldr	r3, [sp, #24]
 770 009c 164A     		ldr	r2, .L89
 771 009e 0192     		str	r2, [sp, #4]
 772 00a0 0225     		movs	r5, #2
 773 00a2 0095     		str	r5, [sp]
 774 00a4 DF68     		ldr	r7, [r3, #12]
 775 00a6 0499     		ldr	r1, [sp, #16]
 776 00a8 2346     		mov	r3, r4
 777 00aa 2A46     		mov	r2, r5
 778 00ac 05A8     		add	r0, sp, #20
 779 00ae B847     		blx	r7
 780 00b0 069B     		ldr	r3, [sp, #24]
 781 00b2 0196     		str	r6, [sp, #4]
 782 00b4 0DF10F02 		add	r2, sp, #15
 783 00b8 0092     		str	r2, [sp]
 784 00ba 9F68     		ldr	r7, [r3, #8]
 785 00bc 0499     		ldr	r1, [sp, #16]
 786 00be 2346     		mov	r3, r4
 787 00c0 2246     		mov	r2, r4
 788 00c2 05A8     		add	r0, sp, #20
 789 00c4 B847     		blx	r7
 790 00c6 9DF80F20 		ldrb	r2, [sp, #15]	@ zero_extendqisi2
 791 00ca 069B     		ldr	r3, [sp, #24]
ARM GAS  /tmp/ccdfSvOo.s 			page 15


 792 00cc 0192     		str	r2, [sp, #4]
 793 00ce 0B4A     		ldr	r2, .L89+4
 794 00d0 0092     		str	r2, [sp]
 795 00d2 0499     		ldr	r1, [sp, #16]
 796 00d4 9C68     		ldr	r4, [r3, #8]
 797 00d6 2A46     		mov	r2, r5
 798 00d8 3346     		mov	r3, r6
 799 00da 05A8     		add	r0, sp, #20
 800 00dc A047     		blx	r4
 801 00de 069B     		ldr	r3, [sp, #24]
 802 00e0 0499     		ldr	r1, [sp, #16]
 803 00e2 5B69     		ldr	r3, [r3, #20]
 804 00e4 05A8     		add	r0, sp, #20
 805 00e6 9847     		blx	r3
 806 00e8 09B0     		add	sp, sp, #36
 807              		@ sp needed
 808 00ea F0BD     		pop	{r4, r5, r6, r7, pc}
 809              	.L86:
 810 00ec 9B69     		ldr	r3, [r3, #24]
 811 00ee 05A8     		add	r0, sp, #20
 812 00f0 9847     		blx	r3
 813 00f2 09B0     		add	sp, sp, #36
 814              		@ sp needed
 815 00f4 F0BD     		pop	{r4, r5, r6, r7, pc}
 816              	.L90:
 817 00f6 00BF     		.align	2
 818              	.L89:
 819 00f8 00000000 		.word	.LC1
 820 00fc 08000000 		.word	.LC2
 821              		.size	send_alive, .-send_alive
 822              		.section	.rodata.pprzlink_msg_v2_send_AUTOPILOT_VERSION.constprop.0.str1.4,"aMS",%progbits,1
 823              		.align	2
 824              	.LC3:
 825 0000 4155544F 		.ascii	"AUTOPILOT_VERSION\000"
 825      50494C4F 
 825      545F5645 
 825      5253494F 
 825      4E00
 826              		.section	.text.pprzlink_msg_v2_send_AUTOPILOT_VERSION.constprop.0,"ax",%progbits
 827              		.align	1
 828              		.p2align 4,,15
 829              		.syntax unified
 830              		.thumb
 831              		.thumb_func
 832              		.fpu fpv4-sp-d16
 833              		.type	pprzlink_msg_v2_send_AUTOPILOT_VERSION.constprop.0, %function
 834              	pprzlink_msg_v2_send_AUTOPILOT_VERSION.constprop.0:
 835              		@ args = 0, pretend = 0, frame = 16
 836              		@ frame_needed = 0, uses_anonymous_args = 0
 837 0000 2DE9F041 		push	{r4, r5, r6, r7, r8, lr}
 838 0004 86B0     		sub	sp, sp, #24
 839 0006 4368     		ldr	r3, [r0, #4]
 840 0008 8DF80F10 		strb	r1, [sp, #15]
 841 000c 0025     		movs	r5, #0
 842 000e 0931     		adds	r1, r1, #9
 843 0010 0446     		mov	r4, r0
 844 0012 1B68     		ldr	r3, [r3]
ARM GAS  /tmp/ccdfSvOo.s 			page 16


 845 0014 0595     		str	r5, [sp, #20]
 846 0016 C9B2     		uxtb	r1, r1
 847 0018 1746     		mov	r7, r2
 848 001a 9847     		blx	r3
 849 001c 6368     		ldr	r3, [r4, #4]
 850 001e 82B2     		uxth	r2, r0
 851 0020 5B68     		ldr	r3, [r3, #4]
 852 0022 0646     		mov	r6, r0
 853 0024 05A9     		add	r1, sp, #20
 854 0026 2046     		mov	r0, r4
 855 0028 9847     		blx	r3
 856 002a 6368     		ldr	r3, [r4, #4]
 857 002c 0028     		cmp	r0, #0
 858 002e 66D0     		beq	.L92
 859 0030 3146     		mov	r1, r6
 860 0032 2046     		mov	r0, r4
 861 0034 DB69     		ldr	r3, [r3, #28]
 862 0036 9847     		blx	r3
 863 0038 9DF80F20 		ldrb	r2, [sp, #15]	@ zero_extendqisi2
 864 003c 6368     		ldr	r3, [r4, #4]
 865 003e 0599     		ldr	r1, [sp, #20]
 866 0040 1B69     		ldr	r3, [r3, #16]
 867 0042 0932     		adds	r2, r2, #9
 868 0044 0126     		movs	r6, #1
 869 0046 2046     		mov	r0, r4
 870 0048 D2B2     		uxtb	r2, r2
 871 004a 9847     		blx	r3
 872 004c 6368     		ldr	r3, [r4, #4]
 873 004e 0599     		ldr	r1, [sp, #20]
 874 0050 CDE90046 		strd	r4, r6, [sp]
 875 0054 2046     		mov	r0, r4
 876 0056 D3F80880 		ldr	r8, [r3, #8]
 877 005a 0222     		movs	r2, #2
 878 005c 2B46     		mov	r3, r5
 879 005e C047     		blx	r8
 880 0060 6368     		ldr	r3, [r4, #4]
 881 0062 0195     		str	r5, [sp, #4]
 882 0064 6278     		ldrb	r2, [r4, #1]	@ zero_extendqisi2
 883 0066 0092     		str	r2, [sp]
 884 0068 D3F80C80 		ldr	r8, [r3, #12]
 885 006c 0599     		ldr	r1, [sp, #20]
 886 006e 2B46     		mov	r3, r5
 887 0070 2046     		mov	r0, r4
 888 0072 0222     		movs	r2, #2
 889 0074 C047     		blx	r8
 890 0076 6268     		ldr	r2, [r4, #4]
 891 0078 0195     		str	r5, [sp, #4]
 892 007a A378     		ldrb	r3, [r4, #2]	@ zero_extendqisi2
 893 007c 0599     		ldr	r1, [sp, #20]
 894 007e 1B01     		lsls	r3, r3, #4
 895 0080 3343     		orrs	r3, r3, r6
 896 0082 DBB2     		uxtb	r3, r3
 897 0084 0093     		str	r3, [sp]
 898 0086 D2F80C80 		ldr	r8, [r2, #12]
 899 008a 2B46     		mov	r3, r5
 900 008c 2046     		mov	r0, r4
 901 008e 0222     		movs	r2, #2
ARM GAS  /tmp/ccdfSvOo.s 			page 17


 902 0090 C047     		blx	r8
 903 0092 6368     		ldr	r3, [r4, #4]
 904 0094 1D4A     		ldr	r2, .L95
 905 0096 0192     		str	r2, [sp, #4]
 906 0098 0096     		str	r6, [sp]
 907 009a D3F80C80 		ldr	r8, [r3, #12]
 908 009e 0599     		ldr	r1, [sp, #20]
 909 00a0 2B46     		mov	r3, r5
 910 00a2 2046     		mov	r0, r4
 911 00a4 0222     		movs	r2, #2
 912 00a6 C047     		blx	r8
 913 00a8 194A     		ldr	r2, .L95+4
 914 00aa 6368     		ldr	r3, [r4, #4]
 915 00ac 0092     		str	r2, [sp]
 916 00ae 0422     		movs	r2, #4
 917 00b0 0192     		str	r2, [sp, #4]
 918 00b2 D3F80880 		ldr	r8, [r3, #8]
 919 00b6 0599     		ldr	r1, [sp, #20]
 920 00b8 2B46     		mov	r3, r5
 921 00ba 2046     		mov	r0, r4
 922 00bc 0622     		movs	r2, #6
 923 00be C047     		blx	r8
 924 00c0 6368     		ldr	r3, [r4, #4]
 925 00c2 0196     		str	r6, [sp, #4]
 926 00c4 0DF10F02 		add	r2, sp, #15
 927 00c8 0092     		str	r2, [sp]
 928 00ca D3F80880 		ldr	r8, [r3, #8]
 929 00ce 0599     		ldr	r1, [sp, #20]
 930 00d0 2B46     		mov	r3, r5
 931 00d2 2A46     		mov	r2, r5
 932 00d4 2046     		mov	r0, r4
 933 00d6 C047     		blx	r8
 934 00d8 9DF80F20 		ldrb	r2, [sp, #15]	@ zero_extendqisi2
 935 00dc 6368     		ldr	r3, [r4, #4]
 936 00de 0599     		ldr	r1, [sp, #20]
 937 00e0 CDE90072 		strd	r7, r2, [sp]
 938 00e4 2046     		mov	r0, r4
 939 00e6 9D68     		ldr	r5, [r3, #8]
 940 00e8 3246     		mov	r2, r6
 941 00ea 3346     		mov	r3, r6
 942 00ec A847     		blx	r5
 943 00ee 6368     		ldr	r3, [r4, #4]
 944 00f0 0599     		ldr	r1, [sp, #20]
 945 00f2 5B69     		ldr	r3, [r3, #20]
 946 00f4 2046     		mov	r0, r4
 947 00f6 9847     		blx	r3
 948 00f8 06B0     		add	sp, sp, #24
 949              		@ sp needed
 950 00fa BDE8F081 		pop	{r4, r5, r6, r7, r8, pc}
 951              	.L92:
 952 00fe 9B69     		ldr	r3, [r3, #24]
 953 0100 2046     		mov	r0, r4
 954 0102 9847     		blx	r3
 955 0104 06B0     		add	sp, sp, #24
 956              		@ sp needed
 957 0106 BDE8F081 		pop	{r4, r5, r6, r7, r8, pc}
 958              	.L96:
ARM GAS  /tmp/ccdfSvOo.s 			page 18


 959 010a 00BF     		.align	2
 960              	.L95:
 961 010c 00000000 		.word	.LC3
 962 0110 00000000 		.word	.LANCHOR2
 963              		.size	pprzlink_msg_v2_send_AUTOPILOT_VERSION.constprop.0, .-pprzlink_msg_v2_send_AUTOPILOT_VERSION
 964              		.section	.rodata.send_autopilot_version.str1.4,"aMS",%progbits,1
 965              		.align	2
 966              	.LC4:
 967 0000 76372E30 		.ascii	"v7.0_unstable-15-g5c1c35e859-dirty\000"
 967      5F756E73 
 967      7461626C 
 967      652D3135 
 967      2D673563 
 968              		.section	.text.send_autopilot_version,"ax",%progbits
 969              		.align	1
 970              		.p2align 4,,15
 971              		.syntax unified
 972              		.thumb
 973              		.thumb_func
 974              		.fpu fpv4-sp-d16
 975              		.type	send_autopilot_version, %function
 976              	send_autopilot_version:
 977              		@ args = 0, pretend = 0, frame = 16
 978              		@ frame_needed = 0, uses_anonymous_args = 0
 979 0000 00B5     		push	{lr}
 980 0002 85B0     		sub	sp, sp, #20
 981 0004 CDE90201 		strd	r0, r1, [sp, #8]
 982 0008 4FF01F0C 		mov	ip, #31
 983 000c 0023     		movs	r3, #0
 984 000e 064A     		ldr	r2, .L99
 985 0010 ADF804C0 		strh	ip, [sp, #4]	@ movhi
 986 0014 2221     		movs	r1, #34
 987 0016 01A8     		add	r0, sp, #4
 988 0018 8DF80630 		strb	r3, [sp, #6]
 989 001c FFF7FEFF 		bl	pprzlink_msg_v2_send_AUTOPILOT_VERSION.constprop.0
 990 0020 05B0     		add	sp, sp, #20
 991              		@ sp needed
 992 0022 5DF804FB 		ldr	pc, [sp], #4
 993              	.L100:
 994 0026 00BF     		.align	2
 995              	.L99:
 996 0028 00000000 		.word	.LC4
 997              		.size	send_autopilot_version, .-send_autopilot_version
 998              		.section	.rodata.send_attitude.str1.4,"aMS",%progbits,1
 999              		.align	2
 1000              	.LC5:
 1001 0000 41545449 		.ascii	"ATTITUDE\000"
 1001      54554445 
 1001      00
 1002              		.section	.text.send_attitude,"ax",%progbits
 1003              		.align	1
 1004              		.p2align 4,,15
 1005              		.syntax unified
 1006              		.thumb
 1007              		.thumb_func
 1008              		.fpu fpv4-sp-d16
 1009              		.type	send_attitude, %function
ARM GAS  /tmp/ccdfSvOo.s 			page 19


 1010              	send_attitude:
 1011              		@ args = 0, pretend = 0, frame = 16
 1012              		@ frame_needed = 0, uses_anonymous_args = 0
 1013 0000 F0B5     		push	{r4, r5, r6, r7, lr}
 1014 0002 454B     		ldr	r3, .L107
 1015 0004 93F8B021 		ldrb	r2, [r3, #432]	@ zero_extendqisi2
 1016 0008 D206     		lsls	r2, r2, #27
 1017 000a 87B0     		sub	sp, sp, #28
 1018 000c 0546     		mov	r5, r0
 1019 000e 0E46     		mov	r6, r1
 1020 0010 7CD5     		bpl	.L106
 1021              	.L102:
 1022 0012 1F22     		movs	r2, #31
 1023 0014 0024     		movs	r4, #0
 1024 0016 2B68     		ldr	r3, [r5]
 1025 0018 0495     		str	r5, [sp, #16]
 1026 001a 1021     		movs	r1, #16
 1027 001c ADF80C20 		strh	r2, [sp, #12]	@ movhi
 1028 0020 0596     		str	r6, [sp, #20]
 1029 0022 8DF80E40 		strb	r4, [sp, #14]
 1030 0026 0294     		str	r4, [sp, #8]
 1031 0028 03A8     		add	r0, sp, #12
 1032 002a 9847     		blx	r3
 1033 002c 049B     		ldr	r3, [sp, #16]
 1034 002e 82B2     		uxth	r2, r0
 1035 0030 5B68     		ldr	r3, [r3, #4]
 1036 0032 0546     		mov	r5, r0
 1037 0034 02A9     		add	r1, sp, #8
 1038 0036 03A8     		add	r0, sp, #12
 1039 0038 9847     		blx	r3
 1040 003a 049B     		ldr	r3, [sp, #16]
 1041 003c 0028     		cmp	r0, #0
 1042 003e 60D0     		beq	.L103
 1043 0040 2946     		mov	r1, r5
 1044 0042 03A8     		add	r0, sp, #12
 1045 0044 DB69     		ldr	r3, [r3, #28]
 1046 0046 9847     		blx	r3
 1047 0048 049B     		ldr	r3, [sp, #16]
 1048 004a 0299     		ldr	r1, [sp, #8]
 1049 004c 1B69     		ldr	r3, [r3, #16]
 1050 004e 03A8     		add	r0, sp, #12
 1051 0050 1022     		movs	r2, #16
 1052 0052 9847     		blx	r3
 1053 0054 0123     		movs	r3, #1
 1054 0056 049A     		ldr	r2, [sp, #16]
 1055 0058 0193     		str	r3, [sp, #4]
 1056 005a 03AB     		add	r3, sp, #12
 1057 005c 0093     		str	r3, [sp]
 1058 005e 9568     		ldr	r5, [r2, #8]
 1059 0060 0299     		ldr	r1, [sp, #8]
 1060 0062 2346     		mov	r3, r4
 1061 0064 03A8     		add	r0, sp, #12
 1062 0066 0222     		movs	r2, #2
 1063 0068 A847     		blx	r5
 1064 006a 9DF80D30 		ldrb	r3, [sp, #13]	@ zero_extendqisi2
 1065 006e 049A     		ldr	r2, [sp, #16]
 1066 0070 0299     		ldr	r1, [sp, #8]
ARM GAS  /tmp/ccdfSvOo.s 			page 20


 1067 0072 CDE90034 		strd	r3, r4, [sp]
 1068 0076 03A8     		add	r0, sp, #12
 1069 0078 D568     		ldr	r5, [r2, #12]
 1070 007a 2346     		mov	r3, r4
 1071 007c 0222     		movs	r2, #2
 1072 007e A847     		blx	r5
 1073 0080 9DF80E30 		ldrb	r3, [sp, #14]	@ zero_extendqisi2
 1074 0084 049A     		ldr	r2, [sp, #16]
 1075 0086 0299     		ldr	r1, [sp, #8]
 1076 0088 1B01     		lsls	r3, r3, #4
 1077 008a 43F00103 		orr	r3, r3, #1
 1078 008e DBB2     		uxtb	r3, r3
 1079 0090 CDE90034 		strd	r3, r4, [sp]
 1080 0094 03A8     		add	r0, sp, #12
 1081 0096 D568     		ldr	r5, [r2, #12]
 1082 0098 2346     		mov	r3, r4
 1083 009a 0222     		movs	r2, #2
 1084 009c A847     		blx	r5
 1085 009e 1F49     		ldr	r1, .L107+4
 1086 00a0 049A     		ldr	r2, [sp, #16]
 1087 00a2 0623     		movs	r3, #6
 1088 00a4 CDE90031 		strd	r3, r1, [sp]
 1089 00a8 03A8     		add	r0, sp, #12
 1090 00aa D568     		ldr	r5, [r2, #12]
 1091 00ac 0299     		ldr	r1, [sp, #8]
 1092 00ae 2346     		mov	r3, r4
 1093 00b0 0222     		movs	r2, #2
 1094 00b2 A847     		blx	r5
 1095 00b4 1A4D     		ldr	r5, .L107+8
 1096 00b6 049B     		ldr	r3, [sp, #16]
 1097 00b8 0299     		ldr	r1, [sp, #8]
 1098 00ba 0426     		movs	r6, #4
 1099 00bc CDE90056 		strd	r5, r6, [sp]
 1100 00c0 03A8     		add	r0, sp, #12
 1101 00c2 9F68     		ldr	r7, [r3, #8]
 1102 00c4 0A22     		movs	r2, #10
 1103 00c6 2346     		mov	r3, r4
 1104 00c8 B847     		blx	r7
 1105 00ca 049B     		ldr	r3, [sp, #16]
 1106 00cc 0196     		str	r6, [sp, #4]
 1107 00ce 05F10802 		add	r2, r5, #8
 1108 00d2 0092     		str	r2, [sp]
 1109 00d4 9F68     		ldr	r7, [r3, #8]
 1110 00d6 0299     		ldr	r1, [sp, #8]
 1111 00d8 2346     		mov	r3, r4
 1112 00da 03A8     		add	r0, sp, #12
 1113 00dc 3544     		add	r5, r5, r6
 1114 00de 0A22     		movs	r2, #10
 1115 00e0 B847     		blx	r7
 1116 00e2 CDE90056 		strd	r5, r6, [sp]
 1117 00e6 049B     		ldr	r3, [sp, #16]
 1118 00e8 0299     		ldr	r1, [sp, #8]
 1119 00ea 9D68     		ldr	r5, [r3, #8]
 1120 00ec 03A8     		add	r0, sp, #12
 1121 00ee 2346     		mov	r3, r4
 1122 00f0 0A22     		movs	r2, #10
 1123 00f2 A847     		blx	r5
ARM GAS  /tmp/ccdfSvOo.s 			page 21


 1124 00f4 049B     		ldr	r3, [sp, #16]
 1125 00f6 0299     		ldr	r1, [sp, #8]
 1126 00f8 5B69     		ldr	r3, [r3, #20]
 1127 00fa 03A8     		add	r0, sp, #12
 1128 00fc 9847     		blx	r3
 1129 00fe 07B0     		add	sp, sp, #28
 1130              		@ sp needed
 1131 0100 F0BD     		pop	{r4, r5, r6, r7, pc}
 1132              	.L103:
 1133 0102 9B69     		ldr	r3, [r3, #24]
 1134 0104 03A8     		add	r0, sp, #12
 1135 0106 9847     		blx	r3
 1136 0108 07B0     		add	sp, sp, #28
 1137              		@ sp needed
 1138 010a F0BD     		pop	{r4, r5, r6, r7, pc}
 1139              	.L106:
 1140 010c 03F5D870 		add	r0, r3, #432
 1141 0110 FFF7FEFF 		bl	orientationCalcEulers_f
 1142 0114 7DE7     		b	.L102
 1143              	.L108:
 1144 0116 00BF     		.align	2
 1145              	.L107:
 1146 0118 00000000 		.word	state
 1147 011c 00000000 		.word	.LC5
 1148 0120 04020000 		.word	state+516
 1149              		.size	send_attitude, .-send_attitude
 1150              		.global	__aeabi_f2d
 1151              		.global	__aeabi_dmul
 1152              		.global	__aeabi_d2f
 1153              		.section	.rodata.send_minimal_com.str1.4,"aMS",%progbits,1
 1154              		.align	2
 1155              	.LC6:
 1156 0000 4D494E49 		.ascii	"MINIMAL_COM\000"
 1156      4D414C5F 
 1156      434F4D00 
 1157              		.section	.text.send_minimal_com,"ax",%progbits
 1158              		.align	1
 1159              		.p2align 4,,15
 1160              		.syntax unified
 1161              		.thumb
 1162              		.thumb_func
 1163              		.fpu fpv4-sp-d16
 1164              		.type	send_minimal_com, %function
 1165              	send_minimal_com:
 1166              		@ args = 0, pretend = 0, frame = 48
 1167              		@ frame_needed = 0, uses_anonymous_args = 0
 1168 0000 2DE9F041 		push	{r4, r5, r6, r7, r8, lr}
 1169 0004 A64C     		ldr	r4, .L124+8
 1170 0006 2788     		ldrh	r7, [r4]
 1171 0008 FA05     		lsls	r2, r7, #23
 1172 000a 8EB0     		sub	sp, sp, #56
 1173 000c 0546     		mov	r5, r0
 1174 000e 0E46     		mov	r6, r1
 1175 0010 40F12681 		bpl	.L119
 1176 0014 D4F88C00 		ldr	r0, [r4, #140]	@ float
 1177 0018 FFF7FEFF 		bl	__aeabi_f2d
 1178 001c 9EA3     		adr	r3, .L124
ARM GAS  /tmp/ccdfSvOo.s 			page 22


 1179 001e D3E90023 		ldrd	r2, [r3]
 1180 0022 FFF7FEFF 		bl	__aeabi_dmul
 1181 0026 FFF7FEFF 		bl	__aeabi_d2f
 1182 002a 0490     		str	r0, [sp, #16]	@ float
 1183              	.L111:
 1184 002c D4F89000 		ldr	r0, [r4, #144]	@ float
 1185 0030 FFF7FEFF 		bl	__aeabi_f2d
 1186 0034 98A3     		adr	r3, .L124
 1187 0036 D3E90023 		ldrd	r2, [r3]
 1188 003a FFF7FEFF 		bl	__aeabi_dmul
 1189 003e FFF7FEFF 		bl	__aeabi_d2f
 1190 0042 0590     		str	r0, [sp, #20]	@ float
 1191 0044 B805     		lsls	r0, r7, #22
 1192 0046 40F14381 		bpl	.L120
 1193              	.L112:
 1194 004a B4F81431 		ldrh	r3, [r4, #276]
 1195 004e D4F88020 		ldr	r2, [r4, #128]	@ float
 1196 0052 0692     		str	r2, [sp, #24]	@ float
 1197 0054 D905     		lsls	r1, r3, #23
 1198 0056 40F13681 		bpl	.L121
 1199              	.L113:
 1200 005a D4F86821 		ldr	r2, [r4, #360]	@ float
 1201 005e 0792     		str	r2, [sp, #28]	@ float
 1202 0060 9A05     		lsls	r2, r3, #22
 1203 0062 40F12B81 		bpl	.L122
 1204              	.L114:
 1205 0066 D4F86C21 		ldr	r2, [r4, #364]	@ float
 1206 006a 0892     		str	r2, [sp, #32]	@ float
 1207 006c 1B06     		lsls	r3, r3, #24
 1208 006e 40F10D81 		bpl	.L123
 1209              	.L115:
 1210 0072 0D96     		str	r6, [sp, #52]
 1211 0074 8B4E     		ldr	r6, .L124+12
 1212 0076 8C4A     		ldr	r2, .L124+16
 1213 0078 B6F90430 		ldrsh	r3, [r6, #4]
 1214 007c D4F86411 		ldr	r1, [r4, #356]	@ float
 1215 0080 0991     		str	r1, [sp, #36]	@ float
 1216 0082 82FB0302 		smull	r0, r2, r2, r3
 1217 0086 DB17     		asrs	r3, r3, #31
 1218 0088 C3EB2213 		rsb	r3, r3, r2, asr #4
 1219 008c 874A     		ldr	r2, .L124+20
 1220 008e 8DF80E30 		strb	r3, [sp, #14]
 1221 0092 92F86720 		ldrb	r2, [r2, #103]	@ zero_extendqisi2
 1222 0096 8DF80F20 		strb	r2, [sp, #15]
 1223 009a 0024     		movs	r4, #0
 1224 009c 1F23     		movs	r3, #31
 1225 009e ADF82C30 		strh	r3, [sp, #44]	@ movhi
 1226 00a2 0C95     		str	r5, [sp, #48]
 1227 00a4 2B68     		ldr	r3, [r5]
 1228 00a6 8DF82E40 		strb	r4, [sp, #46]
 1229 00aa 2621     		movs	r1, #38
 1230 00ac 0A94     		str	r4, [sp, #40]
 1231 00ae 0BA8     		add	r0, sp, #44
 1232 00b0 9847     		blx	r3
 1233 00b2 0C9B     		ldr	r3, [sp, #48]
 1234 00b4 82B2     		uxth	r2, r0
 1235 00b6 5B68     		ldr	r3, [r3, #4]
ARM GAS  /tmp/ccdfSvOo.s 			page 23


 1236 00b8 0546     		mov	r5, r0
 1237 00ba 0AA9     		add	r1, sp, #40
 1238 00bc 0BA8     		add	r0, sp, #44
 1239 00be 9847     		blx	r3
 1240 00c0 0C9B     		ldr	r3, [sp, #48]
 1241 00c2 0028     		cmp	r0, #0
 1242 00c4 00F0C680 		beq	.L116
 1243 00c8 2946     		mov	r1, r5
 1244 00ca 0BA8     		add	r0, sp, #44
 1245 00cc DB69     		ldr	r3, [r3, #28]
 1246 00ce 9847     		blx	r3
 1247 00d0 0C9B     		ldr	r3, [sp, #48]
 1248 00d2 0A99     		ldr	r1, [sp, #40]
 1249 00d4 1B69     		ldr	r3, [r3, #16]
 1250 00d6 0BA8     		add	r0, sp, #44
 1251 00d8 2622     		movs	r2, #38
 1252 00da 9847     		blx	r3
 1253 00dc 0127     		movs	r7, #1
 1254 00de 0C9B     		ldr	r3, [sp, #48]
 1255 00e0 0197     		str	r7, [sp, #4]
 1256 00e2 0BAA     		add	r2, sp, #44
 1257 00e4 0092     		str	r2, [sp]
 1258 00e6 9D68     		ldr	r5, [r3, #8]
 1259 00e8 0A99     		ldr	r1, [sp, #40]
 1260 00ea 2346     		mov	r3, r4
 1261 00ec 1046     		mov	r0, r2
 1262 00ee 0222     		movs	r2, #2
 1263 00f0 A847     		blx	r5
 1264 00f2 0C9B     		ldr	r3, [sp, #48]
 1265 00f4 9DF82D20 		ldrb	r2, [sp, #45]	@ zero_extendqisi2
 1266 00f8 0194     		str	r4, [sp, #4]
 1267 00fa 0092     		str	r2, [sp]
 1268 00fc DD68     		ldr	r5, [r3, #12]
 1269 00fe 0A99     		ldr	r1, [sp, #40]
 1270 0100 2346     		mov	r3, r4
 1271 0102 0BA8     		add	r0, sp, #44
 1272 0104 0222     		movs	r2, #2
 1273 0106 A847     		blx	r5
 1274 0108 9DF82E30 		ldrb	r3, [sp, #46]	@ zero_extendqisi2
 1275 010c 0C9A     		ldr	r2, [sp, #48]
 1276 010e 0194     		str	r4, [sp, #4]
 1277 0110 1B01     		lsls	r3, r3, #4
 1278 0112 3B43     		orrs	r3, r3, r7
 1279 0114 DBB2     		uxtb	r3, r3
 1280 0116 0093     		str	r3, [sp]
 1281 0118 D568     		ldr	r5, [r2, #12]
 1282 011a 0A99     		ldr	r1, [sp, #40]
 1283 011c 2346     		mov	r3, r4
 1284 011e 0BA8     		add	r0, sp, #44
 1285 0120 0222     		movs	r2, #2
 1286 0122 A847     		blx	r5
 1287 0124 624A     		ldr	r2, .L124+24
 1288 0126 0C9B     		ldr	r3, [sp, #48]
 1289 0128 0192     		str	r2, [sp, #4]
 1290 012a 5D22     		movs	r2, #93
 1291 012c 0092     		str	r2, [sp]
 1292 012e DD68     		ldr	r5, [r3, #12]
ARM GAS  /tmp/ccdfSvOo.s 			page 24


 1293 0130 0A99     		ldr	r1, [sp, #40]
 1294 0132 2346     		mov	r3, r4
 1295 0134 0BA8     		add	r0, sp, #44
 1296 0136 0222     		movs	r2, #2
 1297 0138 A847     		blx	r5
 1298 013a 0425     		movs	r5, #4
 1299 013c 0C9B     		ldr	r3, [sp, #48]
 1300 013e 0195     		str	r5, [sp, #4]
 1301 0140 04AA     		add	r2, sp, #16
 1302 0142 0092     		str	r2, [sp]
 1303 0144 D3F80880 		ldr	r8, [r3, #8]
 1304 0148 0A99     		ldr	r1, [sp, #40]
 1305 014a 2346     		mov	r3, r4
 1306 014c 0BA8     		add	r0, sp, #44
 1307 014e 0A22     		movs	r2, #10
 1308 0150 C047     		blx	r8
 1309 0152 0C9B     		ldr	r3, [sp, #48]
 1310 0154 0195     		str	r5, [sp, #4]
 1311 0156 05AA     		add	r2, sp, #20
 1312 0158 0092     		str	r2, [sp]
 1313 015a D3F80880 		ldr	r8, [r3, #8]
 1314 015e 0A99     		ldr	r1, [sp, #40]
 1315 0160 2346     		mov	r3, r4
 1316 0162 0BA8     		add	r0, sp, #44
 1317 0164 0A22     		movs	r2, #10
 1318 0166 C047     		blx	r8
 1319 0168 0C9B     		ldr	r3, [sp, #48]
 1320 016a 0195     		str	r5, [sp, #4]
 1321 016c 06AA     		add	r2, sp, #24
 1322 016e 0092     		str	r2, [sp]
 1323 0170 D3F80880 		ldr	r8, [r3, #8]
 1324 0174 0A99     		ldr	r1, [sp, #40]
 1325 0176 2346     		mov	r3, r4
 1326 0178 0BA8     		add	r0, sp, #44
 1327 017a 0A22     		movs	r2, #10
 1328 017c C047     		blx	r8
 1329 017e 0C9B     		ldr	r3, [sp, #48]
 1330 0180 0195     		str	r5, [sp, #4]
 1331 0182 07AA     		add	r2, sp, #28
 1332 0184 0092     		str	r2, [sp]
 1333 0186 D3F80880 		ldr	r8, [r3, #8]
 1334 018a 0A99     		ldr	r1, [sp, #40]
 1335 018c 2346     		mov	r3, r4
 1336 018e 0BA8     		add	r0, sp, #44
 1337 0190 0A22     		movs	r2, #10
 1338 0192 C047     		blx	r8
 1339 0194 0C9B     		ldr	r3, [sp, #48]
 1340 0196 0195     		str	r5, [sp, #4]
 1341 0198 08AA     		add	r2, sp, #32
 1342 019a 0092     		str	r2, [sp]
 1343 019c D3F80880 		ldr	r8, [r3, #8]
 1344 01a0 0A99     		ldr	r1, [sp, #40]
 1345 01a2 2346     		mov	r3, r4
 1346 01a4 0BA8     		add	r0, sp, #44
 1347 01a6 0A22     		movs	r2, #10
 1348 01a8 C047     		blx	r8
 1349 01aa 0C9B     		ldr	r3, [sp, #48]
ARM GAS  /tmp/ccdfSvOo.s 			page 25


 1350 01ac 0195     		str	r5, [sp, #4]
 1351 01ae 09AA     		add	r2, sp, #36
 1352 01b0 0092     		str	r2, [sp]
 1353 01b2 D3F80880 		ldr	r8, [r3, #8]
 1354 01b6 0A99     		ldr	r1, [sp, #40]
 1355 01b8 2346     		mov	r3, r4
 1356 01ba 0BA8     		add	r0, sp, #44
 1357 01bc 0A22     		movs	r2, #10
 1358 01be C047     		blx	r8
 1359 01c0 0C9B     		ldr	r3, [sp, #48]
 1360 01c2 3C4A     		ldr	r2, .L124+28
 1361 01c4 0092     		str	r2, [sp]
 1362 01c6 0195     		str	r5, [sp, #4]
 1363 01c8 D3F80880 		ldr	r8, [r3, #8]
 1364 01cc 0A99     		ldr	r1, [sp, #40]
 1365 01ce 2346     		mov	r3, r4
 1366 01d0 0BA8     		add	r0, sp, #44
 1367 01d2 0A22     		movs	r2, #10
 1368 01d4 C047     		blx	r8
 1369 01d6 0C9B     		ldr	r3, [sp, #48]
 1370 01d8 0197     		str	r7, [sp, #4]
 1371 01da 0DF10E02 		add	r2, sp, #14
 1372 01de 0092     		str	r2, [sp]
 1373 01e0 D3F80880 		ldr	r8, [r3, #8]
 1374 01e4 0A99     		ldr	r1, [sp, #40]
 1375 01e6 2346     		mov	r3, r4
 1376 01e8 0BA8     		add	r0, sp, #44
 1377 01ea 0222     		movs	r2, #2
 1378 01ec C047     		blx	r8
 1379 01ee CDE90067 		strd	r6, r7, [sp]
 1380 01f2 0C9B     		ldr	r3, [sp, #48]
 1381 01f4 0A99     		ldr	r1, [sp, #40]
 1382 01f6 D3F80880 		ldr	r8, [r3, #8]
 1383 01fa 0BA8     		add	r0, sp, #44
 1384 01fc 2346     		mov	r3, r4
 1385 01fe 0222     		movs	r2, #2
 1386 0200 C047     		blx	r8
 1387 0202 0C9B     		ldr	r3, [sp, #48]
 1388 0204 2C4A     		ldr	r2, .L124+32
 1389 0206 0197     		str	r7, [sp, #4]
 1390 0208 0092     		str	r2, [sp]
 1391 020a D3F80880 		ldr	r8, [r3, #8]
 1392 020e 0A99     		ldr	r1, [sp, #40]
 1393 0210 2346     		mov	r3, r4
 1394 0212 0BA8     		add	r0, sp, #44
 1395 0214 0222     		movs	r2, #2
 1396 0216 C047     		blx	r8
 1397 0218 0DF10F03 		add	r3, sp, #15
 1398 021c 0093     		str	r3, [sp]
 1399 021e 0C9B     		ldr	r3, [sp, #48]
 1400 0220 0197     		str	r7, [sp, #4]
 1401 0222 9F68     		ldr	r7, [r3, #8]
 1402 0224 0A99     		ldr	r1, [sp, #40]
 1403 0226 2346     		mov	r3, r4
 1404 0228 0BA8     		add	r0, sp, #44
 1405 022a 0222     		movs	r2, #2
 1406 022c B847     		blx	r7
ARM GAS  /tmp/ccdfSvOo.s 			page 26


 1407 022e 0236     		adds	r6, r6, #2
 1408 0230 0C98     		ldr	r0, [sp, #48]
 1409 0232 0096     		str	r6, [sp]
 1410 0234 2346     		mov	r3, r4
 1411 0236 0224     		movs	r4, #2
 1412 0238 0194     		str	r4, [sp, #4]
 1413 023a 0A99     		ldr	r1, [sp, #40]
 1414 023c 8468     		ldr	r4, [r0, #8]
 1415 023e 2A46     		mov	r2, r5
 1416 0240 0BA8     		add	r0, sp, #44
 1417 0242 A047     		blx	r4
 1418 0244 0C9B     		ldr	r3, [sp, #48]
 1419 0246 0A99     		ldr	r1, [sp, #40]
 1420 0248 5B69     		ldr	r3, [r3, #20]
 1421 024a 0BA8     		add	r0, sp, #44
 1422 024c 9847     		blx	r3
 1423 024e 0EB0     		add	sp, sp, #56
 1424              		@ sp needed
 1425 0250 BDE8F081 		pop	{r4, r5, r6, r7, r8, pc}
 1426              	.L116:
 1427 0254 9B69     		ldr	r3, [r3, #24]
 1428 0256 0BA8     		add	r0, sp, #44
 1429 0258 9847     		blx	r3
 1430 025a 0EB0     		add	sp, sp, #56
 1431              		@ sp needed
 1432 025c BDE8F081 		pop	{r4, r5, r6, r7, r8, pc}
 1433              	.L119:
 1434 0260 FFF7FEFF 		bl	stateCalcPositionLla_f
 1435 0264 D4F88C00 		ldr	r0, [r4, #140]	@ float
 1436 0268 FFF7FEFF 		bl	__aeabi_f2d
 1437 026c 0AA3     		adr	r3, .L124
 1438 026e D3E90023 		ldrd	r2, [r3]
 1439 0272 FFF7FEFF 		bl	__aeabi_dmul
 1440 0276 FFF7FEFF 		bl	__aeabi_d2f
 1441 027a 2788     		ldrh	r7, [r4]
 1442 027c 0490     		str	r0, [sp, #16]	@ float
 1443 027e FB05     		lsls	r3, r7, #23
 1444 0280 3FF5D4AE 		bmi	.L111
 1445 0284 FFF7FEFF 		bl	stateCalcPositionLla_f
 1446 0288 2788     		ldrh	r7, [r4]
 1447 028a CFE6     		b	.L111
 1448              	.L123:
 1449 028c FFF7FEFF 		bl	stateCalcSpeedEnu_f
 1450 0290 EFE6     		b	.L115
 1451              	.L125:
 1452 0292 00BFAFF3 		.align	3
 1452      0080
 1453              	.L124:
 1454 0298 F8C1631A 		.word	442745336
 1455 029c DCA54C40 		.word	1078765020
 1456 02a0 00000000 		.word	state
 1457 02a4 00000000 		.word	.LANCHOR1
 1458 02a8 ABAAAA2A 		.word	715827883
 1459 02ac 00000000 		.word	gps
 1460 02b0 00000000 		.word	.LC6
 1461 02b4 00000000 		.word	electrical
 1462 02b8 00000000 		.word	nav_block
ARM GAS  /tmp/ccdfSvOo.s 			page 27


 1463              	.L122:
 1464 02bc FFF7FEFF 		bl	stateCalcHorizontalSpeedDir_f
 1465 02c0 B4F81431 		ldrh	r3, [r4, #276]
 1466 02c4 CFE6     		b	.L114
 1467              	.L121:
 1468 02c6 FFF7FEFF 		bl	stateCalcHorizontalSpeedNorm_f
 1469 02ca B4F81431 		ldrh	r3, [r4, #276]
 1470 02ce C4E6     		b	.L113
 1471              	.L120:
 1472 02d0 FFF7FEFF 		bl	stateCalcPositionUtm_f
 1473 02d4 B9E6     		b	.L112
 1474              		.size	send_minimal_com, .-send_minimal_com
 1475 02d6 00BF     		.section	.text.autopilot_init,"ax",%progbits
 1476              		.align	1
 1477              		.p2align 4,,15
 1478              		.global	autopilot_init
 1479              		.syntax unified
 1480              		.thumb
 1481              		.thumb_func
 1482              		.fpu fpv4-sp-d16
 1483              		.type	autopilot_init, %function
 1484              	autopilot_init:
 1485              		@ args = 0, pretend = 0, frame = 0
 1486              		@ frame_needed = 0, uses_anonymous_args = 0
 1487 0000 08B5     		push	{r3, lr}
 1488 0002 1B4B     		ldr	r3, .L129
 1489 0004 0022     		movs	r2, #0
 1490 0006 0121     		movs	r1, #1
 1491 0008 1981     		strh	r1, [r3, #8]	@ movhi
 1492 000a 9A81     		strh	r2, [r3, #12]	@ movhi
 1493 000c 0D20     		movs	r0, #13
 1494 000e 5A80     		strh	r2, [r3, #2]	@ movhi
 1495 0010 9A80     		strh	r2, [r3, #4]	@ movhi
 1496 0012 DA71     		strb	r2, [r3, #7]
 1497 0014 D972     		strb	r1, [r3, #11]
 1498 0016 5870     		strb	r0, [r3, #1]
 1499 0018 FFF7FEFF 		bl	autopilot_firmware_init
 1500 001c FFF7FEFF 		bl	autopilot_static_init
 1501 0020 144A     		ldr	r2, .L129+4
 1502 0022 154B     		ldr	r3, .L129+8
 1503 0024 916F     		ldr	r1, [r2, #120]
 1504 0026 9942     		cmp	r1, r3
 1505 0028 07D0     		beq	.L127
 1506 002a 1448     		ldr	r0, .L129+12
 1507 002c 9367     		str	r3, [r2, #120]
 1508 002e C3E90101 		strd	r0, r1, [r3, #4]
 1509 0032 4FF0FF0C 		mov	ip, #255
 1510 0036 83F800C0 		strb	ip, [r3]
 1511              	.L127:
 1512 003a 114A     		ldr	r2, .L129+16
 1513 003c 1148     		ldr	r0, .L129+20
 1514 003e 0121     		movs	r1, #1
 1515 0040 FFF7FEFF 		bl	register_periodic_telemetry
 1516 0044 104A     		ldr	r2, .L129+24
 1517 0046 0F48     		ldr	r0, .L129+20
 1518 0048 0221     		movs	r1, #2
 1519 004a FFF7FEFF 		bl	register_periodic_telemetry
ARM GAS  /tmp/ccdfSvOo.s 			page 28


 1520 004e 0F4A     		ldr	r2, .L129+28
 1521 0050 0C48     		ldr	r0, .L129+20
 1522 0052 0621     		movs	r1, #6
 1523 0054 FFF7FEFF 		bl	register_periodic_telemetry
 1524 0058 0D4A     		ldr	r2, .L129+32
 1525 005a 0A48     		ldr	r0, .L129+20
 1526 005c 1F21     		movs	r1, #31
 1527 005e FFF7FEFF 		bl	register_periodic_telemetry
 1528 0062 BDE80840 		pop	{r3, lr}
 1529 0066 0B4A     		ldr	r2, .L129+36
 1530 0068 0648     		ldr	r0, .L129+20
 1531 006a 5D21     		movs	r1, #93
 1532 006c FFF7FEBF 		b	register_periodic_telemetry
 1533              	.L130:
 1534              		.align	2
 1535              	.L129:
 1536 0070 00000000 		.word	.LANCHOR1
 1537 0074 00000000 		.word	abi_queues
 1538 0078 00000000 		.word	.LANCHOR3
 1539 007c 00000000 		.word	rc_cb
 1540 0080 00000000 		.word	send_autopilot_version
 1541 0084 00000000 		.word	pprz_telemetry
 1542 0088 00000000 		.word	send_alive
 1543 008c 00000000 		.word	send_attitude
 1544 0090 00000000 		.word	send_dl_value
 1545 0094 00000000 		.word	send_minimal_com
 1546              		.size	autopilot_init, .-autopilot_init
 1547              		.section	.text.autopilot_event,"ax",%progbits
 1548              		.align	1
 1549              		.p2align 4,,15
 1550              		.weak	autopilot_event
 1551              		.syntax unified
 1552              		.thumb
 1553              		.thumb_func
 1554              		.fpu fpv4-sp-d16
 1555              		.type	autopilot_event, %function
 1556              	autopilot_event:
 1557              		@ args = 0, pretend = 0, frame = 0
 1558              		@ frame_needed = 0, uses_anonymous_args = 0
 1559              		@ link register save eliminated.
 1560 0000 7047     		bx	lr
 1561              		.size	autopilot_event, .-autopilot_event
 1562 0002 00BF     		.section	.text.autopilot_on_rc_frame,"ax",%progbits
 1563              		.align	1
 1564              		.p2align 4,,15
 1565              		.global	autopilot_on_rc_frame
 1566              		.syntax unified
 1567              		.thumb
 1568              		.thumb_func
 1569              		.fpu fpv4-sp-d16
 1570              		.type	autopilot_on_rc_frame, %function
 1571              	autopilot_on_rc_frame:
 1572              		@ args = 0, pretend = 0, frame = 0
 1573              		@ frame_needed = 0, uses_anonymous_args = 0
 1574              		@ link register save eliminated.
 1575 0000 FFF7FEBF 		b	autopilot_static_on_rc_frame
 1576              		.size	autopilot_on_rc_frame, .-autopilot_on_rc_frame
ARM GAS  /tmp/ccdfSvOo.s 			page 29


 1577              		.section	.text.autopilot_failsafe_checks,"ax",%progbits
 1578              		.align	1
 1579              		.p2align 4,,15
 1580              		.weak	autopilot_failsafe_checks
 1581              		.syntax unified
 1582              		.thumb
 1583              		.thumb_func
 1584              		.fpu fpv4-sp-d16
 1585              		.type	autopilot_failsafe_checks, %function
 1586              	autopilot_failsafe_checks:
 1587              		@ args = 0, pretend = 0, frame = 0
 1588              		@ frame_needed = 0, uses_anonymous_args = 0
 1589              		@ link register save eliminated.
 1590 0000 7047     		bx	lr
 1591              		.size	autopilot_failsafe_checks, .-autopilot_failsafe_checks
 1592 0002 00BF     		.section	.text.autopilot_set_mode,"ax",%progbits
 1593              		.align	1
 1594              		.p2align 4,,15
 1595              		.global	autopilot_set_mode
 1596              		.syntax unified
 1597              		.thumb
 1598              		.thumb_func
 1599              		.fpu fpv4-sp-d16
 1600              		.type	autopilot_set_mode, %function
 1601              	autopilot_set_mode:
 1602              		@ args = 0, pretend = 0, frame = 0
 1603              		@ frame_needed = 0, uses_anonymous_args = 0
 1604 0000 38B5     		push	{r3, r4, r5, lr}
 1605 0002 044C     		ldr	r4, .L136
 1606 0004 2578     		ldrb	r5, [r4]	@ zero_extendqisi2
 1607 0006 FFF7FEFF 		bl	autopilot_static_set_mode
 1608 000a 2078     		ldrb	r0, [r4]	@ zero_extendqisi2
 1609 000c 401B     		subs	r0, r0, r5
 1610 000e 18BF     		it	ne
 1611 0010 0120     		movne	r0, #1
 1612 0012 38BD     		pop	{r3, r4, r5, pc}
 1613              	.L137:
 1614              		.align	2
 1615              	.L136:
 1616 0014 00000000 		.word	.LANCHOR1
 1617              		.size	autopilot_set_mode, .-autopilot_set_mode
 1618              		.section	.text.autopilot_SetModeHandler,"ax",%progbits
 1619              		.align	1
 1620              		.p2align 4,,15
 1621              		.global	autopilot_SetModeHandler
 1622              		.syntax unified
 1623              		.thumb
 1624              		.thumb_func
 1625              		.fpu fpv4-sp-d16
 1626              		.type	autopilot_SetModeHandler, %function
 1627              	autopilot_SetModeHandler:
 1628              		@ args = 0, pretend = 0, frame = 0
 1629              		@ frame_needed = 0, uses_anonymous_args = 0
 1630              		@ link register save eliminated.
 1631 0000 FFF7FEBF 		b	autopilot_static_SetModeHandler
 1632              		.size	autopilot_SetModeHandler, .-autopilot_SetModeHandler
 1633              		.section	.text.autopilot_get_mode,"ax",%progbits
ARM GAS  /tmp/ccdfSvOo.s 			page 30


 1634              		.align	1
 1635              		.p2align 4,,15
 1636              		.global	autopilot_get_mode
 1637              		.syntax unified
 1638              		.thumb
 1639              		.thumb_func
 1640              		.fpu fpv4-sp-d16
 1641              		.type	autopilot_get_mode, %function
 1642              	autopilot_get_mode:
 1643              		@ args = 0, pretend = 0, frame = 0
 1644              		@ frame_needed = 0, uses_anonymous_args = 0
 1645              		@ link register save eliminated.
 1646 0000 014B     		ldr	r3, .L140
 1647 0002 1878     		ldrb	r0, [r3]	@ zero_extendqisi2
 1648 0004 7047     		bx	lr
 1649              	.L141:
 1650 0006 00BF     		.align	2
 1651              	.L140:
 1652 0008 00000000 		.word	.LANCHOR1
 1653              		.size	autopilot_get_mode, .-autopilot_get_mode
 1654              		.section	.text.autopilot_reset_flight_time,"ax",%progbits
 1655              		.align	1
 1656              		.p2align 4,,15
 1657              		.global	autopilot_reset_flight_time
 1658              		.syntax unified
 1659              		.thumb
 1660              		.thumb_func
 1661              		.fpu fpv4-sp-d16
 1662              		.type	autopilot_reset_flight_time, %function
 1663              	autopilot_reset_flight_time:
 1664              		@ args = 0, pretend = 0, frame = 0
 1665              		@ frame_needed = 0, uses_anonymous_args = 0
 1666              		@ link register save eliminated.
 1667 0000 024B     		ldr	r3, .L143
 1668 0002 0022     		movs	r2, #0
 1669 0004 5A80     		strh	r2, [r3, #2]	@ movhi
 1670 0006 9A72     		strb	r2, [r3, #10]
 1671 0008 7047     		bx	lr
 1672              	.L144:
 1673 000a 00BF     		.align	2
 1674              	.L143:
 1675 000c 00000000 		.word	.LANCHOR1
 1676              		.size	autopilot_reset_flight_time, .-autopilot_reset_flight_time
 1677              		.section	.text.autopilot_force_motors_on,"ax",%progbits
 1678              		.align	1
 1679              		.p2align 4,,15
 1680              		.global	autopilot_force_motors_on
 1681              		.syntax unified
 1682              		.thumb
 1683              		.thumb_func
 1684              		.fpu fpv4-sp-d16
 1685              		.type	autopilot_force_motors_on, %function
 1686              	autopilot_force_motors_on:
 1687              		@ args = 0, pretend = 0, frame = 0
 1688              		@ frame_needed = 0, uses_anonymous_args = 0
 1689 0000 08B5     		push	{r3, lr}
 1690 0002 FFF7FEFF 		bl	autopilot_static_set_motors_on
ARM GAS  /tmp/ccdfSvOo.s 			page 31


 1691 0006 034A     		ldr	r2, .L147
 1692 0008 D379     		ldrb	r3, [r2, #7]	@ zero_extendqisi2
 1693 000a 83F00103 		eor	r3, r3, #1
 1694 000e 1372     		strb	r3, [r2, #8]
 1695 0010 08BD     		pop	{r3, pc}
 1696              	.L148:
 1697 0012 00BF     		.align	2
 1698              	.L147:
 1699 0014 00000000 		.word	.LANCHOR1
 1700              		.size	autopilot_force_motors_on, .-autopilot_force_motors_on
 1701              		.section	.text.autopilot_set_motors_on,"ax",%progbits
 1702              		.align	1
 1703              		.p2align 4,,15
 1704              		.global	autopilot_set_motors_on
 1705              		.syntax unified
 1706              		.thumb
 1707              		.thumb_func
 1708              		.fpu fpv4-sp-d16
 1709              		.type	autopilot_set_motors_on, %function
 1710              	autopilot_set_motors_on:
 1711              		@ args = 0, pretend = 0, frame = 0
 1712              		@ frame_needed = 0, uses_anonymous_args = 0
 1713 0000 10B5     		push	{r4, lr}
 1714 0002 064C     		ldr	r4, .L152
 1715 0004 E379     		ldrb	r3, [r4, #7]	@ zero_extendqisi2
 1716 0006 8342     		cmp	r3, r0
 1717 0008 05D0     		beq	.L150
 1718 000a FFF7FEFF 		bl	autopilot_static_set_motors_on
 1719 000e E379     		ldrb	r3, [r4, #7]	@ zero_extendqisi2
 1720 0010 83F00103 		eor	r3, r3, #1
 1721 0014 2372     		strb	r3, [r4, #8]
 1722              	.L150:
 1723 0016 0120     		movs	r0, #1
 1724 0018 10BD     		pop	{r4, pc}
 1725              	.L153:
 1726 001a 00BF     		.align	2
 1727              	.L152:
 1728 001c 00000000 		.word	.LANCHOR1
 1729              		.size	autopilot_set_motors_on, .-autopilot_set_motors_on
 1730              		.section	.text.autopilot_arming_motors_on,"ax",%progbits
 1731              		.align	1
 1732              		.p2align 4,,15
 1733              		.global	autopilot_arming_motors_on
 1734              		.syntax unified
 1735              		.thumb
 1736              		.thumb_func
 1737              		.fpu fpv4-sp-d16
 1738              		.type	autopilot_arming_motors_on, %function
 1739              	autopilot_arming_motors_on:
 1740              		@ args = 0, pretend = 0, frame = 0
 1741              		@ frame_needed = 0, uses_anonymous_args = 0
 1742              		@ link register save eliminated.
 1743 0000 034B     		ldr	r3, .L156
 1744 0002 DA79     		ldrb	r2, [r3, #7]	@ zero_extendqisi2
 1745 0004 8242     		cmp	r2, r0
 1746 0006 18BF     		it	ne
 1747 0008 D871     		strbne	r0, [r3, #7]
ARM GAS  /tmp/ccdfSvOo.s 			page 32


 1748 000a 0120     		movs	r0, #1
 1749 000c 7047     		bx	lr
 1750              	.L157:
 1751 000e 00BF     		.align	2
 1752              	.L156:
 1753 0010 00000000 		.word	.LANCHOR1
 1754              		.size	autopilot_arming_motors_on, .-autopilot_arming_motors_on
 1755              		.section	.text.autopilot_get_motors_on,"ax",%progbits
 1756              		.align	1
 1757              		.p2align 4,,15
 1758              		.global	autopilot_get_motors_on
 1759              		.syntax unified
 1760              		.thumb
 1761              		.thumb_func
 1762              		.fpu fpv4-sp-d16
 1763              		.type	autopilot_get_motors_on, %function
 1764              	autopilot_get_motors_on:
 1765              		@ args = 0, pretend = 0, frame = 0
 1766              		@ frame_needed = 0, uses_anonymous_args = 0
 1767              		@ link register save eliminated.
 1768 0000 014B     		ldr	r3, .L159
 1769 0002 D879     		ldrb	r0, [r3, #7]	@ zero_extendqisi2
 1770 0004 7047     		bx	lr
 1771              	.L160:
 1772 0006 00BF     		.align	2
 1773              	.L159:
 1774 0008 00000000 		.word	.LANCHOR1
 1775              		.size	autopilot_get_motors_on, .-autopilot_get_motors_on
 1776              		.section	.text.autopilot_set_kill_throttle,"ax",%progbits
 1777              		.align	1
 1778              		.p2align 4,,15
 1779              		.global	autopilot_set_kill_throttle
 1780              		.syntax unified
 1781              		.thumb
 1782              		.thumb_func
 1783              		.fpu fpv4-sp-d16
 1784              		.type	autopilot_set_kill_throttle, %function
 1785              	autopilot_set_kill_throttle:
 1786              		@ args = 0, pretend = 0, frame = 0
 1787              		@ frame_needed = 0, uses_anonymous_args = 0
 1788 0000 10B5     		push	{r4, lr}
 1789 0002 0B4C     		ldr	r4, .L168
 1790 0004 E379     		ldrb	r3, [r4, #7]	@ zero_extendqisi2
 1791 0006 40B1     		cbz	r0, .L162
 1792 0008 33B1     		cbz	r3, .L161
 1793 000a 0020     		movs	r0, #0
 1794 000c FFF7FEFF 		bl	autopilot_static_set_motors_on
 1795 0010 E379     		ldrb	r3, [r4, #7]	@ zero_extendqisi2
 1796 0012 83F00103 		eor	r3, r3, #1
 1797 0016 2372     		strb	r3, [r4, #8]
 1798              	.L161:
 1799 0018 10BD     		pop	{r4, pc}
 1800              	.L162:
 1801 001a 002B     		cmp	r3, #0
 1802 001c FCD1     		bne	.L161
 1803 001e 0120     		movs	r0, #1
 1804 0020 FFF7FEFF 		bl	autopilot_static_set_motors_on
ARM GAS  /tmp/ccdfSvOo.s 			page 33


 1805 0024 E379     		ldrb	r3, [r4, #7]	@ zero_extendqisi2
 1806 0026 83F00103 		eor	r3, r3, #1
 1807 002a 2372     		strb	r3, [r4, #8]
 1808 002c 10BD     		pop	{r4, pc}
 1809              	.L169:
 1810 002e 00BF     		.align	2
 1811              	.L168:
 1812 0030 00000000 		.word	.LANCHOR1
 1813              		.size	autopilot_set_kill_throttle, .-autopilot_set_kill_throttle
 1814              		.section	.text.autopilot_throttle_killed,"ax",%progbits
 1815              		.align	1
 1816              		.p2align 4,,15
 1817              		.global	autopilot_throttle_killed
 1818              		.syntax unified
 1819              		.thumb
 1820              		.thumb_func
 1821              		.fpu fpv4-sp-d16
 1822              		.type	autopilot_throttle_killed, %function
 1823              	autopilot_throttle_killed:
 1824              		@ args = 0, pretend = 0, frame = 0
 1825              		@ frame_needed = 0, uses_anonymous_args = 0
 1826              		@ link register save eliminated.
 1827 0000 014B     		ldr	r3, .L171
 1828 0002 187A     		ldrb	r0, [r3, #8]	@ zero_extendqisi2
 1829 0004 7047     		bx	lr
 1830              	.L172:
 1831 0006 00BF     		.align	2
 1832              	.L171:
 1833 0008 00000000 		.word	.LANCHOR1
 1834              		.size	autopilot_throttle_killed, .-autopilot_throttle_killed
 1835              		.section	.text.autopilot_check_in_flight,"ax",%progbits
 1836              		.align	1
 1837              		.p2align 4,,15
 1838              		.weak	autopilot_check_in_flight
 1839              		.syntax unified
 1840              		.thumb
 1841              		.thumb_func
 1842              		.fpu fpv4-sp-d16
 1843              		.type	autopilot_check_in_flight, %function
 1844              	autopilot_check_in_flight:
 1845              		@ args = 0, pretend = 0, frame = 0
 1846              		@ frame_needed = 0, uses_anonymous_args = 0
 1847              		@ link register save eliminated.
 1848 0000 7047     		bx	lr
 1849              		.size	autopilot_check_in_flight, .-autopilot_check_in_flight
 1850 0002 00BF     		.section	.text.autopilot_periodic,"ax",%progbits
 1851              		.align	1
 1852              		.p2align 4,,15
 1853              		.global	autopilot_periodic
 1854              		.syntax unified
 1855              		.thumb
 1856              		.thumb_func
 1857              		.fpu fpv4-sp-d16
 1858              		.type	autopilot_periodic, %function
 1859              	autopilot_periodic:
 1860              		@ args = 0, pretend = 0, frame = 0
 1861              		@ frame_needed = 0, uses_anonymous_args = 0
ARM GAS  /tmp/ccdfSvOo.s 			page 34


 1862 0000 10B5     		push	{r4, lr}
 1863 0002 0E4C     		ldr	r4, .L181
 1864 0004 FFF7FEFF 		bl	autopilot_failsafe_checks
 1865 0008 E079     		ldrb	r0, [r4, #7]	@ zero_extendqisi2
 1866 000a FFF7FEFF 		bl	autopilot_check_in_flight
 1867 000e 637A     		ldrb	r3, [r4, #9]	@ zero_extendqisi2
 1868 0010 5BB1     		cbz	r3, .L176
 1869 0012 0B4A     		ldr	r2, .L181+4
 1870 0014 1388     		ldrh	r3, [r2]
 1871 0016 0133     		adds	r3, r3, #1
 1872 0018 9BB2     		uxth	r3, r3
 1873 001a B3F57A7F 		cmp	r3, #1000
 1874 001e 08D3     		bcc	.L180
 1875 0020 6388     		ldrh	r3, [r4, #2]
 1876 0022 0021     		movs	r1, #0
 1877 0024 0133     		adds	r3, r3, #1
 1878 0026 1180     		strh	r1, [r2]	@ movhi
 1879 0028 6380     		strh	r3, [r4, #2]	@ movhi
 1880              	.L176:
 1881 002a BDE81040 		pop	{r4, lr}
 1882 002e FFF7FEBF 		b	autopilot_static_periodic
 1883              	.L180:
 1884 0032 BDE81040 		pop	{r4, lr}
 1885 0036 1380     		strh	r3, [r2]	@ movhi
 1886 0038 FFF7FEBF 		b	autopilot_static_periodic
 1887              	.L182:
 1888              		.align	2
 1889              	.L181:
 1890 003c 00000000 		.word	.LANCHOR1
 1891 0040 00000000 		.word	.LANCHOR4
 1892              		.size	autopilot_periodic, .-autopilot_periodic
 1893              		.section	.text.autopilot_reset_in_flight_counter,"ax",%progbits
 1894              		.align	1
 1895              		.p2align 4,,15
 1896              		.weak	autopilot_reset_in_flight_counter
 1897              		.syntax unified
 1898              		.thumb
 1899              		.thumb_func
 1900              		.fpu fpv4-sp-d16
 1901              		.type	autopilot_reset_in_flight_counter, %function
 1902              	autopilot_reset_in_flight_counter:
 1903              		@ args = 0, pretend = 0, frame = 0
 1904              		@ frame_needed = 0, uses_anonymous_args = 0
 1905              		@ link register save eliminated.
 1906 0000 7047     		bx	lr
 1907              		.size	autopilot_reset_in_flight_counter, .-autopilot_reset_in_flight_counter
 1908 0002 00BF     		.section	.text.autopilot_set_in_flight,"ax",%progbits
 1909              		.align	1
 1910              		.p2align 4,,15
 1911              		.global	autopilot_set_in_flight
 1912              		.syntax unified
 1913              		.thumb
 1914              		.thumb_func
 1915              		.fpu fpv4-sp-d16
 1916              		.type	autopilot_set_in_flight, %function
 1917              	autopilot_set_in_flight:
 1918              		@ args = 0, pretend = 0, frame = 0
ARM GAS  /tmp/ccdfSvOo.s 			page 35


 1919              		@ frame_needed = 0, uses_anonymous_args = 0
 1920 0000 08B5     		push	{r3, lr}
 1921 0002 034B     		ldr	r3, .L188
 1922 0004 5872     		strb	r0, [r3, #9]
 1923 0006 00B1     		cbz	r0, .L187
 1924 0008 08BD     		pop	{r3, pc}
 1925              	.L187:
 1926 000a FFF7FEFF 		bl	autopilot_reset_in_flight_counter
 1927 000e 08BD     		pop	{r3, pc}
 1928              	.L189:
 1929              		.align	2
 1930              	.L188:
 1931 0010 00000000 		.word	.LANCHOR1
 1932              		.size	autopilot_set_in_flight, .-autopilot_set_in_flight
 1933              		.section	.text.autopilot_in_flight,"ax",%progbits
 1934              		.align	1
 1935              		.p2align 4,,15
 1936              		.global	autopilot_in_flight
 1937              		.syntax unified
 1938              		.thumb
 1939              		.thumb_func
 1940              		.fpu fpv4-sp-d16
 1941              		.type	autopilot_in_flight, %function
 1942              	autopilot_in_flight:
 1943              		@ args = 0, pretend = 0, frame = 0
 1944              		@ frame_needed = 0, uses_anonymous_args = 0
 1945              		@ link register save eliminated.
 1946 0000 014B     		ldr	r3, .L191
 1947 0002 587A     		ldrb	r0, [r3, #9]	@ zero_extendqisi2
 1948 0004 7047     		bx	lr
 1949              	.L192:
 1950 0006 00BF     		.align	2
 1951              	.L191:
 1952 0008 00000000 		.word	.LANCHOR1
 1953              		.size	autopilot_in_flight, .-autopilot_in_flight
 1954              		.section	.text.autopilot_store_settings,"ax",%progbits
 1955              		.align	1
 1956              		.p2align 4,,15
 1957              		.global	autopilot_store_settings
 1958              		.syntax unified
 1959              		.thumb
 1960              		.thumb_func
 1961              		.fpu fpv4-sp-d16
 1962              		.type	autopilot_store_settings, %function
 1963              	autopilot_store_settings:
 1964              		@ args = 0, pretend = 0, frame = 0
 1965              		@ frame_needed = 0, uses_anonymous_args = 0
 1966              		@ link register save eliminated.
 1967 0000 044B     		ldr	r3, .L196
 1968 0002 1B7A     		ldrb	r3, [r3, #8]	@ zero_extendqisi2
 1969 0004 03B9     		cbnz	r3, .L195
 1970 0006 7047     		bx	lr
 1971              	.L195:
 1972 0008 034B     		ldr	r3, .L196+4
 1973 000a 0122     		movs	r2, #1
 1974 000c 1A70     		strb	r2, [r3]
 1975 000e FFF7FEBF 		b	settings_store
ARM GAS  /tmp/ccdfSvOo.s 			page 36


 1976              	.L197:
 1977 0012 00BF     		.align	2
 1978              	.L196:
 1979 0014 00000000 		.word	.LANCHOR1
 1980 0018 00000000 		.word	settings_store_flag
 1981              		.size	autopilot_store_settings, .-autopilot_store_settings
 1982              		.section	.text.autopilot_clear_settings,"ax",%progbits
 1983              		.align	1
 1984              		.p2align 4,,15
 1985              		.global	autopilot_clear_settings
 1986              		.syntax unified
 1987              		.thumb
 1988              		.thumb_func
 1989              		.fpu fpv4-sp-d16
 1990              		.type	autopilot_clear_settings, %function
 1991              	autopilot_clear_settings:
 1992              		@ args = 0, pretend = 0, frame = 0
 1993              		@ frame_needed = 0, uses_anonymous_args = 0
 1994              		@ link register save eliminated.
 1995 0000 044B     		ldr	r3, .L201
 1996 0002 1B7A     		ldrb	r3, [r3, #8]	@ zero_extendqisi2
 1997 0004 03B9     		cbnz	r3, .L200
 1998 0006 7047     		bx	lr
 1999              	.L200:
 2000 0008 034B     		ldr	r3, .L201+4
 2001 000a 0122     		movs	r2, #1
 2002 000c 1A70     		strb	r2, [r3]
 2003 000e FFF7FEBF 		b	settings_clear
 2004              	.L202:
 2005 0012 00BF     		.align	2
 2006              	.L201:
 2007 0014 00000000 		.word	.LANCHOR1
 2008 0018 00000000 		.word	settings_clear_flag
 2009              		.size	autopilot_clear_settings, .-autopilot_clear_settings
 2010              		.section	.text.autopilot_send_version,"ax",%progbits
 2011              		.align	1
 2012              		.p2align 4,,15
 2013              		.global	autopilot_send_version
 2014              		.syntax unified
 2015              		.thumb
 2016              		.thumb_func
 2017              		.fpu fpv4-sp-d16
 2018              		.type	autopilot_send_version, %function
 2019              	autopilot_send_version:
 2020              		@ args = 0, pretend = 0, frame = 16
 2021              		@ frame_needed = 0, uses_anonymous_args = 0
 2022 0000 00B5     		push	{lr}
 2023 0002 0A48     		ldr	r0, .L205
 2024 0004 0A49     		ldr	r1, .L205+4
 2025 0006 0B4A     		ldr	r2, .L205+8
 2026 0008 85B0     		sub	sp, sp, #20
 2027 000a CDE90201 		strd	r0, r1, [sp, #8]
 2028 000e 4FF01F0C 		mov	ip, #31
 2029 0012 0023     		movs	r3, #0
 2030 0014 2221     		movs	r1, #34
 2031 0016 01A8     		add	r0, sp, #4
 2032 0018 ADF804C0 		strh	ip, [sp, #4]	@ movhi
ARM GAS  /tmp/ccdfSvOo.s 			page 37


 2033 001c 8DF80630 		strb	r3, [sp, #6]
 2034 0020 FFF7FEFF 		bl	pprzlink_msg_v2_send_AUTOPILOT_VERSION.constprop.0
 2035 0024 05B0     		add	sp, sp, #20
 2036              		@ sp needed
 2037 0026 5DF804FB 		ldr	pc, [sp], #4
 2038              	.L206:
 2039 002a 00BF     		.align	2
 2040              	.L205:
 2041 002c 08010000 		.word	pprz_tp+264
 2042 0030 40030000 		.word	syslink+832
 2043 0034 00000000 		.word	.LC4
 2044              		.size	autopilot_send_version, .-autopilot_send_version
 2045              		.section	.text.autopilot_send_mode,"ax",%progbits
 2046              		.align	1
 2047              		.p2align 4,,15
 2048              		.weak	autopilot_send_mode
 2049              		.syntax unified
 2050              		.thumb
 2051              		.thumb_func
 2052              		.fpu fpv4-sp-d16
 2053              		.type	autopilot_send_mode, %function
 2054              	autopilot_send_mode:
 2055              		@ args = 0, pretend = 0, frame = 0
 2056              		@ frame_needed = 0, uses_anonymous_args = 0
 2057              		@ link register save eliminated.
 2058 0000 7047     		bx	lr
 2059              		.size	autopilot_send_mode, .-autopilot_send_mode
 2060              		.global	autopilot
 2061 0002 00BF     		.section	.bss.autopilot,"aw",%nobits
 2062              		.align	2
 2063              		.set	.LANCHOR1,. + 0
 2064              		.type	autopilot, %object
 2065              		.size	autopilot, 14
 2066              	autopilot:
 2067 0000 00000000 		.space	14
 2067      00000000 
 2067      00000000 
 2067      0000
 2068              		.section	.bss.i.3,"aw",%nobits
 2069              		.set	.LANCHOR0,. + 0
 2070              		.type	i.3, %object
 2071              		.size	i.3, 1
 2072              	i.3:
 2073 0000 00       		.space	1
 2074              		.section	.bss.prescaler.0,"aw",%nobits
 2075              		.align	1
 2076              		.set	.LANCHOR4,. + 0
 2077              		.type	prescaler.0, %object
 2078              		.size	prescaler.0, 2
 2079              	prescaler.0:
 2080 0000 0000     		.space	2
 2081              		.section	.bss.rc_ev,"aw",%nobits
 2082              		.align	2
 2083              		.set	.LANCHOR3,. + 0
 2084              		.type	rc_ev, %object
 2085              		.size	rc_ev, 12
 2086              	rc_ev:
ARM GAS  /tmp/ccdfSvOo.s 			page 38


 2087 0000 00000000 		.space	12
 2087      00000000 
 2087      00000000 
 2088              		.section	.data.ap_version.1,"aw"
 2089              		.align	2
 2090              		.set	.LANCHOR2,. + 0
 2091              		.type	ap_version.1, %object
 2092              		.size	ap_version.1, 4
 2093              	ap_version.1:
 2094 0000 70110100 		.word	70000
 2095              		.ident	"GCC: (15:10.3-2021.07-4) 10.3.1 20210621 (release)"
ARM GAS  /tmp/ccdfSvOo.s 			page 39

