ARM GAS  /tmp/ccdTv4fa.s 			page 1


   1              		.cpu cortex-m4
   2              		.eabi_attribute 27, 1
   3              		.eabi_attribute 20, 1
   4              		.eabi_attribute 21, 1
   5              		.eabi_attribute 23, 3
   6              		.eabi_attribute 24, 1
   7              		.eabi_attribute 25, 1
   8              		.eabi_attribute 26, 1
   9              		.eabi_attribute 30, 2
  10              		.eabi_attribute 34, 1
  11              		.eabi_attribute 18, 4
  12              		.file	"baro_bmp3.c"
  13              		.text
  14              		.section	.text.baro_bmp3_init,"ax",%progbits
  15              		.align	1
  16              		.p2align 4,,15
  17              		.global	baro_bmp3_init
  18              		.arch armv7e-m
  19              		.syntax unified
  20              		.thumb
  21              		.thumb_func
  22              		.fpu fpv4-sp-d16
  23              		.type	baro_bmp3_init, %function
  24              	baro_bmp3_init:
  25              		@ args = 0, pretend = 0, frame = 0
  26              		@ frame_needed = 0, uses_anonymous_args = 0
  27              		@ link register save eliminated.
  28 0000 0249     		ldr	r1, .L3
  29 0002 0348     		ldr	r0, .L3+4
  30 0004 EE22     		movs	r2, #238
  31 0006 FFF7FEBF 		b	bmp3_i2c_init
  32              	.L4:
  33 000a 00BF     		.align	2
  34              	.L3:
  35 000c 00000000 		.word	i2c3
  36 0010 00000000 		.word	.LANCHOR0
  37              		.size	baro_bmp3_init, .-baro_bmp3_init
  38              		.section	.text.baro_bmp3_periodic,"ax",%progbits
  39              		.align	1
  40              		.p2align 4,,15
  41              		.global	baro_bmp3_periodic
  42              		.syntax unified
  43              		.thumb
  44              		.thumb_func
  45              		.fpu fpv4-sp-d16
  46              		.type	baro_bmp3_periodic, %function
  47              	baro_bmp3_periodic:
  48              		@ args = 0, pretend = 0, frame = 0
  49              		@ frame_needed = 0, uses_anonymous_args = 0
  50              		@ link register save eliminated.
  51 0000 0148     		ldr	r0, .L6
  52 0002 FFF7FEBF 		b	bmp3_i2c_periodic
  53              	.L7:
  54 0006 00BF     		.align	2
  55              	.L6:
  56 0008 00000000 		.word	.LANCHOR0
  57              		.size	baro_bmp3_periodic, .-baro_bmp3_periodic
ARM GAS  /tmp/ccdTv4fa.s 			page 2


  58              		.section	.text.baro_bmp3_event,"ax",%progbits
  59              		.align	1
  60              		.p2align 4,,15
  61              		.global	baro_bmp3_event
  62              		.syntax unified
  63              		.thumb
  64              		.thumb_func
  65              		.fpu fpv4-sp-d16
  66              		.type	baro_bmp3_event, %function
  67              	baro_bmp3_event:
  68              		@ args = 0, pretend = 0, frame = 0
  69              		@ frame_needed = 0, uses_anonymous_args = 0
  70 0000 2DE9F041 		push	{r4, r5, r6, r7, r8, lr}
  71 0004 1E4D     		ldr	r5, .L39
  72 0006 2846     		mov	r0, r5
  73 0008 FFF7FEFF 		bl	bmp3_i2c_event
  74 000c 95F82C30 		ldrb	r3, [r5, #44]	@ zero_extendqisi2
  75 0010 0BB9     		cbnz	r3, .L36
  76 0012 BDE8F081 		pop	{r4, r5, r6, r7, r8, pc}
  77              	.L36:
  78 0016 DFF86C80 		ldr	r8, .L39+4
  79 001a FFF7FEFF 		bl	get_sys_time_usec
  80 001e D8F80040 		ldr	r4, [r8]
  81 0022 D5F89470 		ldr	r7, [r5, #148]	@ float
  82 0026 0646     		mov	r6, r0
  83 0028 24B9     		cbnz	r4, .L13
  84 002a 0FE0     		b	.L10
  85              	.L37:
  86 002c 8342     		cmp	r3, r0
  87 002e 08D0     		beq	.L11
  88 0030 A468     		ldr	r4, [r4, #8]
  89 0032 5CB1     		cbz	r4, .L10
  90              	.L13:
  91 0034 2378     		ldrb	r3, [r4]	@ zero_extendqisi2
  92 0036 FF2B     		cmp	r3, #255
  93 0038 3A46     		mov	r2, r7	@ float
  94 003a 3146     		mov	r1, r6
  95 003c 4FF01400 		mov	r0, #20
  96 0040 F4D1     		bne	.L37
  97              	.L11:
  98 0042 6368     		ldr	r3, [r4, #4]
  99 0044 9847     		blx	r3
 100 0046 A468     		ldr	r4, [r4, #8]
 101 0048 002C     		cmp	r4, #0
 102 004a F3D1     		bne	.L13
 103              	.L10:
 104 004c D8F80C40 		ldr	r4, [r8, #12]
 105 0050 D5F89860 		ldr	r6, [r5, #152]	@ float
 106 0054 24B9     		cbnz	r4, .L17
 107 0056 0EE0     		b	.L14
 108              	.L38:
 109 0058 8342     		cmp	r3, r0
 110 005a 07D0     		beq	.L15
 111 005c A468     		ldr	r4, [r4, #8]
 112 005e 54B1     		cbz	r4, .L14
 113              	.L17:
 114 0060 2378     		ldrb	r3, [r4]	@ zero_extendqisi2
ARM GAS  /tmp/ccdTv4fa.s 			page 3


 115 0062 FF2B     		cmp	r3, #255
 116 0064 3146     		mov	r1, r6	@ float
 117 0066 4FF01400 		mov	r0, #20
 118 006a F5D1     		bne	.L38
 119              	.L15:
 120 006c 6368     		ldr	r3, [r4, #4]
 121 006e 9847     		blx	r3
 122 0070 A468     		ldr	r4, [r4, #8]
 123 0072 002C     		cmp	r4, #0
 124 0074 F4D1     		bne	.L17
 125              	.L14:
 126 0076 0023     		movs	r3, #0
 127 0078 85F82C30 		strb	r3, [r5, #44]
 128 007c BDE8F081 		pop	{r4, r5, r6, r7, r8, pc}
 129              	.L40:
 130              		.align	2
 131              	.L39:
 132 0080 00000000 		.word	.LANCHOR0
 133 0084 00000000 		.word	abi_queues
 134              		.size	baro_bmp3_event, .-baro_bmp3_event
 135              		.global	baro_bmp3
 136              		.section	.bss.baro_bmp3,"aw",%nobits
 137              		.align	3
 138              		.set	.LANCHOR0,. + 0
 139              		.type	baro_bmp3, %object
 140              		.size	baro_bmp3, 160
 141              	baro_bmp3:
 142 0000 00000000 		.space	160
 142      00000000 
 142      00000000 
 142      00000000 
 142      00000000 
 143              		.ident	"GCC: (15:10.3-2021.07-4) 10.3.1 20210621 (release)"
ARM GAS  /tmp/ccdTv4fa.s 			page 4

