ARM GAS  /tmp/ccGErc7P.s 			page 1


   1              		.cpu cortex-m4
   2              		.eabi_attribute 27, 1
   3              		.eabi_attribute 20, 1
   4              		.eabi_attribute 21, 1
   5              		.eabi_attribute 23, 3
   6              		.eabi_attribute 24, 1
   7              		.eabi_attribute 25, 1
   8              		.eabi_attribute 26, 1
   9              		.eabi_attribute 30, 2
  10              		.eabi_attribute 34, 1
  11              		.eabi_attribute 18, 4
  12              		.file	"bmi088.c"
  13              		.text
  14              		.section	.text.bmi088_set_default_config,"ax",%progbits
  15              		.align	1
  16              		.p2align 4,,15
  17              		.global	bmi088_set_default_config
  18              		.arch armv7e-m
  19              		.syntax unified
  20              		.thumb
  21              		.thumb_func
  22              		.fpu fpv4-sp-d16
  23              		.type	bmi088_set_default_config, %function
  24              	bmi088_set_default_config:
  25              		@ args = 0, pretend = 0, frame = 0
  26              		@ frame_needed = 0, uses_anonymous_args = 0
  27              		@ link register save eliminated.
  28 0000 024A     		ldr	r2, .L3
  29 0002 0260     		str	r2, [r0]
  30 0004 0823     		movs	r3, #8
  31 0006 0371     		strb	r3, [r0, #4]
  32 0008 7047     		bx	lr
  33              	.L4:
  34 000a 00BF     		.align	2
  35              	.L3:
  36 000c 0102020C 		.word	201458177
  37              		.size	bmi088_set_default_config, .-bmi088_set_default_config
  38              		.section	.text.bmi088_send_config,"ax",%progbits
  39              		.align	1
  40              		.p2align 4,,15
  41              		.global	bmi088_send_config
  42              		.syntax unified
  43              		.thumb
  44              		.thumb_func
  45              		.fpu fpv4-sp-d16
  46              		.type	bmi088_send_config, %function
  47              	bmi088_send_config:
  48              		@ args = 0, pretend = 0, frame = 0
  49              		@ frame_needed = 0, uses_anonymous_args = 0
  50 0000 38B5     		push	{r3, r4, r5, lr}
  51 0002 5379     		ldrb	r3, [r2, #5]	@ zero_extendqisi2
  52 0004 013B     		subs	r3, r3, #1
  53 0006 0546     		mov	r5, r0
  54 0008 1446     		mov	r4, r2
  55 000a 0846     		mov	r0, r1
  56 000c 072B     		cmp	r3, #7
  57 000e 09D8     		bhi	.L5
ARM GAS  /tmp/ccGErc7P.s 			page 2


  58 0010 DFE803F0 		tbb	[pc, r3]
  59              	.L8:
  60 0014 12       		.byte	(.L15-.L8)/2
  61 0015 1A       		.byte	(.L14-.L8)/2
  62 0016 26       		.byte	(.L13-.L8)/2
  63 0017 2E       		.byte	(.L12-.L8)/2
  64 0018 36       		.byte	(.L11-.L8)/2
  65 0019 3E       		.byte	(.L10-.L8)/2
  66 001a 46       		.byte	(.L9-.L8)/2
  67 001b 09       		.byte	(.L7-.L8)/2
  68              		.p2align 1
  69              	.L32:
  70 001c 424B     		ldr	r3, .L34
  71 001e E360     		str	r3, [r4, #12]	@ float
  72              	.L23:
  73 0020 0123     		movs	r3, #1
  74 0022 A371     		strb	r3, [r4, #6]
  75              	.L5:
  76 0024 38BD     		pop	{r3, r4, r5, pc}
  77              	.L7:
  78 0026 6378     		ldrb	r3, [r4, #1]	@ zero_extendqisi2
  79 0028 072B     		cmp	r3, #7
  80 002a 43D8     		bhi	.L16
  81 002c DFE803F0 		tbb	[pc, r3]
  82              	.L18:
  83 0030 5D       		.byte	(.L22-.L18)/2
  84 0031 5D       		.byte	(.L22-.L18)/2
  85 0032 63       		.byte	(.L21-.L18)/2
  86 0033 60       		.byte	(.L20-.L18)/2
  87 0034 5A       		.byte	(.L19-.L18)/2
  88 0035 40       		.byte	(.L17-.L18)/2
  89 0036 5A       		.byte	(.L19-.L18)/2
  90 0037 40       		.byte	(.L17-.L18)/2
  91              		.p2align 1
  92              	.L15:
  93 0038 0023     		movs	r3, #0
  94 003a A278     		ldrb	r2, [r4, #2]	@ zero_extendqisi2
  95 003c 4121     		movs	r1, #65
  96 003e A847     		blx	r5
  97 0040 6379     		ldrb	r3, [r4, #5]	@ zero_extendqisi2
  98 0042 0133     		adds	r3, r3, #1
  99 0044 6371     		strb	r3, [r4, #5]
 100 0046 38BD     		pop	{r3, r4, r5, pc}
 101              	.L14:
 102 0048 2379     		ldrb	r3, [r4, #4]	@ zero_extendqisi2
 103 004a E278     		ldrb	r2, [r4, #3]	@ zero_extendqisi2
 104 004c 42EA0312 		orr	r2, r2, r3, lsl #4
 105 0050 D2B2     		uxtb	r2, r2
 106 0052 0023     		movs	r3, #0
 107 0054 4021     		movs	r1, #64
 108 0056 A847     		blx	r5
 109 0058 6379     		ldrb	r3, [r4, #5]	@ zero_extendqisi2
 110 005a 0133     		adds	r3, r3, #1
 111 005c 6371     		strb	r3, [r4, #5]
 112 005e 38BD     		pop	{r3, r4, r5, pc}
 113              	.L13:
 114 0060 0023     		movs	r3, #0
ARM GAS  /tmp/ccGErc7P.s 			page 3


 115 0062 1A46     		mov	r2, r3
 116 0064 7C21     		movs	r1, #124
 117 0066 A847     		blx	r5
 118 0068 6379     		ldrb	r3, [r4, #5]	@ zero_extendqisi2
 119 006a 0133     		adds	r3, r3, #1
 120 006c 6371     		strb	r3, [r4, #5]
 121 006e 38BD     		pop	{r3, r4, r5, pc}
 122              	.L12:
 123 0070 0023     		movs	r3, #0
 124 0072 0422     		movs	r2, #4
 125 0074 7D21     		movs	r1, #125
 126 0076 A847     		blx	r5
 127 0078 6379     		ldrb	r3, [r4, #5]	@ zero_extendqisi2
 128 007a 0133     		adds	r3, r3, #1
 129 007c 6371     		strb	r3, [r4, #5]
 130 007e 38BD     		pop	{r3, r4, r5, pc}
 131              	.L11:
 132 0080 0123     		movs	r3, #1
 133 0082 2278     		ldrb	r2, [r4]	@ zero_extendqisi2
 134 0084 0F21     		movs	r1, #15
 135 0086 A847     		blx	r5
 136 0088 6379     		ldrb	r3, [r4, #5]	@ zero_extendqisi2
 137 008a 0133     		adds	r3, r3, #1
 138 008c 6371     		strb	r3, [r4, #5]
 139 008e 38BD     		pop	{r3, r4, r5, pc}
 140              	.L10:
 141 0090 0123     		movs	r3, #1
 142 0092 6278     		ldrb	r2, [r4, #1]	@ zero_extendqisi2
 143 0094 1021     		movs	r1, #16
 144 0096 A847     		blx	r5
 145 0098 6379     		ldrb	r3, [r4, #5]	@ zero_extendqisi2
 146 009a 0133     		adds	r3, r3, #1
 147 009c 6371     		strb	r3, [r4, #5]
 148 009e 38BD     		pop	{r3, r4, r5, pc}
 149              	.L9:
 150 00a0 0123     		movs	r3, #1
 151 00a2 0022     		movs	r2, #0
 152 00a4 1121     		movs	r1, #17
 153 00a6 A847     		blx	r5
 154 00a8 6379     		ldrb	r3, [r4, #5]	@ zero_extendqisi2
 155 00aa 0133     		adds	r3, r3, #1
 156 00ac 6371     		strb	r3, [r4, #5]
 157 00ae 38BD     		pop	{r3, r4, r5, pc}
 158              	.L17:
 159 00b0 1E4B     		ldr	r3, .L34+4
 160 00b2 A360     		str	r3, [r4, #8]	@ float
 161              	.L16:
 162 00b4 E378     		ldrb	r3, [r4, #3]	@ zero_extendqisi2
 163 00b6 053B     		subs	r3, r3, #5
 164 00b8 072B     		cmp	r3, #7
 165 00ba B1D8     		bhi	.L23
 166 00bc 01A2     		adr	r2, .L25
 167 00be 52F823F0 		ldr	pc, [r2, r3, lsl #2]
 168 00c2 00BF     		.p2align 2
 169              	.L25:
 170 00c4 1D000000 		.word	.L32+1
 171 00c8 21010000 		.word	.L31+1
ARM GAS  /tmp/ccGErc7P.s 			page 4


 172 00cc 1B010000 		.word	.L30+1
 173 00d0 15010000 		.word	.L29+1
 174 00d4 0F010000 		.word	.L28+1
 175 00d8 09010000 		.word	.L27+1
 176 00dc 03010000 		.word	.L26+1
 177 00e0 FD000000 		.word	.L24+1
 178              		.p2align 1
 179              	.L19:
 180 00e4 124B     		ldr	r3, .L34+8
 181 00e6 A360     		str	r3, [r4, #8]	@ float
 182 00e8 E4E7     		b	.L16
 183              	.L22:
 184 00ea 124B     		ldr	r3, .L34+12
 185 00ec A360     		str	r3, [r4, #8]	@ float
 186 00ee E1E7     		b	.L16
 187              	.L20:
 188 00f0 114B     		ldr	r3, .L34+16
 189 00f2 A360     		str	r3, [r4, #8]	@ float
 190 00f4 DEE7     		b	.L16
 191              	.L21:
 192 00f6 114B     		ldr	r3, .L34+20
 193 00f8 A360     		str	r3, [r4, #8]	@ float
 194 00fa DBE7     		b	.L16
 195              	.L24:
 196 00fc 104B     		ldr	r3, .L34+24
 197 00fe E360     		str	r3, [r4, #12]	@ float
 198 0100 8EE7     		b	.L23
 199              	.L26:
 200 0102 104B     		ldr	r3, .L34+28
 201 0104 E360     		str	r3, [r4, #12]	@ float
 202 0106 8BE7     		b	.L23
 203              	.L27:
 204 0108 0B4B     		ldr	r3, .L34+16
 205 010a E360     		str	r3, [r4, #12]	@ float
 206 010c 88E7     		b	.L23
 207              	.L28:
 208 010e 084B     		ldr	r3, .L34+8
 209 0110 E360     		str	r3, [r4, #12]	@ float
 210 0112 85E7     		b	.L23
 211              	.L29:
 212 0114 054B     		ldr	r3, .L34+4
 213 0116 E360     		str	r3, [r4, #12]	@ float
 214 0118 82E7     		b	.L23
 215              	.L30:
 216 011a 0B4B     		ldr	r3, .L34+32
 217 011c E360     		str	r3, [r4, #12]	@ float
 218 011e 7FE7     		b	.L23
 219              	.L31:
 220 0120 0A4B     		ldr	r3, .L34+36
 221 0122 E360     		str	r3, [r4, #12]	@ float
 222 0124 7CE7     		b	.L23
 223              	.L35:
 224 0126 00BF     		.align	2
 225              	.L34:
 226 0128 00004041 		.word	1094713344
 227 012c 0000C842 		.word	1120403456
 228 0130 00004843 		.word	1128792064
ARM GAS  /tmp/ccGErc7P.s 			page 5


 229 0134 0000FA44 		.word	1157234688
 230 0138 0000C843 		.word	1137180672
 231 013c 00007A44 		.word	1148846080
 232 0140 0000C844 		.word	1153957888
 233 0144 00004844 		.word	1145569280
 234 0148 00004842 		.word	1112014848
 235 014c 0000C841 		.word	1103626240
 236              		.size	bmi088_send_config, .-bmi088_send_config
 237              		.global	BMI088_ACCEL_SENS_FRAC
 238              		.global	BMI088_ACCEL_SENS
 239              		.global	BMI088_GYRO_SENS_FRAC
 240              		.global	BMI088_GYRO_SENS
 241              		.section	.rodata.BMI088_ACCEL_SENS,"a"
 242              		.align	2
 243              		.type	BMI088_ACCEL_SENS, %object
 244              		.size	BMI088_ACCEL_SENS, 16
 245              	BMI088_ACCEL_SENS:
 246 0000 5A7F6B3F 		.word	1064009562
 247 0004 397FEB3F 		.word	1072398137
 248 0008 637F6B40 		.word	1080786787
 249 000c 637FEB40 		.word	1089175395
 250              		.section	.rodata.BMI088_ACCEL_SENS_FRAC,"a"
 251              		.align	2
 252              		.type	BMI088_ACCEL_SENS_FRAC, %object
 253              		.size	BMI088_ACCEL_SENS_FRAC, 96
 254              	BMI088_ACCEL_SENS_FRAC:
 255 0000 EF230000 		.word	9199
 256 0004 EF230000 		.word	9199
 257 0008 EF230000 		.word	9199
 258 000c 10270000 		.word	10000
 259 0010 10270000 		.word	10000
 260 0014 10270000 		.word	10000
 261 0018 DE470000 		.word	18398
 262 001c DE470000 		.word	18398
 263 0020 DE470000 		.word	18398
 264 0024 10270000 		.word	10000
 265 0028 10270000 		.word	10000
 266 002c 10270000 		.word	10000
 267 0030 BD8F0000 		.word	36797
 268 0034 BD8F0000 		.word	36797
 269 0038 BD8F0000 		.word	36797
 270 003c 10270000 		.word	10000
 271 0040 10270000 		.word	10000
 272 0044 10270000 		.word	10000
 273 0048 BF1C0000 		.word	7359
 274 004c BF1C0000 		.word	7359
 275 0050 BF1C0000 		.word	7359
 276 0054 E8030000 		.word	1000
 277 0058 E8030000 		.word	1000
 278 005c E8030000 		.word	1000
 279              		.section	.rodata.BMI088_GYRO_SENS,"a"
 280              		.align	2
 281              		.type	BMI088_GYRO_SENS, %object
 282              		.size	BMI088_GYRO_SENS, 20
 283              	BMI088_GYRO_SENS:
 284 0000 6B7D8B40 		.word	1082883435
 285 0004 6B7D0B40 		.word	1074494827
ARM GAS  /tmp/ccGErc7P.s 			page 6


 286 0008 957D8B3F 		.word	1066106261
 287 000c 747D0B3F 		.word	1057717620
 288 0010 857D8B3E 		.word	1049329029
 289              		.section	.rodata.BMI088_GYRO_SENS_FRAC,"a"
 290              		.align	2
 291              		.type	BMI088_GYRO_SENS_FRAC, %object
 292              		.size	BMI088_GYRO_SENS_FRAC, 120
 293              	BMI088_GYRO_SENS_FRAC:
 294 0000 BE8E0000 		.word	36542
 295 0004 BE8E0000 		.word	36542
 296 0008 BE8E0000 		.word	36542
 297 000c BF200000 		.word	8383
 298 0010 BF200000 		.word	8383
 299 0014 BF200000 		.word	8383
 300 0018 5F470000 		.word	18271
 301 001c 5F470000 		.word	18271
 302 0020 5F470000 		.word	18271
 303 0024 BF200000 		.word	8383
 304 0028 BF200000 		.word	8383
 305 002c BF200000 		.word	8383
 306 0030 3FE10000 		.word	57663
 307 0034 3FE10000 		.word	57663
 308 0038 3FE10000 		.word	57663
 309 003c B1CE0000 		.word	52913
 310 0040 B1CE0000 		.word	52913
 311 0044 B1CE0000 		.word	52913
 312 0048 7F4B0000 		.word	19327
 313 004c 7F4B0000 		.word	19327
 314 0050 7F4B0000 		.word	19327
 315 0054 8E8A0000 		.word	35470
 316 0058 8E8A0000 		.word	35470
 317 005c 8E8A0000 		.word	35470
 318 0060 7F4B0000 		.word	19327
 319 0064 7F4B0000 		.word	19327
 320 0068 7F4B0000 		.word	19327
 321 006c 47450000 		.word	17735
 322 0070 47450000 		.word	17735
 323 0074 47450000 		.word	17735
 324              		.ident	"GCC: (15:10.3-2021.07-4) 10.3.1 20210621 (release)"
ARM GAS  /tmp/ccGErc7P.s 			page 7


DEFINED SYMBOLS
                            *ABS*:0000000000000000 bmi088.c
     /tmp/ccGErc7P.s:15     .text.bmi088_set_default_config:0000000000000000 $t
     /tmp/ccGErc7P.s:24     .text.bmi088_set_default_config:0000000000000000 bmi088_set_default_config
     /tmp/ccGErc7P.s:36     .text.bmi088_set_default_config:000000000000000c $d
     /tmp/ccGErc7P.s:39     .text.bmi088_send_config:0000000000000000 $t
     /tmp/ccGErc7P.s:47     .text.bmi088_send_config:0000000000000000 bmi088_send_config
     /tmp/ccGErc7P.s:60     .text.bmi088_send_config:0000000000000014 $d
     /tmp/ccGErc7P.s:68     .text.bmi088_send_config:000000000000001c $t
     /tmp/ccGErc7P.s:83     .text.bmi088_send_config:0000000000000030 $d
     /tmp/ccGErc7P.s:91     .text.bmi088_send_config:0000000000000038 $t
     /tmp/ccGErc7P.s:170    .text.bmi088_send_config:00000000000000c4 $d
     /tmp/ccGErc7P.s:178    .text.bmi088_send_config:00000000000000e4 $t
     /tmp/ccGErc7P.s:226    .text.bmi088_send_config:0000000000000128 $d
     /tmp/ccGErc7P.s:254    .rodata.BMI088_ACCEL_SENS_FRAC:0000000000000000 BMI088_ACCEL_SENS_FRAC
     /tmp/ccGErc7P.s:245    .rodata.BMI088_ACCEL_SENS:0000000000000000 BMI088_ACCEL_SENS
     /tmp/ccGErc7P.s:293    .rodata.BMI088_GYRO_SENS_FRAC:0000000000000000 BMI088_GYRO_SENS_FRAC
     /tmp/ccGErc7P.s:283    .rodata.BMI088_GYRO_SENS:0000000000000000 BMI088_GYRO_SENS
     /tmp/ccGErc7P.s:242    .rodata.BMI088_ACCEL_SENS:0000000000000000 $d
     /tmp/ccGErc7P.s:251    .rodata.BMI088_ACCEL_SENS_FRAC:0000000000000000 $d
     /tmp/ccGErc7P.s:280    .rodata.BMI088_GYRO_SENS:0000000000000000 $d
     /tmp/ccGErc7P.s:290    .rodata.BMI088_GYRO_SENS_FRAC:0000000000000000 $d

NO UNDEFINED SYMBOLS
