ARM GAS  /tmp/cc1zx6So.s 			page 1


   1              		.cpu cortex-m4
   2              		.eabi_attribute 27, 1
   3              		.eabi_attribute 20, 1
   4              		.eabi_attribute 21, 1
   5              		.eabi_attribute 23, 3
   6              		.eabi_attribute 24, 1
   7              		.eabi_attribute 25, 1
   8              		.eabi_attribute 26, 1
   9              		.eabi_attribute 30, 2
  10              		.eabi_attribute 34, 1
  11              		.eabi_attribute 18, 4
  12              		.file	"bmp3_i2c.c"
  13              		.text
  14              		.section	.text.bmp3_i2c_init,"ax",%progbits
  15              		.align	1
  16              		.p2align 4,,15
  17              		.global	bmp3_i2c_init
  18              		.arch armv7e-m
  19              		.syntax unified
  20              		.thumb
  21              		.thumb_func
  22              		.fpu fpv4-sp-d16
  23              		.type	bmp3_i2c_init, %function
  24              	bmp3_i2c_init:
  25              		@ args = 0, pretend = 0, frame = 0
  26              		@ frame_needed = 0, uses_anonymous_args = 0
  27              		@ link register save eliminated.
  28 0000 0023     		movs	r3, #0
  29 0002 4FF0040C 		mov	ip, #4
  30 0006 80F829C0 		strb	ip, [r0, #41]
  31 000a 0160     		str	r1, [r0]
  32 000c 4271     		strb	r2, [r0, #5]
  33 000e 80F82C30 		strb	r3, [r0, #44]
  34 0012 4385     		strh	r3, [r0, #42]	@ movhi
  35 0014 7047     		bx	lr
  36              		.size	bmp3_i2c_init, .-bmp3_i2c_init
  37 0016 00BF     		.section	.text.bmp3_i2c_periodic,"ax",%progbits
  38              		.align	1
  39              		.p2align 4,,15
  40              		.global	bmp3_i2c_periodic
  41              		.syntax unified
  42              		.thumb
  43              		.thumb_func
  44              		.fpu fpv4-sp-d16
  45              		.type	bmp3_i2c_periodic, %function
  46              	bmp3_i2c_periodic:
  47              		@ args = 0, pretend = 0, frame = 0
  48              		@ frame_needed = 0, uses_anonymous_args = 0
  49 0000 90F82920 		ldrb	r2, [r0, #41]	@ zero_extendqisi2
  50 0004 042A     		cmp	r2, #4
  51 0006 00D0     		beq	.L14
  52 0008 7047     		bx	lr
  53              	.L14:
  54 000a 10B5     		push	{r4, lr}
  55 000c 90F82A20 		ldrb	r2, [r0, #42]	@ zero_extendqisi2
  56 0010 82B0     		sub	sp, sp, #8
  57 0012 0346     		mov	r3, r0
ARM GAS  /tmp/cc1zx6So.s 			page 2


  58 0014 032A     		cmp	r2, #3
  59 0016 0ED8     		bhi	.L3
  60 0018 DFE802F0 		tbb	[pc, r2]
  61              	.L6:
  62 001c 36       		.byte	(.L9-.L6)/2
  63 001d 29       		.byte	(.L8-.L6)/2
  64 001e 0F       		.byte	(.L7-.L6)/2
  65 001f 02       		.byte	(.L5-.L6)/2
  66              		.p2align 1
  67              	.L5:
  68 0020 0322     		movs	r2, #3
  69 0022 0146     		mov	r1, r0
  70 0024 4272     		strb	r2, [r0, #9]
  71 0026 0724     		movs	r4, #7
  72 0028 5A79     		ldrb	r2, [r3, #5]	@ zero_extendqisi2
  73 002a 51F8040B 		ldr	r0, [r1], #4
  74 002e 0094     		str	r4, [sp]
  75 0030 0123     		movs	r3, #1
  76 0032 FFF7FEFF 		bl	i2c_transceive
  77              	.L3:
  78 0036 02B0     		add	sp, sp, #8
  79              		@ sp needed
  80 0038 10BD     		pop	{r4, pc}
  81              	.L7:
  82 003a 1B24     		movs	r4, #27
  83 003c 3322     		movs	r2, #51
  84 003e 5C72     		strb	r4, [r3, #9]
  85 0040 0146     		mov	r1, r0
  86 0042 9A72     		strb	r2, [r3, #10]
  87 0044 1C20     		movs	r0, #28
  88 0046 0322     		movs	r2, #3
  89 0048 D872     		strb	r0, [r3, #11]
  90 004a 1D24     		movs	r4, #29
  91 004c 1A73     		strb	r2, [r3, #12]
  92 004e 0222     		movs	r2, #2
  93 0050 5C73     		strb	r4, [r3, #13]
  94 0052 1F20     		movs	r0, #31
  95 0054 9A73     		strb	r2, [r3, #14]
  96 0056 0422     		movs	r2, #4
  97 0058 D873     		strb	r0, [r3, #15]
  98 005a 1A74     		strb	r2, [r3, #16]
  99 005c 51F8040B 		ldr	r0, [r1], #4
 100 0060 5A79     		ldrb	r2, [r3, #5]	@ zero_extendqisi2
 101 0062 0823     		movs	r3, #8
 102 0064 02B0     		add	sp, sp, #8
 103              		@ sp needed
 104 0066 BDE81040 		pop	{r4, lr}
 105 006a FFF7FEBF 		b	i2c_transmit
 106              	.L8:
 107 006e 0146     		mov	r1, r0
 108 0070 3122     		movs	r2, #49
 109 0072 4272     		strb	r2, [r0, #9]
 110 0074 1524     		movs	r4, #21
 111 0076 5A79     		ldrb	r2, [r3, #5]	@ zero_extendqisi2
 112 0078 51F8040B 		ldr	r0, [r1], #4
 113 007c 0094     		str	r4, [sp]
 114 007e 0123     		movs	r3, #1
ARM GAS  /tmp/cc1zx6So.s 			page 3


 115 0080 FFF7FEFF 		bl	i2c_transceive
 116 0084 02B0     		add	sp, sp, #8
 117              		@ sp needed
 118 0086 10BD     		pop	{r4, pc}
 119              	.L9:
 120 0088 0021     		movs	r1, #0
 121 008a 0122     		movs	r2, #1
 122 008c 80F82C10 		strb	r1, [r0, #44]
 123 0090 4285     		strh	r2, [r0, #42]	@ movhi
 124 0092 02B0     		add	sp, sp, #8
 125              		@ sp needed
 126 0094 10BD     		pop	{r4, pc}
 127              		.size	bmp3_i2c_periodic, .-bmp3_i2c_periodic
 128 0096 00BF     		.section	.text.bmp3_i2c_event,"ax",%progbits
 129              		.align	1
 130              		.p2align 4,,15
 131              		.global	bmp3_i2c_event
 132              		.syntax unified
 133              		.thumb
 134              		.thumb_func
 135              		.fpu fpv4-sp-d16
 136              		.type	bmp3_i2c_event, %function
 137              	bmp3_i2c_event:
 138              		@ args = 0, pretend = 0, frame = 0
 139              		@ frame_needed = 0, uses_anonymous_args = 0
 140 0000 90F82930 		ldrb	r3, [r0, #41]	@ zero_extendqisi2
 141 0004 022B     		cmp	r3, #2
 142 0006 0DD0     		beq	.L31
 143 0008 90F82930 		ldrb	r3, [r0, #41]	@ zero_extendqisi2
 144 000c 032B     		cmp	r3, #3
 145 000e 00D0     		beq	.L32
 146 0010 7047     		bx	lr
 147              	.L32:
 148 0012 90F82B30 		ldrb	r3, [r0, #43]	@ zero_extendqisi2
 149 0016 0BB9     		cbnz	r3, .L30
 150 0018 80F82A30 		strb	r3, [r0, #42]
 151              	.L30:
 152 001c 0423     		movs	r3, #4
 153 001e 80F82930 		strb	r3, [r0, #41]
 154 0022 7047     		bx	lr
 155              	.L31:
 156 0024 DAB2     		uxtb	r2, r3
 157 0026 90F82A30 		ldrb	r3, [r0, #42]	@ zero_extendqisi2
 158 002a 022B     		cmp	r3, #2
 159 002c 00F02D81 		beq	.L17
 160 0030 00B5     		push	{lr}
 161 0032 032B     		cmp	r3, #3
 162 0034 2DED028B 		vpush.64	{d8}
 163 0038 00F0B380 		beq	.L18
 164 003c 012B     		cmp	r3, #1
 165 003e 06D0     		beq	.L33
 166              	.L19:
 167 0040 BDEC028B 		vldm	sp!, {d8}
 168 0044 0423     		movs	r3, #4
 169 0046 80F82930 		strb	r3, [r0, #41]
 170 004a 5DF804FB 		ldr	pc, [sp], #4
 171              	.L33:
ARM GAS  /tmp/cc1zx6So.s 			page 4


 172 004e B0F80930 		ldrh	r3, [r0, #9]	@ unaligned
 173 0052 B0F80BC0 		ldrh	ip, [r0, #11]	@ unaligned
 174 0056 DFED8F6A 		vldr.32	s13, .L34
 175 005a A0F832C0 		strh	ip, [r0, #50]	@ movhi
 176 005e 07EE903A 		vmov	s15, r3	@ int
 177 0062 F8EE674A 		vcvt.f32.u32	s9, s15
 178 0066 90F90DE0 		ldrsb	lr, [r0, #13]
 179 006a B0F90E10 		ldrsh	r1, [r0, #14]	@ unaligned
 180 006e 9FED8A7A 		vldr.32	s14, .L34+4
 181 0072 80F834E0 		strb	lr, [r0, #52]
 182 0076 64EEA64A 		vmul.f32	s9, s9, s13
 183 007a 06EE90CA 		vmov	s13, ip	@ int
 184 007e 90F912C0 		ldrsb	ip, [r0, #18]
 185 0082 C186     		strh	r1, [r0, #54]	@ movhi
 186 0084 FBEEC16A 		vcvt.f32.u32	s13, s13, #30
 187 0088 07EE90EA 		vmov	s15, lr	@ int
 188 008c C0ED156A 		vstr.32	s13, [r0, #84]
 189 0090 06EE90CA 		vmov	s13, ip	@ int
 190 0094 A1F5804E 		sub	lr, r1, #16384
 191 0098 F8EEE66A 		vcvt.f32.s32	s13, s13
 192 009c 90F91310 		ldrsb	r1, [r0, #19]
 193 00a0 0386     		strh	r3, [r0, #48]	@ movhi
 194 00a2 66EE876A 		vmul.f32	s13, s13, s14
 195 00a6 B0F91030 		ldrsh	r3, [r0, #16]	@ unaligned
 196 00aa 9FED7C6A 		vldr.32	s12, .L34+8
 197 00ae 0387     		strh	r3, [r0, #56]	@ movhi
 198 00b0 07EE101A 		vmov	s14, r1	@ int
 199 00b4 F8EEE75A 		vcvt.f32.s32	s11, s15
 200 00b8 05EE10EA 		vmov	s10, lr	@ int
 201 00bc DFED787A 		vldr.32	s15, .L34+12
 202 00c0 80F83AC0 		strb	ip, [r0, #58]
 203 00c4 A3F5804E 		sub	lr, r3, #16384
 204 00c8 B8EEC77A 		vcvt.f32.s32	s14, s14
 205 00cc 838A     		ldrh	r3, [r0, #20]	@ unaligned
 206 00ce B0F816C0 		ldrh	ip, [r0, #22]	@ unaligned
 207 00d2 80F83B10 		strb	r1, [r0, #59]
 208 00d6 27EE277A 		vmul.f32	s14, s14, s15
 209 00da 65EE865A 		vmul.f32	s11, s11, s12
 210 00de 07EE903A 		vmov	s15, r3	@ int
 211 00e2 C0ED165A 		vstr.32	s11, [r0, #88]
 212 00e6 F8EE677A 		vcvt.f32.u32	s15, s15
 213 00ea 05EE90EA 		vmov	s11, lr	@ int
 214 00ee B2EE004A 		vmov.f32	s8, #8.0e+0
 215 00f2 90F91810 		ldrsb	r1, [r0, #24]
 216 00f6 8387     		strh	r3, [r0, #60]	@ movhi
 217 00f8 FAEEE15A 		vcvt.f32.s32	s11, s11, #29
 218 00fc 90F91930 		ldrsb	r3, [r0, #25]
 219 0100 C0ED185A 		vstr.32	s11, [r0, #96]
 220 0104 67EE847A 		vmul.f32	s15, s15, s8
 221 0108 05EE90CA 		vmov	s11, ip	@ int
 222 010c 80ED1A7A 		vstr.32	s14, [r0, #104]
 223 0110 C0ED1B7A 		vstr.32	s15, [r0, #108]
 224 0114 07EE101A 		vmov	s14, r1	@ int
 225 0118 07EE903A 		vmov	s15, r3	@ int
 226 011c FBEECD5A 		vcvt.f32.u32	s11, s11, #6
 227 0120 BAEECC7A 		vcvt.f32.s32	s14, s14, #8
 228 0124 FAEEE87A 		vcvt.f32.s32	s15, s15, #15
ARM GAS  /tmp/cc1zx6So.s 			page 5


 229 0128 BAEEC65A 		vcvt.f32.s32	s10, s10, #20
 230 012c C0ED196A 		vstr.32	s13, [r0, #100]
 231 0130 A0F83EC0 		strh	ip, [r0, #62]	@ movhi
 232 0134 C0ED1C5A 		vstr.32	s11, [r0, #112]
 233 0138 80F84010 		strb	r1, [r0, #64]
 234 013c 80ED1D7A 		vstr.32	s14, [r0, #116]
 235 0140 80F84130 		strb	r3, [r0, #65]
 236 0144 C0ED144A 		vstr.32	s9, [r0, #80]
 237 0148 80ED175A 		vstr.32	s10, [r0, #92]
 238 014c C0ED1E7A 		vstr.32	s15, [r0, #120]
 239 0150 B0F91AC0 		ldrsh	ip, [r0, #26]	@ unaligned
 240 0154 90F91C10 		ldrsb	r1, [r0, #28]
 241 0158 90F91D30 		ldrsb	r3, [r0, #29]
 242 015c DFED515A 		vldr.32	s11, .L34+16
 243 0160 A0F842C0 		strh	ip, [r0, #66]	@ movhi
 244 0164 07EE90CA 		vmov	s15, ip	@ int
 245 0168 F8EEE76A 		vcvt.f32.s32	s13, s15
 246 016c 07EE901A 		vmov	s15, r1	@ int
 247 0170 B8EEE77A 		vcvt.f32.s32	s14, s15
 248 0174 07EE903A 		vmov	s15, r3	@ int
 249 0178 F8EEE77A 		vcvt.f32.s32	s15, s15
 250 017c 66EE866A 		vmul.f32	s13, s13, s12
 251 0180 27EE067A 		vmul.f32	s14, s14, s12
 252 0184 67EEA57A 		vmul.f32	s15, s15, s11
 253 0188 C0ED1F6A 		vstr.32	s13, [r0, #124]
 254 018c 80F84410 		strb	r1, [r0, #68]
 255 0190 80ED207A 		vstr.32	s14, [r0, #128]
 256 0194 80F84530 		strb	r3, [r0, #69]
 257 0198 C0ED217A 		vstr.32	s15, [r0, #132]
 258 019c 80F82A20 		strb	r2, [r0, #42]
 259 01a0 4EE7     		b	.L19
 260              	.L18:
 261 01a2 437A     		ldrb	r3, [r0, #9]	@ zero_extendqisi2
 262 01a4 13F0600F 		tst	r3, #96
 263 01a8 3FF44AAF 		beq	.L19
 264 01ac 837A     		ldrb	r3, [r0, #10]	@ zero_extendqisi2
 265 01ae 90F80BC0 		ldrb	ip, [r0, #11]	@ zero_extendqisi2
 266 01b2 027B     		ldrb	r2, [r0, #12]	@ zero_extendqisi2
 267 01b4 417B     		ldrb	r1, [r0, #13]	@ zero_extendqisi2
 268 01b6 90ED147A 		vldr.32	s14, [r0, #80]
 269 01ba 90ED168A 		vldr.32	s16, [r0, #88]
 270 01be 90ED150A 		vldr.32	s0, [r0, #84]
 271 01c2 D0ED1B6A 		vldr.32	s13, [r0, #108]
 272 01c6 90ED181A 		vldr.32	s2, [r0, #96]
 273 01ca D0ED175A 		vldr.32	s11, [r0, #92]
 274 01ce D0ED1C0A 		vldr.32	s1, [r0, #112]
 275 01d2 90ED195A 		vldr.32	s10, [r0, #100]
 276 01d6 90ED1D2A 		vldr.32	s4, [r0, #116]
 277 01da D0ED1E2A 		vldr.32	s5, [r0, #120]
 278 01de 90ED1A3A 		vldr.32	s6, [r0, #104]
 279 01e2 D0ED201A 		vldr.32	s3, [r0, #128]
 280 01e6 90ED1F4A 		vldr.32	s8, [r0, #124]
 281 01ea 1204     		lsls	r2, r2, #16
 282 01ec 42EA0C22 		orr	r2, r2, ip, lsl #8
 283 01f0 1A43     		orrs	r2, r2, r3
 284 01f2 90F80EC0 		ldrb	ip, [r0, #14]	@ zero_extendqisi2
 285 01f6 C37B     		ldrb	r3, [r0, #15]	@ zero_extendqisi2
ARM GAS  /tmp/cc1zx6So.s 			page 6


 286 01f8 C0F88C20 		str	r2, [r0, #140]
 287 01fc 1B04     		lsls	r3, r3, #16
 288 01fe 07EE902A 		vmov	s15, r2	@ int
 289 0202 43EA0C23 		orr	r3, r3, ip, lsl #8
 290 0206 0B43     		orrs	r3, r3, r1
 291 0208 F8EEE74A 		vcvt.f32.s32	s9, s15
 292 020c 07EE903A 		vmov	s15, r3	@ int
 293 0210 64EEA43A 		vmul.f32	s7, s9, s9
 294 0214 F8EEE77A 		vcvt.f32.s32	s15, s15
 295 0218 24EEA36A 		vmul.f32	s12, s9, s7
 296 021c 77EEC77A 		vsub.f32	s15, s15, s14
 297 0220 90ED217A 		vldr.32	s14, [r0, #132]
 298 0224 C0F89030 		str	r3, [r0, #144]
 299 0228 26EE076A 		vmul.f32	s12, s12, s14
 300 022c 27EEA77A 		vmul.f32	s14, s15, s15
 301 0230 4FF0010E 		mov	lr, #1
 302 0234 27EE087A 		vmul.f32	s14, s14, s16
 303 0238 80F82CE0 		strb	lr, [r0, #44]
 304 023c A7EE807A 		vfma.f32	s14, s15, s0
 305 0240 F0EE667A 		vmov.f32	s15, s13
 306 0244 E1EE075A 		vfma.f32	s11, s2, s14
 307 0248 E0EE877A 		vfma.f32	s15, s1, s14
 308 024c 67EE076A 		vmul.f32	s13, s14, s14
 309 0250 A1EE874A 		vfma.f32	s8, s3, s14
 310 0254 E5EE265A 		vfma.f32	s11, s10, s13
 311 0258 E2EE267A 		vfma.f32	s15, s4, s13
 312 025c 27EE265A 		vmul.f32	s10, s14, s13
 313 0260 F0EE466A 		vmov.f32	s13, s12
 314 0264 B0EE656A 		vmov.f32	s12, s11
 315 0268 E2EE857A 		vfma.f32	s15, s5, s10
 316 026c A3EE056A 		vfma.f32	s12, s6, s10
 317 0270 E4EE236A 		vfma.f32	s13, s8, s7
 318 0274 E4EE867A 		vfma.f32	s15, s9, s12
 319 0278 80ED227A 		vstr.32	s14, [r0, #136]
 320 027c 76EEA77A 		vadd.f32	s15, s13, s15
 321 0280 80ED267A 		vstr.32	s14, [r0, #152]
 322 0284 C0ED257A 		vstr.32	s15, [r0, #148]
 323 0288 DAE6     		b	.L19
 324              	.L17:
 325 028a 40F20313 		movw	r3, #259
 326 028e 4385     		strh	r3, [r0, #42]	@ movhi
 327 0290 C4E6     		b	.L30
 328              	.L35:
 329 0292 00BF     		.align	2
 330              	.L34:
 331 0294 00008043 		.word	1132462080
 332 0298 0000802F 		.word	796917760
 333 029c 00008027 		.word	662700032
 334 02a0 0000002D 		.word	754974720
 335 02a4 0000001F 		.word	520093696
 336              		.size	bmp3_i2c_event, .-bmp3_i2c_event
 337              		.ident	"GCC: (15:10.3-2021.07-4) 10.3.1 20210621 (release)"
ARM GAS  /tmp/cc1zx6So.s 			page 7

