ARM GAS  /tmp/ccUBp2AY.s 			page 1


   1              		.cpu cortex-m4
   2              		.eabi_attribute 27, 1
   3              		.eabi_attribute 20, 1
   4              		.eabi_attribute 21, 1
   5              		.eabi_attribute 23, 3
   6              		.eabi_attribute 24, 1
   7              		.eabi_attribute 25, 1
   8              		.eabi_attribute 26, 1
   9              		.eabi_attribute 30, 2
  10              		.eabi_attribute 34, 1
  11              		.eabi_attribute 18, 4
  12              		.file	"board.c"
  13              		.text
  14              		.section	.text.__early_init,"ax",%progbits
  15              		.align	1
  16              		.p2align 4,,15
  17              		.global	__early_init
  18              		.arch armv7e-m
  19              		.syntax unified
  20              		.thumb
  21              		.thumb_func
  22              		.fpu fpv4-sp-d16
  23              		.type	__early_init, %function
  24              	__early_init:
  25              		@ args = 0, pretend = 0, frame = 0
  26              		@ frame_needed = 0, uses_anonymous_args = 0
  27 0000 504B     		ldr	r3, .L4
  28 0002 5149     		ldr	r1, .L4+4
  29 0004 1A69     		ldr	r2, [r3, #16]
  30 0006 2DE9F047 		push	{r4, r5, r6, r7, r8, r9, r10, lr}
  31 000a 40F2FF14 		movw	r4, #511
  32 000e 2243     		orrs	r2, r2, r4
  33 0010 1A61     		str	r2, [r3, #16]
  34 0012 1A69     		ldr	r2, [r3, #16]
  35 0014 4D4F     		ldr	r7, .L4+8
  36 0016 DFF870E1 		ldr	lr, .L4+68
  37 001a 4D4E     		ldr	r6, .L4+12
  38 001c DFF86C91 		ldr	r9, .L4+72
  39 0020 DFF86C81 		ldr	r8, .L4+76
  40 0024 22F4FF72 		bic	r2, r2, #510
  41 0028 22F00102 		bic	r2, r2, #1
  42 002c 1A61     		str	r2, [r3, #16]
  43 002e 1A69     		ldr	r2, [r3, #16]
  44 0030 1A6B     		ldr	r2, [r3, #48]
  45 0032 2243     		orrs	r2, r2, r4
  46 0034 1A63     		str	r2, [r3, #48]
  47 0036 186D     		ldr	r0, [r3, #80]
  48 0038 464A     		ldr	r2, .L4+16
  49 003a 2043     		orrs	r0, r0, r4
  50 003c 1865     		str	r0, [r3, #80]
  51 003e 4FF48875 		mov	r5, #272
  52 0042 4548     		ldr	r0, .L4+20
  53 0044 1B6D     		ldr	r3, [r3, #80]
  54 0046 454C     		ldr	r4, .L4+24
  55 0048 4D60     		str	r5, [r1, #4]
  56 004a 454B     		ldr	r3, .L4+28
  57 004c 8860     		str	r0, [r1, #8]
ARM GAS  /tmp/ccUBp2AY.s 			page 2


  58 004e 47F6EC50 		movw	r0, #32236
  59 0052 CC60     		str	r4, [r1, #12]
  60 0054 4861     		str	r0, [r1, #20]
  61 0056 0B62     		str	r3, [r1, #32]
  62 0058 424B     		ldr	r3, .L4+32
  63 005a 4B62     		str	r3, [r1, #36]
  64 005c 03F11B43 		add	r3, r3, #-1694498816
  65 0060 A3F5D003 		sub	r3, r3, #6815744
  66 0064 A3F5AE73 		sub	r3, r3, #348
  67 0068 0B60     		str	r3, [r1]
  68 006a 3F49     		ldr	r1, .L4+36
  69 006c 3F4D     		ldr	r5, .L4+40
  70 006e 404C     		ldr	r4, .L4+44
  71 0070 4AF2F410 		movw	r0, #41460
  72 0074 5060     		str	r0, [r2, #4]
  73 0076 9160     		str	r1, [r2, #8]
  74 0078 01F10551 		add	r1, r1, #557842432
  75 007c 01F59B11 		add	r1, r1, #1269760
  76 0080 8A31     		adds	r1, r1, #138
  77 0082 D160     		str	r1, [r2, #12]
  78 0084 C021     		movs	r1, #192
  79 0086 5161     		str	r1, [r2, #20]
  80 0088 4FF08841 		mov	r1, #1140850688
  81 008c 1162     		str	r1, [r2, #32]
  82 008e 4FF48151 		mov	r1, #4128
  83 0092 5162     		str	r1, [r2, #36]
  84 0094 3749     		ldr	r1, .L4+48
  85 0096 1160     		str	r1, [r2]
  86 0098 4FF46C6A 		mov	r10, #3776
  87 009c 364A     		ldr	r2, .L4+52
  88 009e 3748     		ldr	r0, .L4+56
  89 00a0 4FF49051 		mov	r1, #4608
  90 00a4 7960     		str	r1, [r7, #4]
  91 00a6 BA60     		str	r2, [r7, #8]
  92 00a8 C7F80CE0 		str	lr, [r7, #12]
  93 00ac C7F814A0 		str	r10, [r7, #20]
  94 00b0 4FF0084A 		mov	r10, #-2013265920
  95 00b4 C7F820A0 		str	r10, [r7, #32]
  96 00b8 47F2407A 		movw	r10, #30528
  97 00bc 0023     		movs	r3, #0
  98 00be 3049     		ldr	r1, .L4+60
  99 00c0 C7F824A0 		str	r10, [r7, #36]
 100 00c4 4FF0AA3C 		mov	ip, #-1431655766
 101 00c8 C7F80090 		str	r9, [r7]
 102 00cc 1027     		movs	r7, #16
 103 00ce 7360     		str	r3, [r6, #4]
 104 00d0 B360     		str	r3, [r6, #8]
 105 00d2 C6F80C80 		str	r8, [r6, #12]
 106 00d6 7361     		str	r3, [r6, #20]
 107 00d8 3362     		str	r3, [r6, #32]
 108 00da 7362     		str	r3, [r6, #36]
 109 00dc 3760     		str	r7, [r6]
 110 00de 6B60     		str	r3, [r5, #4]
 111 00e0 AB60     		str	r3, [r5, #8]
 112 00e2 C5F80CC0 		str	ip, [r5, #12]
 113 00e6 6B61     		str	r3, [r5, #20]
 114 00e8 2B62     		str	r3, [r5, #32]
ARM GAS  /tmp/ccUBp2AY.s 			page 3


 115 00ea 6B62     		str	r3, [r5, #36]
 116 00ec 2B60     		str	r3, [r5]
 117 00ee 6360     		str	r3, [r4, #4]
 118 00f0 A360     		str	r3, [r4, #8]
 119 00f2 C4F80CC0 		str	ip, [r4, #12]
 120 00f6 6361     		str	r3, [r4, #20]
 121 00f8 2362     		str	r3, [r4, #32]
 122 00fa 6362     		str	r3, [r4, #36]
 123 00fc 2360     		str	r3, [r4]
 124 00fe 4360     		str	r3, [r0, #4]
 125 0100 8360     		str	r3, [r0, #8]
 126 0102 C0F80CC0 		str	ip, [r0, #12]
 127 0106 4361     		str	r3, [r0, #20]
 128 0108 0362     		str	r3, [r0, #32]
 129 010a 4362     		str	r3, [r0, #36]
 130 010c 0360     		str	r3, [r0]
 131 010e 0F20     		movs	r0, #15
 132 0110 1C4A     		ldr	r2, .L4+64
 133 0112 4B60     		str	r3, [r1, #4]
 134 0114 DFF87CE0 		ldr	lr, .L4+80
 135 0118 8860     		str	r0, [r1, #8]
 136 011a 0320     		movs	r0, #3
 137 011c C1F80CE0 		str	lr, [r1, #12]
 138 0120 4861     		str	r0, [r1, #20]
 139 0122 0A20     		movs	r0, #10
 140 0124 0B62     		str	r3, [r1, #32]
 141 0126 4B62     		str	r3, [r1, #36]
 142 0128 0860     		str	r0, [r1]
 143 012a BDE8F047 		pop	{r4, r5, r6, r7, r8, r9, r10, lr}
 144 012e 5360     		str	r3, [r2, #4]
 145 0130 9360     		str	r3, [r2, #8]
 146 0132 C2F80CC0 		str	ip, [r2, #12]
 147 0136 5361     		str	r3, [r2, #20]
 148 0138 1362     		str	r3, [r2, #32]
 149 013a 5362     		str	r3, [r2, #36]
 150 013c 1360     		str	r3, [r2]
 151 013e FFF7FEBF 		b	stm32_clock_init
 152              	.L5:
 153 0142 00BF     		.align	2
 154              	.L4:
 155 0144 00380240 		.word	1073887232
 156 0148 00000240 		.word	1073872896
 157 014c 00080240 		.word	1073874944
 158 0150 000C0240 		.word	1073875968
 159 0154 00040240 		.word	1073873920
 160 0158 FCFCF3FF 		.word	-787204
 161 015c 02000900 		.word	589826
 162 0160 10775055 		.word	1431336720
 163 0164 04AA0A10 		.word	269134340
 164 0168 00F0CC00 		.word	13430784
 165 016c 00100240 		.word	1073876992
 166 0170 00140240 		.word	1073878016
 167 0174 00A08800 		.word	8953856
 168 0178 00F0FC00 		.word	16576512
 169 017c 00180240 		.word	1073879040
 170 0180 001C0240 		.word	1073880064
 171 0184 00200240 		.word	1073881088
ARM GAS  /tmp/ccUBp2AY.s 			page 4


 172 0188 000A06A8 		.word	-1475999232
 173 018c 55A0A800 		.word	11051093
 174 0190 8AAAAAAA 		.word	-1431655798
 175 0194 A0AAAAAA 		.word	-1431655776
 176              		.size	__early_init, .-__early_init
 177              		.section	.text.boardInit,"ax",%progbits
 178              		.align	1
 179              		.p2align 4,,15
 180              		.global	boardInit
 181              		.syntax unified
 182              		.thumb
 183              		.thumb_func
 184              		.fpu fpv4-sp-d16
 185              		.type	boardInit, %function
 186              	boardInit:
 187              		@ args = 0, pretend = 0, frame = 0
 188              		@ frame_needed = 0, uses_anonymous_args = 0
 189              		@ link register save eliminated.
 190 0000 7047     		bx	lr
 191              		.size	boardInit, .-boardInit
 192 0002 00BF     		.ident	"GCC: (15:10.3-2021.07-4) 10.3.1 20210621 (release)"
ARM GAS  /tmp/ccUBp2AY.s 			page 5


DEFINED SYMBOLS
                            *ABS*:0000000000000000 board.c
     /tmp/ccUBp2AY.s:15     .text.__early_init:0000000000000000 $t
     /tmp/ccUBp2AY.s:24     .text.__early_init:0000000000000000 __early_init
     /tmp/ccUBp2AY.s:155    .text.__early_init:0000000000000144 $d
     /tmp/ccUBp2AY.s:178    .text.boardInit:0000000000000000 $t
     /tmp/ccUBp2AY.s:186    .text.boardInit:0000000000000000 boardInit

UNDEFINED SYMBOLS
stm32_clock_init
