ARM GAS  /tmp/ccWGBMqA.s 			page 1


   1              		.cpu cortex-m4
   2              		.eabi_attribute 27, 1
   3              		.eabi_attribute 20, 1
   4              		.eabi_attribute 21, 1
   5              		.eabi_attribute 23, 3
   6              		.eabi_attribute 24, 1
   7              		.eabi_attribute 25, 1
   8              		.eabi_attribute 26, 1
   9              		.eabi_attribute 30, 2
  10              		.eabi_attribute 34, 1
  11              		.eabi_attribute 18, 4
  12              		.file	"gps_datalink.c"
  13              		.text
  14              		.global	__aeabi_f2d
  15              		.global	__aeabi_dmul
  16              		.global	__aeabi_d2iz
  17              		.section	.text.gps_datalink_publish,"ax",%progbits
  18              		.align	1
  19              		.p2align 4,,15
  20              		.arch armv7e-m
  21              		.syntax unified
  22              		.thumb
  23              		.thumb_func
  24              		.fpu fpv4-sp-d16
  25              		.type	gps_datalink_publish, %function
  26              	gps_datalink_publish:
  27              		@ args = 0, pretend = 0, frame = 24
  28              		@ frame_needed = 0, uses_anonymous_args = 0
  29 0000 2DE9F047 		push	{r4, r5, r6, r7, r8, r9, r10, lr}
  30 0004 0546     		mov	r5, r0
  31 0006 86B0     		sub	sp, sp, #24
  32 0008 0868     		ldr	r0, [r1]	@ float
  33 000a 774C     		ldr	r4, .L24+8
  34 000c 10EE106A 		vmov	r6, s0
  35 0010 1746     		mov	r7, r2
  36 0012 8846     		mov	r8, r1
  37 0014 FFF7FEFF 		bl	__aeabi_f2d
  38 0018 744B     		ldr	r3, .L24+12
  39 001a 0022     		movs	r2, #0
  40 001c FFF7FEFF 		bl	__aeabi_dmul
  41 0020 FFF7FEFF 		bl	__aeabi_d2iz
  42 0024 0090     		str	r0, [sp]
  43 0026 D8F80400 		ldr	r0, [r8, #4]	@ float
  44 002a FFF7FEFF 		bl	__aeabi_f2d
  45 002e 6F4B     		ldr	r3, .L24+12
  46 0030 0022     		movs	r2, #0
  47 0032 FFF7FEFF 		bl	__aeabi_dmul
  48 0036 FFF7FEFF 		bl	__aeabi_d2iz
  49 003a 0190     		str	r0, [sp, #4]
  50 003c D8F80800 		ldr	r0, [r8, #8]	@ float
  51 0040 FFF7FEFF 		bl	__aeabi_f2d
  52 0044 694B     		ldr	r3, .L24+12
  53 0046 0022     		movs	r2, #0
  54 0048 FFF7FEFF 		bl	__aeabi_dmul
  55 004c FFF7FEFF 		bl	__aeabi_d2iz
  56 0050 6A46     		mov	r2, sp
  57 0052 6749     		ldr	r1, .L24+16
ARM GAS  /tmp/ccWGBMqA.s 			page 2


  58 0054 0290     		str	r0, [sp, #8]
  59 0056 201D     		adds	r0, r4, #4
  60 0058 FFF7FEFF 		bl	ecef_of_enu_point_i
  61 005c 2378     		ldrb	r3, [r4]	@ zero_extendqisi2
  62 005e 2146     		mov	r1, r4
  63 0060 43F00103 		orr	r3, r3, #1
  64 0064 01F8043B 		strb	r3, [r1], #4
  65 0068 04F11000 		add	r0, r4, #16
  66 006c FFF7FEFF 		bl	lla_of_ecef_i
  67 0070 3868     		ldr	r0, [r7]	@ float
  68 0072 94F80090 		ldrb	r9, [r4]	@ zero_extendqisi2
  69 0076 FFF7FEFF 		bl	__aeabi_f2d
  70 007a 5C4B     		ldr	r3, .L24+12
  71 007c 0022     		movs	r2, #0
  72 007e FFF7FEFF 		bl	__aeabi_dmul
  73 0082 FFF7FEFF 		bl	__aeabi_d2iz
  74 0086 8046     		mov	r8, r0
  75 0088 0390     		str	r0, [sp, #12]
  76 008a 7868     		ldr	r0, [r7, #4]	@ float
  77 008c FFF7FEFF 		bl	__aeabi_f2d
  78 0090 564B     		ldr	r3, .L24+12
  79 0092 0022     		movs	r2, #0
  80 0094 FFF7FEFF 		bl	__aeabi_dmul
  81 0098 FFF7FEFF 		bl	__aeabi_d2iz
  82 009c 8246     		mov	r10, r0
  83 009e B868     		ldr	r0, [r7, #8]	@ float
  84 00a0 CDF810A0 		str	r10, [sp, #16]
  85 00a4 FFF7FEFF 		bl	__aeabi_f2d
  86 00a8 504B     		ldr	r3, .L24+12
  87 00aa 0022     		movs	r2, #0
  88 00ac FFF7FEFF 		bl	__aeabi_dmul
  89 00b0 FFF7FEFF 		bl	__aeabi_d2iz
  90 00b4 0590     		str	r0, [sp, #20]
  91 00b6 4042     		rsbs	r0, r0, #0
  92 00b8 6064     		str	r0, [r4, #68]
  93 00ba 2046     		mov	r0, r4
  94 00bc 49F01209 		orr	r9, r9, #18
  95 00c0 4B49     		ldr	r1, .L24+16
  96 00c2 00F8309B 		strb	r9, [r0], #48
  97 00c6 03AA     		add	r2, sp, #12
  98 00c8 C4E90FA8 		strd	r10, r8, [r4, #60]
  99 00cc FFF7FEFF 		bl	ecef_of_enu_vect_i
 100 00d0 DDE90332 		ldrd	r3, r2, [sp, #12]
 101 00d4 02FB02F2 		mul	r2, r2, r2
 102 00d8 03FB0322 		mla	r2, r3, r3, r2
 103 00dc 07EE902A 		vmov	s15, r2	@ int
 104 00e0 B8EEE77A 		vcvt.f32.s32	s14, s15
 105 00e4 2178     		ldrb	r1, [r4]	@ zero_extendqisi2
 106 00e6 B5EE407A 		vcmp.f32	s14, #0
 107 00ea 41F00803 		orr	r3, r1, #8
 108 00ee F1EE10FA 		vmrs	APSR_nzcv, FPSCR
 109 00f2 2370     		strb	r3, [r4]
 110 00f4 5DD4     		bmi	.L19
 111 00f6 F1EEC77A 		vsqrt.f32	s15, s14
 112              	.L4:
 113 00fa FDEEE77A 		vcvt.s32.f32	s15, s15
 114 00fe 17EE903A 		vmov	r3, s15	@ int
ARM GAS  /tmp/ccWGBMqA.s 			page 3


 115 0102 A4F84830 		strh	r3, [r4, #72]	@ movhi
 116 0106 059B     		ldr	r3, [sp, #20]
 117 0108 03FB0323 		mla	r3, r3, r3, r2
 118 010c 07EE903A 		vmov	s15, r3	@ int
 119 0110 F8EEE77A 		vcvt.f32.s32	s15, s15
 120 0114 F5EE407A 		vcmp.f32	s15, #0
 121 0118 F1EE10FA 		vmrs	APSR_nzcv, FPSCR
 122 011c 56D4     		bmi	.L20
 123 011e B1EEE77A 		vsqrt.f32	s14, s15
 124              	.L7:
 125 0122 334A     		ldr	r2, .L24+16
 126 0124 029B     		ldr	r3, [sp, #8]
 127 0126 D26B     		ldr	r2, [r2, #60]
 128 0128 03EB8303 		add	r3, r3, r3, lsl #2
 129 012c 02EB4303 		add	r3, r2, r3, lsl #1
 130 0130 E362     		str	r3, [r4, #44]
 131 0132 3046     		mov	r0, r6	@ float
 132 0134 BDEEC77A 		vcvt.s32.f32	s14, s14
 133 0138 17EE101A 		vmov	r1, s14	@ int
 134 013c A4F84A10 		strh	r1, [r4, #74]	@ movhi
 135 0140 FFF7FEFF 		bl	__aeabi_f2d
 136 0144 26A3     		adr	r3, .L24
 137 0146 D3E90023 		ldrd	r2, [r3]
 138 014a FFF7FEFF 		bl	__aeabi_dmul
 139 014e FFF7FEFF 		bl	__aeabi_d2iz
 140 0152 284B     		ldr	r3, .L24+20
 141 0154 2678     		ldrb	r6, [r4]	@ zero_extendqisi2
 142 0156 E566     		str	r5, [r4, #108]
 143 0158 40F20732 		movw	r2, #775
 144 015c A4F86620 		strh	r2, [r4, #102]	@ movhi
 145 0160 5A68     		ldr	r2, [r3, #4]
 146 0162 C4F8BC21 		str	r2, [r4, #444]
 147 0166 1968     		ldr	r1, [r3]
 148 0168 5A68     		ldr	r2, [r3, #4]
 149 016a 1B68     		ldr	r3, [r3]
 150 016c E064     		str	r0, [r4, #76]
 151 016e 46F06006 		orr	r6, r6, #96
 152 0172 C4E96D23 		strd	r2, r3, [r4, #436]
 153 0176 2670     		strb	r6, [r4]
 154 0178 C4F8C011 		str	r1, [r4, #448]
 155 017c FFF7FEFF 		bl	get_sys_time_usec
 156 0180 1D4B     		ldr	r3, .L24+24
 157 0182 9C6A     		ldr	r4, [r3, #40]
 158 0184 0546     		mov	r5, r0
 159 0186 8CB1     		cbz	r4, .L1
 160 0188 174E     		ldr	r6, .L24+8
 161 018a 03E0     		b	.L8
 162              	.L23:
 163 018c 8342     		cmp	r3, r0
 164 018e 08D0     		beq	.L9
 165 0190 A468     		ldr	r4, [r4, #8]
 166 0192 5CB1     		cbz	r4, .L1
 167              	.L8:
 168 0194 2378     		ldrb	r3, [r4]	@ zero_extendqisi2
 169 0196 FF2B     		cmp	r3, #255
 170 0198 3246     		mov	r2, r6
 171 019a 2946     		mov	r1, r5
ARM GAS  /tmp/ccWGBMqA.s 			page 4


 172 019c 4FF00800 		mov	r0, #8
 173 01a0 F4D1     		bne	.L23
 174              	.L9:
 175 01a2 6368     		ldr	r3, [r4, #4]
 176 01a4 9847     		blx	r3
 177 01a6 A468     		ldr	r4, [r4, #8]
 178 01a8 002C     		cmp	r4, #0
 179 01aa F3D1     		bne	.L8
 180              	.L1:
 181 01ac 06B0     		add	sp, sp, #24
 182              		@ sp needed
 183 01ae BDE8F087 		pop	{r4, r5, r6, r7, r8, r9, r10, pc}
 184              	.L19:
 185 01b2 17EE100A 		vmov	r0, s14
 186 01b6 FFF7FEFF 		bl	sqrtf
 187 01ba DDE90332 		ldrd	r3, r2, [sp, #12]
 188 01be 02FB02F2 		mul	r2, r2, r2
 189 01c2 07EE900A 		vmov	s15, r0
 190 01c6 03FB0322 		mla	r2, r3, r3, r2
 191 01ca 96E7     		b	.L4
 192              	.L20:
 193 01cc 17EE900A 		vmov	r0, s15
 194 01d0 FFF7FEFF 		bl	sqrtf
 195 01d4 07EE100A 		vmov	s14, r0
 196 01d8 A3E7     		b	.L7
 197              	.L25:
 198 01da 00BFAFF3 		.align	3
 198      0080
 199              	.L24:
 200 01e0 00000000 		.word	0
 201 01e4 D0126341 		.word	1097011920
 202 01e8 00000000 		.word	.LANCHOR1
 203 01ec 00005940 		.word	1079574528
 204 01f0 00000000 		.word	.LANCHOR0
 205 01f4 00000000 		.word	sys_time
 206 01f8 00000000 		.word	abi_queues
 207              		.size	gps_datalink_publish, .-gps_datalink_publish
 208              		.section	.text.gps_datalink_init,"ax",%progbits
 209              		.align	1
 210              		.p2align 4,,15
 211              		.global	gps_datalink_init
 212              		.syntax unified
 213              		.thumb
 214              		.thumb_func
 215              		.fpu fpv4-sp-d16
 216              		.type	gps_datalink_init, %function
 217              	gps_datalink_init:
 218              		@ args = 0, pretend = 0, frame = 16
 219              		@ frame_needed = 0, uses_anonymous_args = 0
 220 0000 30B5     		push	{r4, r5, lr}
 221 0002 0E4B     		ldr	r3, .L28
 222 0004 0E49     		ldr	r1, .L28+4
 223 0006 0F4D     		ldr	r5, .L28+8
 224 0008 0F4C     		ldr	r4, .L28+12
 225 000a 85B0     		sub	sp, sp, #20
 226 000c 0122     		movs	r2, #1
 227 000e 1A65     		str	r2, [r3, #80]
ARM GAS  /tmp/ccWGBMqA.s 			page 5


 228 0010 1A66     		str	r2, [r3, #96]
 229 0012 0020     		movs	r0, #0
 230 0014 0522     		movs	r2, #5
 231 0016 83F86700 		strb	r0, [r3, #103]
 232 001a 0191     		str	r1, [sp, #4]
 233 001c 4FF00A0C 		mov	ip, #10
 234 0020 DA65     		str	r2, [r3, #92]
 235 0022 0A48     		ldr	r0, .L28+16
 236 0024 A3F864C0 		strh	ip, [r3, #100]	@ movhi
 237 0028 0822     		movs	r2, #8
 238 002a 01A9     		add	r1, sp, #4
 239 002c CDE90254 		strd	r5, r4, [sp, #8]
 240 0030 5A70     		strb	r2, [r3, #1]
 241 0032 FFF7FEFF 		bl	ltp_def_from_lla_i
 242 0036 05B0     		add	sp, sp, #20
 243              		@ sp needed
 244 0038 30BD     		pop	{r4, r5, pc}
 245              	.L29:
 246 003a 00BF     		.align	2
 247              	.L28:
 248 003c 00000000 		.word	.LANCHOR1
 249 0040 555AF719 		.word	435640917
 250 0044 9146E200 		.word	14829201
 251 0048 DA040300 		.word	197850
 252 004c 00000000 		.word	.LANCHOR0
 253              		.size	gps_datalink_init, .-gps_datalink_init
 254              		.section	.text.gps_datalink_parse_EXTERNAL_POSE,"ax",%progbits
 255              		.align	1
 256              		.p2align 4,,15
 257              		.global	gps_datalink_parse_EXTERNAL_POSE
 258              		.syntax unified
 259              		.thumb
 260              		.thumb_func
 261              		.fpu fpv4-sp-d16
 262              		.type	gps_datalink_parse_EXTERNAL_POSE, %function
 263              	gps_datalink_parse_EXTERNAL_POSE:
 264              		@ args = 0, pretend = 0, frame = 56
 265              		@ frame_needed = 0, uses_anonymous_args = 0
 266 0000 0379     		ldrb	r3, [r0, #4]	@ zero_extendqisi2
 267 0002 1F2B     		cmp	r3, #31
 268 0004 00D0     		beq	.L37
 269 0006 7047     		bx	lr
 270              	.L37:
 271 0008 10B5     		push	{r4, lr}
 272 000a D0F82D30 		ldr	r3, [r0, #45]	@ unaligned
 273 000e D0F80D20 		ldr	r2, [r0, #13]	@ unaligned
 274 0012 D0F80540 		ldr	r4, [r0, #5]	@ unaligned
 275 0016 D0F809C0 		ldr	ip, [r0, #9]	@ unaligned
 276 001a 8EB0     		sub	sp, sp, #56
 277 001c 07EE903A 		vmov	s15, r3
 278 0020 D0F81130 		ldr	r3, [r0, #17]	@ unaligned
 279 0024 0292     		str	r2, [sp, #8]	@ float
 280 0026 0393     		str	r3, [sp, #12]	@ float
 281 0028 D0F81520 		ldr	r2, [r0, #21]	@ unaligned
 282 002c D0F81930 		ldr	r3, [r0, #25]	@ unaligned
 283 0030 0492     		str	r2, [sp, #16]	@ float
 284 0032 0593     		str	r3, [sp, #20]	@ float
ARM GAS  /tmp/ccWGBMqA.s 			page 6


 285 0034 D0F81D20 		ldr	r2, [r0, #29]	@ unaligned
 286 0038 D0F82130 		ldr	r3, [r0, #33]	@ unaligned
 287 003c 0692     		str	r2, [sp, #24]	@ float
 288 003e F1EE677A 		vneg.f32	s15, s15
 289 0042 D0F82920 		ldr	r2, [r0, #41]	@ unaligned
 290 0046 0A93     		str	r3, [sp, #40]	@ float
 291 0048 0AA9     		add	r1, sp, #40
 292 004a D0F82530 		ldr	r3, [r0, #37]	@ unaligned
 293 004e CDF804C0 		str	ip, [sp, #4]	@ float
 294 0052 07A8     		add	r0, sp, #28
 295 0054 0B92     		str	r2, [sp, #44]	@ float
 296 0056 0C93     		str	r3, [sp, #48]	@ float
 297 0058 CDED0D7A 		vstr.32	s15, [sp, #52]
 298 005c FFF7FEFF 		bl	float_eulers_of_quat
 299 0060 9DED090A 		vldr.32	s0, [sp, #36]
 300 0064 04AA     		add	r2, sp, #16
 301 0066 01A9     		add	r1, sp, #4
 302 0068 2046     		mov	r0, r4
 303 006a FFF7FEFF 		bl	gps_datalink_publish
 304 006e 0EB0     		add	sp, sp, #56
 305              		@ sp needed
 306 0070 10BD     		pop	{r4, pc}
 307              		.size	gps_datalink_parse_EXTERNAL_POSE, .-gps_datalink_parse_EXTERNAL_POSE
 308              		.global	__aeabi_i2d
 309              		.global	__aeabi_ddiv
 310              		.global	__aeabi_d2f
 311 0072 00BF     		.section	.text.gps_datalink_parse_EXTERNAL_POSE_SMALL,"ax",%progbits
 312              		.align	1
 313              		.p2align 4,,15
 314              		.global	gps_datalink_parse_EXTERNAL_POSE_SMALL
 315              		.syntax unified
 316              		.thumb
 317              		.thumb_func
 318              		.fpu fpv4-sp-d16
 319              		.type	gps_datalink_parse_EXTERNAL_POSE_SMALL, %function
 320              	gps_datalink_parse_EXTERNAL_POSE_SMALL:
 321              		@ args = 0, pretend = 0, frame = 24
 322              		@ frame_needed = 0, uses_anonymous_args = 0
 323 0000 0379     		ldrb	r3, [r0, #4]	@ zero_extendqisi2
 324 0002 1F2B     		cmp	r3, #31
 325 0004 7CD1     		bne	.L62
 326 0006 D0F80930 		ldr	r3, [r0, #9]	@ unaligned
 327 000a 9FED416A 		vldr.32	s12, .L65+8
 328 000e 590D     		lsrs	r1, r3, #21
 329 0010 002B     		cmp	r3, #0
 330 0012 B8BF     		it	lt
 331 0014 6FEA4151 		mvnlt	r1, r1, lsl #21
 332 0018 C3F38A22 		ubfx	r2, r3, #10, #11
 333 001c B8BF     		it	lt
 334 001e 6FEA5151 		mvnlt	r1, r1, lsr #21
 335 0022 13F4801F 		tst	r3, #1048576
 336 0026 18BF     		it	ne
 337 0028 6FEA4252 		mvnne	r2, r2, lsl #21
 338 002c 07EE901A 		vmov	s15, r1	@ int
 339 0030 18BF     		it	ne
 340 0032 6FEA5252 		mvnne	r2, r2, lsr #21
 341 0036 F8EEE76A 		vcvt.f32.s32	s13, s15
ARM GAS  /tmp/ccWGBMqA.s 			page 7


 342 003a 07EE902A 		vmov	s15, r2	@ int
 343 003e C3F30903 		ubfx	r3, r3, #0, #10
 344 0042 B8EEE77A 		vcvt.f32.s32	s14, s15
 345 0046 07EE903A 		vmov	s15, r3	@ int
 346 004a C6EE865A 		vdiv.f32	s11, s13, s12
 347 004e D0F80D30 		ldr	r3, [r0, #13]	@ unaligned
 348 0052 10B5     		push	{r4, lr}
 349 0054 4FEA535C 		lsr	ip, r3, #21
 350 0058 002B     		cmp	r3, #0
 351 005a BCBF     		itt	lt
 352 005c 6FEA4C5C 		mvnlt	ip, ip, lsl #21
 353 0060 6FEA5C5C 		mvnlt	ip, ip, lsr #21
 354 0064 C3F38A21 		ubfx	r1, r3, #10, #11
 355 0068 DA02     		lsls	r2, r3, #11
 356 006a C7EE066A 		vdiv.f32	s13, s14, s12
 357 006e 48BF     		it	mi
 358 0070 6FEA4151 		mvnmi	r1, r1, lsl #21
 359 0074 86B0     		sub	sp, sp, #24
 360 0076 C3F30902 		ubfx	r2, r3, #0, #10
 361 007a 48BF     		it	mi
 362 007c 6FEA5151 		mvnmi	r1, r1, lsr #21
 363 0080 9B05     		lsls	r3, r3, #22
 364 0082 44BF     		itt	mi
 365 0084 6FEA8252 		mvnmi	r2, r2, lsl #22
 366 0088 6FEA9252 		mvnmi	r2, r2, lsr #22
 367 008c D0F80540 		ldr	r4, [r0, #5]	@ unaligned
 368 0090 B0F91100 		ldrsh	r0, [r0, #17]	@ unaligned
 369 0094 F8EEE77A 		vcvt.f32.s32	s15, s15
 370 0098 CDED016A 		vstr.32	s13, [sp, #4]
 371 009c 87EE867A 		vdiv.f32	s14, s15, s12
 372 00a0 07EE90CA 		vmov	s15, ip	@ int
 373 00a4 F8EEE76A 		vcvt.f32.s32	s13, s15
 374 00a8 07EE901A 		vmov	s15, r1	@ int
 375 00ac 8DED027A 		vstr.32	s14, [sp, #8]
 376 00b0 B8EEE77A 		vcvt.f32.s32	s14, s15
 377 00b4 07EE902A 		vmov	s15, r2	@ int
 378 00b8 9FED156A 		vldr.32	s12, .L65+8
 379 00bc CDED005A 		vstr.32	s11, [sp]
 380 00c0 F8EEE77A 		vcvt.f32.s32	s15, s15
 381 00c4 C6EE865A 		vdiv.f32	s11, s13, s12
 382 00c8 C7EE066A 		vdiv.f32	s13, s14, s12
 383 00cc 87EE867A 		vdiv.f32	s14, s15, s12
 384 00d0 CDED035A 		vstr.32	s11, [sp, #12]
 385 00d4 CDED046A 		vstr.32	s13, [sp, #16]
 386 00d8 8DED057A 		vstr.32	s14, [sp, #20]
 387 00dc FFF7FEFF 		bl	__aeabi_i2d
 388 00e0 09A3     		adr	r3, .L65
 389 00e2 D3E90023 		ldrd	r2, [r3]
 390 00e6 FFF7FEFF 		bl	__aeabi_ddiv
 391 00ea FFF7FEFF 		bl	__aeabi_d2f
 392 00ee 03AA     		add	r2, sp, #12
 393 00f0 00EE100A 		vmov	s0, r0
 394 00f4 6946     		mov	r1, sp
 395 00f6 2046     		mov	r0, r4
 396 00f8 FFF7FEFF 		bl	gps_datalink_publish
 397 00fc 06B0     		add	sp, sp, #24
 398              		@ sp needed
ARM GAS  /tmp/ccWGBMqA.s 			page 8


 399 00fe 10BD     		pop	{r4, pc}
 400              	.L62:
 401 0100 7047     		bx	lr
 402              	.L66:
 403 0102 00BFAFF3 		.align	3
 403      0080
 404              	.L65:
 405 0108 00000000 		.word	0
 406 010c 0088C340 		.word	1086556160
 407 0110 0000C842 		.word	1120403456
 408              		.size	gps_datalink_parse_EXTERNAL_POSE_SMALL, .-gps_datalink_parse_EXTERNAL_POSE_SMALL
 409              		.section	.text.gps_datalink_parse_REMOTE_GPS_LOCAL,"ax",%progbits
 410              		.align	1
 411              		.p2align 4,,15
 412              		.global	gps_datalink_parse_REMOTE_GPS_LOCAL
 413              		.syntax unified
 414              		.thumb
 415              		.thumb_func
 416              		.fpu fpv4-sp-d16
 417              		.type	gps_datalink_parse_REMOTE_GPS_LOCAL, %function
 418              	gps_datalink_parse_REMOTE_GPS_LOCAL:
 419              		@ args = 0, pretend = 0, frame = 24
 420              		@ frame_needed = 0, uses_anonymous_args = 0
 421 0000 0279     		ldrb	r2, [r0, #4]	@ zero_extendqisi2
 422 0002 1F2A     		cmp	r2, #31
 423 0004 00D0     		beq	.L74
 424 0006 7047     		bx	lr
 425              	.L74:
 426 0008 10B5     		push	{r4, lr}
 427 000a 0346     		mov	r3, r0
 428 000c 86B0     		sub	sp, sp, #24
 429 000e D3F80A20 		ldr	r2, [r3, #10]	@ unaligned
 430 0012 0192     		str	r2, [sp, #4]	@ float
 431 0014 D3F81220 		ldr	r2, [r3, #18]	@ unaligned
 432 0018 D3F806C0 		ldr	ip, [r3, #6]	@ unaligned
 433 001c D3F80E10 		ldr	r1, [r3, #14]	@ unaligned
 434 0020 D3F81E40 		ldr	r4, [r3, #30]	@ unaligned
 435 0024 0392     		str	r2, [sp, #12]	@ float
 436 0026 D0F82200 		ldr	r0, [r0, #34]	@ unaligned
 437 002a D3F81620 		ldr	r2, [r3, #22]	@ unaligned
 438 002e D3F81A30 		ldr	r3, [r3, #26]	@ unaligned
 439 0032 CDF800C0 		str	ip, [sp]	@ float
 440 0036 0492     		str	r2, [sp, #16]	@ float
 441 0038 0593     		str	r3, [sp, #20]	@ float
 442 003a 0291     		str	r1, [sp, #8]	@ float
 443 003c FFF7FEFF 		bl	__aeabi_f2d
 444 0040 07A3     		adr	r3, .L75
 445 0042 D3E90023 		ldrd	r2, [r3]
 446 0046 FFF7FEFF 		bl	__aeabi_dmul
 447 004a FFF7FEFF 		bl	__aeabi_d2f
 448 004e 03AA     		add	r2, sp, #12
 449 0050 00EE100A 		vmov	s0, r0
 450 0054 6946     		mov	r1, sp
 451 0056 2046     		mov	r0, r4
 452 0058 FFF7FEFF 		bl	gps_datalink_publish
 453 005c 06B0     		add	sp, sp, #24
 454              		@ sp needed
ARM GAS  /tmp/ccWGBMqA.s 			page 9


 455 005e 10BD     		pop	{r4, pc}
 456              	.L76:
 457              		.align	3
 458              	.L75:
 459 0060 399D52A2 		.word	-1571644103
 460 0064 46DF913F 		.word	1066524486
 461              		.size	gps_datalink_parse_REMOTE_GPS_LOCAL, .-gps_datalink_parse_REMOTE_GPS_LOCAL
 462              		.global	gps_datalink
 463              		.section	.bss.gps_datalink,"aw",%nobits
 464              		.align	2
 465              		.set	.LANCHOR1,. + 0
 466              		.type	gps_datalink, %object
 467              		.size	gps_datalink, 456
 468              	gps_datalink:
 469 0000 00000000 		.space	456
 469      00000000 
 469      00000000 
 469      00000000 
 469      00000000 
 470              		.section	.bss.ltp_def,"aw",%nobits
 471              		.align	2
 472              		.set	.LANCHOR0,. + 0
 473              		.type	ltp_def, %object
 474              		.size	ltp_def, 64
 475              	ltp_def:
 476 0000 00000000 		.space	64
 476      00000000 
 476      00000000 
 476      00000000 
 476      00000000 
 477              		.ident	"GCC: (15:10.3-2021.07-4) 10.3.1 20210621 (release)"
ARM GAS  /tmp/ccWGBMqA.s 			page 10

