ARM GAS  /tmp/ccEp0p75.s 			page 1


   1              		.cpu cortex-m4
   2              		.eabi_attribute 27, 1
   3              		.eabi_attribute 20, 1
   4              		.eabi_attribute 21, 1
   5              		.eabi_attribute 23, 3
   6              		.eabi_attribute 24, 1
   7              		.eabi_attribute 25, 1
   8              		.eabi_attribute 26, 1
   9              		.eabi_attribute 30, 2
  10              		.eabi_attribute 34, 1
  11              		.eabi_attribute 18, 4
  12              		.file	"guidance_v.c"
  13              		.text
  14              		.section	.rodata.send_tune_vert.str1.4,"aMS",%progbits,1
  15              		.align	2
  16              	.LC0:
  17 0000 54554E45 		.ascii	"TUNE_VERT\000"
  17      5F564552 
  17      5400
  18              		.section	.text.send_tune_vert,"ax",%progbits
  19              		.align	1
  20              		.p2align 4,,15
  21              		.arch armv7e-m
  22              		.syntax unified
  23              		.thumb
  24              		.thumb_func
  25              		.fpu fpv4-sp-d16
  26              		.type	send_tune_vert, %function
  27              	send_tune_vert:
  28              		@ args = 0, pretend = 0, frame = 16
  29              		@ frame_needed = 0, uses_anonymous_args = 0
  30 0000 F0B5     		push	{r4, r5, r6, r7, lr}
  31 0002 494B     		ldr	r3, .L8
  32 0004 1B88     		ldrh	r3, [r3]
  33 0006 9B07     		lsls	r3, r3, #30
  34 0008 87B0     		sub	sp, sp, #28
  35 000a 0546     		mov	r5, r0
  36 000c 0E46     		mov	r6, r1
  37 000e 40F18780 		bpl	.L7
  38              	.L2:
  39 0012 1F22     		movs	r2, #31
  40 0014 0024     		movs	r4, #0
  41 0016 2B68     		ldr	r3, [r5]
  42 0018 0495     		str	r5, [sp, #16]
  43 001a 1421     		movs	r1, #20
  44 001c ADF80C20 		strh	r2, [sp, #12]	@ movhi
  45 0020 0596     		str	r6, [sp, #20]
  46 0022 8DF80E40 		strb	r4, [sp, #14]
  47 0026 0294     		str	r4, [sp, #8]
  48 0028 03A8     		add	r0, sp, #12
  49 002a 9847     		blx	r3
  50 002c 049B     		ldr	r3, [sp, #16]
  51 002e 82B2     		uxth	r2, r0
  52 0030 5B68     		ldr	r3, [r3, #4]
  53 0032 0546     		mov	r5, r0
  54 0034 02A9     		add	r1, sp, #8
  55 0036 03A8     		add	r0, sp, #12
ARM GAS  /tmp/ccEp0p75.s 			page 2


  56 0038 9847     		blx	r3
  57 003a 049B     		ldr	r3, [sp, #16]
  58 003c 0028     		cmp	r0, #0
  59 003e 6AD0     		beq	.L3
  60 0040 2946     		mov	r1, r5
  61 0042 03A8     		add	r0, sp, #12
  62 0044 DB69     		ldr	r3, [r3, #28]
  63 0046 9847     		blx	r3
  64 0048 049B     		ldr	r3, [sp, #16]
  65 004a 0299     		ldr	r1, [sp, #8]
  66 004c 1B69     		ldr	r3, [r3, #16]
  67 004e 03A8     		add	r0, sp, #12
  68 0050 1422     		movs	r2, #20
  69 0052 9847     		blx	r3
  70 0054 0123     		movs	r3, #1
  71 0056 049A     		ldr	r2, [sp, #16]
  72 0058 0193     		str	r3, [sp, #4]
  73 005a 03AB     		add	r3, sp, #12
  74 005c 0093     		str	r3, [sp]
  75 005e 9568     		ldr	r5, [r2, #8]
  76 0060 0299     		ldr	r1, [sp, #8]
  77 0062 2346     		mov	r3, r4
  78 0064 03A8     		add	r0, sp, #12
  79 0066 0222     		movs	r2, #2
  80 0068 A847     		blx	r5
  81 006a 9DF80D30 		ldrb	r3, [sp, #13]	@ zero_extendqisi2
  82 006e 049A     		ldr	r2, [sp, #16]
  83 0070 0299     		ldr	r1, [sp, #8]
  84 0072 CDE90034 		strd	r3, r4, [sp]
  85 0076 03A8     		add	r0, sp, #12
  86 0078 D568     		ldr	r5, [r2, #12]
  87 007a 2346     		mov	r3, r4
  88 007c 0222     		movs	r2, #2
  89 007e A847     		blx	r5
  90 0080 9DF80E30 		ldrb	r3, [sp, #14]	@ zero_extendqisi2
  91 0084 049A     		ldr	r2, [sp, #16]
  92 0086 0299     		ldr	r1, [sp, #8]
  93 0088 1B01     		lsls	r3, r3, #4
  94 008a 43F00103 		orr	r3, r3, #1
  95 008e DBB2     		uxtb	r3, r3
  96 0090 CDE90034 		strd	r3, r4, [sp]
  97 0094 03A8     		add	r0, sp, #12
  98 0096 D568     		ldr	r5, [r2, #12]
  99 0098 2346     		mov	r3, r4
 100 009a 0222     		movs	r2, #2
 101 009c A847     		blx	r5
 102 009e 2349     		ldr	r1, .L8+4
 103 00a0 049A     		ldr	r2, [sp, #16]
 104 00a2 D523     		movs	r3, #213
 105 00a4 CDE90031 		strd	r3, r1, [sp]
 106 00a8 03A8     		add	r0, sp, #12
 107 00aa D568     		ldr	r5, [r2, #12]
 108 00ac 0299     		ldr	r1, [sp, #8]
 109 00ae 2346     		mov	r3, r4
 110 00b0 0222     		movs	r2, #2
 111 00b2 A847     		blx	r5
 112 00b4 1E4D     		ldr	r5, .L8+8
ARM GAS  /tmp/ccEp0p75.s 			page 3


 113 00b6 049B     		ldr	r3, [sp, #16]
 114 00b8 0299     		ldr	r1, [sp, #8]
 115 00ba 0426     		movs	r6, #4
 116 00bc CDE90056 		strd	r5, r6, [sp]
 117 00c0 03A8     		add	r0, sp, #12
 118 00c2 9F68     		ldr	r7, [r3, #8]
 119 00c4 0722     		movs	r2, #7
 120 00c6 2346     		mov	r3, r4
 121 00c8 B847     		blx	r7
 122 00ca 049B     		ldr	r3, [sp, #16]
 123 00cc 194A     		ldr	r2, .L8+12
 124 00ce 0092     		str	r2, [sp]
 125 00d0 0196     		str	r6, [sp, #4]
 126 00d2 9F68     		ldr	r7, [r3, #8]
 127 00d4 0299     		ldr	r1, [sp, #8]
 128 00d6 2346     		mov	r3, r4
 129 00d8 03A8     		add	r0, sp, #12
 130 00da 0722     		movs	r2, #7
 131 00dc B847     		blx	r7
 132 00de 049B     		ldr	r3, [sp, #16]
 133 00e0 0196     		str	r6, [sp, #4]
 134 00e2 05F10802 		add	r2, r5, #8
 135 00e6 0092     		str	r2, [sp]
 136 00e8 9F68     		ldr	r7, [r3, #8]
 137 00ea 0299     		ldr	r1, [sp, #8]
 138 00ec 2346     		mov	r3, r4
 139 00ee 03A8     		add	r0, sp, #12
 140 00f0 0722     		movs	r2, #7
 141 00f2 0C35     		adds	r5, r5, #12
 142 00f4 B847     		blx	r7
 143 00f6 CDE90056 		strd	r5, r6, [sp]
 144 00fa 049B     		ldr	r3, [sp, #16]
 145 00fc 0299     		ldr	r1, [sp, #8]
 146 00fe 9D68     		ldr	r5, [r3, #8]
 147 0100 03A8     		add	r0, sp, #12
 148 0102 2346     		mov	r3, r4
 149 0104 0722     		movs	r2, #7
 150 0106 A847     		blx	r5
 151 0108 049B     		ldr	r3, [sp, #16]
 152 010a 0299     		ldr	r1, [sp, #8]
 153 010c 5B69     		ldr	r3, [r3, #20]
 154 010e 03A8     		add	r0, sp, #12
 155 0110 9847     		blx	r3
 156 0112 07B0     		add	sp, sp, #28
 157              		@ sp needed
 158 0114 F0BD     		pop	{r4, r5, r6, r7, pc}
 159              	.L3:
 160 0116 9B69     		ldr	r3, [r3, #24]
 161 0118 03A8     		add	r0, sp, #12
 162 011a 9847     		blx	r3
 163 011c 07B0     		add	sp, sp, #28
 164              		@ sp needed
 165 011e F0BD     		pop	{r4, r5, r6, r7, pc}
 166              	.L7:
 167 0120 FFF7FEFF 		bl	stateCalcPositionNed_i
 168 0124 75E7     		b	.L2
 169              	.L9:
ARM GAS  /tmp/ccEp0p75.s 			page 4


 170 0126 00BF     		.align	2
 171              	.L8:
 172 0128 00000000 		.word	state
 173 012c 00000000 		.word	.LC0
 174 0130 04000000 		.word	.LANCHOR0+4
 175 0134 68000000 		.word	state+104
 176              		.size	send_tune_vert, .-send_tune_vert
 177              		.section	.text.guidance_v_init,"ax",%progbits
 178              		.align	1
 179              		.p2align 4,,15
 180              		.global	guidance_v_init
 181              		.syntax unified
 182              		.thumb
 183              		.thumb_func
 184              		.fpu fpv4-sp-d16
 185              		.type	guidance_v_init, %function
 186              	guidance_v_init:
 187              		@ args = 0, pretend = 0, frame = 0
 188              		@ frame_needed = 0, uses_anonymous_args = 0
 189 0000 10B5     		push	{r4, lr}
 190 0002 0B4A     		ldr	r2, .L12
 191 0004 0B49     		ldr	r1, .L12+4
 192 0006 0C4C     		ldr	r4, .L12+8
 193 0008 4FF07D50 		mov	r0, #1061158912
 194 000c 0023     		movs	r3, #0
 195 000e 9062     		str	r0, [r2, #40]	@ float
 196 0010 4FF48040 		mov	r0, #16384
 197 0014 D062     		str	r0, [r2, #44]
 198 0016 1370     		strb	r3, [r2]
 199 0018 2360     		str	r3, [r4]
 200 001a 0B70     		strb	r3, [r1]
 201 001c FFF7FEFF 		bl	gv_adapt_init
 202 0020 BDE81040 		pop	{r4, lr}
 203 0024 054A     		ldr	r2, .L12+12
 204 0026 0648     		ldr	r0, .L12+16
 205 0028 D521     		movs	r1, #213
 206 002a FFF7FEBF 		b	register_periodic_telemetry
 207              	.L13:
 208 002e 00BF     		.align	2
 209              	.L12:
 210 0030 00000000 		.word	.LANCHOR0
 211 0034 00000000 		.word	.LANCHOR2
 212 0038 00000000 		.word	.LANCHOR1
 213 003c 00000000 		.word	send_tune_vert
 214 0040 00000000 		.word	pprz_telemetry
 215              		.size	guidance_v_init, .-guidance_v_init
 216              		.section	.text.guidance_v_read_rc,"ax",%progbits
 217              		.align	1
 218              		.p2align 4,,15
 219              		.global	guidance_v_read_rc
 220              		.syntax unified
 221              		.thumb
 222              		.thumb_func
 223              		.fpu fpv4-sp-d16
 224              		.type	guidance_v_read_rc, %function
 225              	guidance_v_read_rc:
 226              		@ args = 0, pretend = 0, frame = 0
ARM GAS  /tmp/ccEp0p75.s 			page 5


 227              		@ frame_needed = 0, uses_anonymous_args = 0
 228              		@ link register save eliminated.
 229 0000 0F4B     		ldr	r3, .L21
 230 0002 104A     		ldr	r2, .L21+4
 231 0004 B3F90C30 		ldrsh	r3, [r3, #12]
 232 0008 9361     		str	r3, [r2, #24]
 233 000a C3F59651 		rsb	r1, r3, #4800
 234 000e B1F5707F 		cmp	r1, #960
 235 0012 0ADC     		bgt	.L20
 236 0014 11F5707F 		cmn	r1, #960
 237 0018 0FDA     		bge	.L18
 238 001a C3F5B453 		rsb	r3, r3, #5760
 239 001e 40F29911 		movw	r1, #409
 240 0022 01FB03F3 		mul	r3, r1, r3
 241 0026 D361     		str	r3, [r2, #28]
 242 0028 7047     		bx	lr
 243              	.L20:
 244 002a C3F57063 		rsb	r3, r3, #3840
 245 002e 40F29911 		movw	r1, #409
 246 0032 01FB03F3 		mul	r3, r1, r3
 247 0036 D361     		str	r3, [r2, #28]
 248 0038 7047     		bx	lr
 249              	.L18:
 250 003a 0023     		movs	r3, #0
 251 003c D361     		str	r3, [r2, #28]
 252 003e 7047     		bx	lr
 253              	.L22:
 254              		.align	2
 255              	.L21:
 256 0040 00000000 		.word	radio_control
 257 0044 00000000 		.word	.LANCHOR0
 258              		.size	guidance_v_read_rc, .-guidance_v_read_rc
 259              		.section	.text.guidance_v_notify_in_flight,"ax",%progbits
 260              		.align	1
 261              		.p2align 4,,15
 262              		.global	guidance_v_notify_in_flight
 263              		.syntax unified
 264              		.thumb
 265              		.thumb_func
 266              		.fpu fpv4-sp-d16
 267              		.type	guidance_v_notify_in_flight, %function
 268              	guidance_v_notify_in_flight:
 269              		@ args = 0, pretend = 0, frame = 0
 270              		@ frame_needed = 0, uses_anonymous_args = 0
 271              		@ link register save eliminated.
 272 0000 00B9     		cbnz	r0, .L25
 273 0002 7047     		bx	lr
 274              	.L25:
 275 0004 FFF7FEBF 		b	gv_adapt_init
 276              		.size	guidance_v_notify_in_flight, .-guidance_v_notify_in_flight
 277              		.section	.text.guidance_v_thrust_adapt,"ax",%progbits
 278              		.align	1
 279              		.p2align 4,,15
 280              		.global	guidance_v_thrust_adapt
 281              		.syntax unified
 282              		.thumb
 283              		.thumb_func
ARM GAS  /tmp/ccEp0p75.s 			page 6


 284              		.fpu fpv4-sp-d16
 285              		.type	guidance_v_thrust_adapt, %function
 286              	guidance_v_thrust_adapt:
 287              		@ args = 0, pretend = 0, frame = 8
 288              		@ frame_needed = 0, uses_anonymous_args = 0
 289 0000 70B5     		push	{r4, r5, r6, lr}
 290 0002 1B4D     		ldr	r5, .L35
 291 0004 95F8B031 		ldrb	r3, [r5, #432]	@ zero_extendqisi2
 292 0008 5A07     		lsls	r2, r3, #29
 293 000a 82B0     		sub	sp, sp, #8
 294 000c 0446     		mov	r4, r0
 295 000e 25D5     		bpl	.L32
 296              	.L27:
 297 0010 D5F8F011 		ldr	r1, [r5, #496]
 298 0014 174E     		ldr	r6, .L35+4
 299 0016 43F26C73 		movw	r3, #14188
 300 001a 9942     		cmp	r1, r3
 301 001c B8BF     		it	lt
 302 001e 1946     		movlt	r1, r3
 303 0020 F162     		str	r1, [r6, #44]
 304 0022 B4B1     		cbz	r4, .L28
 305 0024 144B     		ldr	r3, .L35+8
 306 0026 1B78     		ldrb	r3, [r3]	@ zero_extendqisi2
 307 0028 0BB9     		cbnz	r3, .L33
 308 002a 02B0     		add	sp, sp, #8
 309              		@ sp needed
 310 002c 70BD     		pop	{r4, r5, r6, pc}
 311              	.L33:
 312 002e 134A     		ldr	r2, .L35+12
 313 0030 95F87031 		ldrb	r3, [r5, #368]	@ zero_extendqisi2
 314 0034 D268     		ldr	r2, [r2, #12]
 315 0036 9B07     		lsls	r3, r3, #30
 316 0038 02FB01F1 		mul	r1, r2, r1
 317 003c 4FEAA131 		asr	r1, r1, #14
 318 0040 11D5     		bpl	.L34
 319              	.L30:
 320 0042 3269     		ldr	r2, [r6, #16]
 321 0044 D5F88801 		ldr	r0, [r5, #392]
 322 0048 02B0     		add	sp, sp, #8
 323              		@ sp needed
 324 004a BDE87040 		pop	{r4, r5, r6, lr}
 325 004e FFF7FEBF 		b	gv_adapt_run
 326              	.L28:
 327 0052 02B0     		add	sp, sp, #8
 328              		@ sp needed
 329 0054 BDE87040 		pop	{r4, r5, r6, lr}
 330 0058 FFF7FEBF 		b	gv_adapt_init
 331              	.L32:
 332 005c 05F5D870 		add	r0, r5, #432
 333 0060 FFF7FEFF 		bl	orientationCalcRMat_i
 334 0064 D4E7     		b	.L27
 335              	.L34:
 336 0066 0191     		str	r1, [sp, #4]
 337 0068 FFF7FEFF 		bl	stateCalcAccelNed_i
 338 006c 0199     		ldr	r1, [sp, #4]
 339 006e E8E7     		b	.L30
 340              	.L36:
ARM GAS  /tmp/ccEp0p75.s 			page 7


 341              		.align	2
 342              	.L35:
 343 0070 00000000 		.word	state
 344 0074 00000000 		.word	.LANCHOR0
 345 0078 00000000 		.word	.LANCHOR2
 346 007c 00000000 		.word	stabilization_cmd
 347              		.size	guidance_v_thrust_adapt, .-guidance_v_thrust_adapt
 348              		.section	.text.guidance_v_z_enter,"ax",%progbits
 349              		.align	1
 350              		.p2align 4,,15
 351              		.global	guidance_v_z_enter
 352              		.syntax unified
 353              		.thumb
 354              		.thumb_func
 355              		.fpu fpv4-sp-d16
 356              		.type	guidance_v_z_enter, %function
 357              	guidance_v_z_enter:
 358              		@ args = 0, pretend = 0, frame = 0
 359              		@ frame_needed = 0, uses_anonymous_args = 0
 360 0000 38B5     		push	{r3, r4, r5, lr}
 361 0002 0F4D     		ldr	r5, .L43
 362 0004 2B88     		ldrh	r3, [r5]
 363 0006 9A07     		lsls	r2, r3, #30
 364 0008 13D5     		bpl	.L41
 365              	.L38:
 366 000a 0E4C     		ldr	r4, .L43+4
 367 000c AB6E     		ldr	r3, [r5, #104]
 368 000e 6360     		str	r3, [r4, #4]
 369 0010 FFF7FEFF 		bl	guidance_v_run_enter
 370 0014 2B88     		ldrh	r3, [r5]
 371 0016 9B07     		lsls	r3, r3, #30
 372 0018 0ED5     		bpl	.L42
 373              	.L39:
 374 001a AD6E     		ldr	r5, [r5, #104]
 375 001c 0022     		movs	r2, #0
 376 001e 1146     		mov	r1, r2
 377 0020 2846     		mov	r0, r5
 378 0022 FFF7FEFF 		bl	gv_set_ref
 379 0026 0023     		movs	r3, #0
 380 0028 C4E90353 		strd	r5, r3, [r4, #12]
 381 002c 6361     		str	r3, [r4, #20]
 382 002e A360     		str	r3, [r4, #8]
 383 0030 38BD     		pop	{r3, r4, r5, pc}
 384              	.L41:
 385 0032 FFF7FEFF 		bl	stateCalcPositionNed_i
 386 0036 E8E7     		b	.L38
 387              	.L42:
 388 0038 FFF7FEFF 		bl	stateCalcPositionNed_i
 389 003c EDE7     		b	.L39
 390              	.L44:
 391 003e 00BF     		.align	2
 392              	.L43:
 393 0040 00000000 		.word	state
 394 0044 00000000 		.word	.LANCHOR0
 395              		.size	guidance_v_z_enter, .-guidance_v_z_enter
 396              		.section	.text.guidance_v_set_ref,"ax",%progbits
 397              		.align	1
ARM GAS  /tmp/ccEp0p75.s 			page 8


 398              		.p2align 4,,15
 399              		.global	guidance_v_set_ref
 400              		.syntax unified
 401              		.thumb
 402              		.thumb_func
 403              		.fpu fpv4-sp-d16
 404              		.type	guidance_v_set_ref, %function
 405              	guidance_v_set_ref:
 406              		@ args = 0, pretend = 0, frame = 0
 407              		@ frame_needed = 0, uses_anonymous_args = 0
 408 0000 70B5     		push	{r4, r5, r6, lr}
 409 0002 0646     		mov	r6, r0
 410 0004 0D46     		mov	r5, r1
 411 0006 1446     		mov	r4, r2
 412 0008 FFF7FEFF 		bl	gv_set_ref
 413 000c 024B     		ldr	r3, .L47
 414 000e C3E90365 		strd	r6, r5, [r3, #12]
 415 0012 5C61     		str	r4, [r3, #20]
 416 0014 70BD     		pop	{r4, r5, r6, pc}
 417              	.L48:
 418 0016 00BF     		.align	2
 419              	.L47:
 420 0018 00000000 		.word	.LANCHOR0
 421              		.size	guidance_v_set_ref, .-guidance_v_set_ref
 422              		.section	.text.guidance_v_update_ref,"ax",%progbits
 423              		.align	1
 424              		.p2align 4,,15
 425              		.global	guidance_v_update_ref
 426              		.syntax unified
 427              		.thumb
 428              		.thumb_func
 429              		.fpu fpv4-sp-d16
 430              		.type	guidance_v_update_ref, %function
 431              	guidance_v_update_ref:
 432              		@ args = 0, pretend = 0, frame = 0
 433              		@ frame_needed = 0, uses_anonymous_args = 0
 434              		@ link register save eliminated.
 435 0000 0B4A     		ldr	r2, .L51
 436 0002 0C48     		ldr	r0, .L51+4
 437 0004 0C49     		ldr	r1, .L51+8
 438 0006 0068     		ldr	r0, [r0]
 439 0008 0968     		ldr	r1, [r1]
 440 000a 10B4     		push	{r4}
 441 000c D2E90034 		ldrd	r3, r4, [r2]
 442 0010 0A4A     		ldr	r2, .L51+12
 443 0012 9B0C     		lsrs	r3, r3, #18
 444 0014 43EA8433 		orr	r3, r3, r4, lsl #14
 445 0018 8000     		lsls	r0, r0, #2
 446 001a 094C     		ldr	r4, .L51+16
 447 001c C2E90330 		strd	r3, r0, [r2, #12]
 448 0020 8900     		lsls	r1, r1, #2
 449 0022 0123     		movs	r3, #1
 450 0024 2370     		strb	r3, [r4]
 451 0026 5161     		str	r1, [r2, #20]
 452 0028 5DF8044B 		ldr	r4, [sp], #4
 453 002c 7047     		bx	lr
 454              	.L52:
ARM GAS  /tmp/ccEp0p75.s 			page 9


 455 002e 00BF     		.align	2
 456              	.L51:
 457 0030 00000000 		.word	gv_z_ref
 458 0034 00000000 		.word	gv_zd_ref
 459 0038 00000000 		.word	gv_zdd_ref
 460 003c 00000000 		.word	.LANCHOR0
 461 0040 00000000 		.word	.LANCHOR2
 462              		.size	guidance_v_update_ref, .-guidance_v_update_ref
 463              		.section	.text.guidance_v_guided_enter,"ax",%progbits
 464              		.align	1
 465              		.p2align 4,,15
 466              		.global	guidance_v_guided_enter
 467              		.syntax unified
 468              		.thumb
 469              		.thumb_func
 470              		.fpu fpv4-sp-d16
 471              		.type	guidance_v_guided_enter, %function
 472              	guidance_v_guided_enter:
 473              		@ args = 0, pretend = 0, frame = 0
 474              		@ frame_needed = 0, uses_anonymous_args = 0
 475 0000 70B5     		push	{r4, r5, r6, lr}
 476 0002 174C     		ldr	r4, .L61
 477 0004 2388     		ldrh	r3, [r4]
 478 0006 5906     		lsls	r1, r3, #25
 479 0008 20D5     		bpl	.L58
 480              	.L54:
 481 000a D4ED417A 		vldr.32	s15, [r4, #260]
 482 000e 154A     		ldr	r2, .L61+4
 483 0010 154D     		ldr	r5, .L61+8
 484 0012 FEEECC7A 		vcvt.s32.f32	s15, s15, #8
 485 0016 0023     		movs	r3, #0
 486 0018 1360     		str	r3, [r2]
 487 001a AB60     		str	r3, [r5, #8]
 488 001c C5ED017A 		vstr.32	s15, [r5, #4]	@ int
 489 0020 FFF7FEFF 		bl	guidance_v_run_enter
 490 0024 2388     		ldrh	r3, [r4]
 491 0026 9A07     		lsls	r2, r3, #30
 492 0028 16D5     		bpl	.L59
 493              	.L55:
 494 002a B4F81431 		ldrh	r3, [r4, #276]
 495 002e A66E     		ldr	r6, [r4, #104]
 496 0030 9B07     		lsls	r3, r3, #30
 497 0032 0ED5     		bpl	.L60
 498              	.L56:
 499 0034 D4F82C41 		ldr	r4, [r4, #300]
 500 0038 0022     		movs	r2, #0
 501 003a 2146     		mov	r1, r4
 502 003c 3046     		mov	r0, r6
 503 003e FFF7FEFF 		bl	gv_set_ref
 504 0042 0023     		movs	r3, #0
 505 0044 C5E90364 		strd	r6, r4, [r5, #12]
 506 0048 6B61     		str	r3, [r5, #20]
 507 004a 70BD     		pop	{r4, r5, r6, pc}
 508              	.L58:
 509 004c FFF7FEFF 		bl	stateCalcPositionNed_f
 510 0050 DBE7     		b	.L54
 511              	.L60:
ARM GAS  /tmp/ccEp0p75.s 			page 10


 512 0052 FFF7FEFF 		bl	stateCalcSpeedNed_i
 513 0056 EDE7     		b	.L56
 514              	.L59:
 515 0058 FFF7FEFF 		bl	stateCalcPositionNed_i
 516 005c E5E7     		b	.L55
 517              	.L62:
 518 005e 00BF     		.align	2
 519              	.L61:
 520 0060 00000000 		.word	state
 521 0064 00000000 		.word	.LANCHOR1
 522 0068 00000000 		.word	.LANCHOR0
 523              		.size	guidance_v_guided_enter, .-guidance_v_guided_enter
 524              		.section	.text.guidance_v_mode_changed,"ax",%progbits
 525              		.align	1
 526              		.p2align 4,,15
 527              		.global	guidance_v_mode_changed
 528              		.syntax unified
 529              		.thumb
 530              		.thumb_func
 531              		.fpu fpv4-sp-d16
 532              		.type	guidance_v_mode_changed, %function
 533              	guidance_v_mode_changed:
 534              		@ args = 0, pretend = 0, frame = 0
 535              		@ frame_needed = 0, uses_anonymous_args = 0
 536 0000 F8B5     		push	{r3, r4, r5, r6, r7, lr}
 537 0002 194D     		ldr	r5, .L75
 538 0004 2B78     		ldrb	r3, [r5]	@ zero_extendqisi2
 539 0006 8342     		cmp	r3, r0
 540 0008 22D0     		beq	.L63
 541 000a 831E     		subs	r3, r0, #2
 542 000c 0446     		mov	r4, r0
 543 000e 062B     		cmp	r3, #6
 544 0010 1DD8     		bhi	.L65
 545 0012 DFE803F0 		tbb	[pc, r3]
 546              	.L67:
 547 0016 04       		.byte	(.L69-.L67)/2
 548 0017 04       		.byte	(.L69-.L67)/2
 549 0018 1E       		.byte	(.L66-.L67)/2
 550 0019 06       		.byte	(.L68-.L67)/2
 551 001a 1C       		.byte	(.L65-.L67)/2
 552 001b 1C       		.byte	(.L65-.L67)/2
 553 001c 1E       		.byte	(.L66-.L67)/2
 554 001d 00       		.p2align 1
 555              	.L69:
 556 001e 0023     		movs	r3, #0
 557 0020 AB60     		str	r3, [r5, #8]
 558              	.L68:
 559 0022 124E     		ldr	r6, .L75+4
 560 0024 FFF7FEFF 		bl	guidance_v_run_enter
 561 0028 3388     		ldrh	r3, [r6]
 562 002a 9A07     		lsls	r2, r3, #30
 563 002c 18D5     		bpl	.L73
 564              	.L70:
 565 002e B6F81431 		ldrh	r3, [r6, #276]
 566 0032 B76E     		ldr	r7, [r6, #104]
 567 0034 9B07     		lsls	r3, r3, #30
 568 0036 10D5     		bpl	.L74
ARM GAS  /tmp/ccEp0p75.s 			page 11


 569              	.L71:
 570 0038 D6F82C61 		ldr	r6, [r6, #300]
 571 003c 0022     		movs	r2, #0
 572 003e 3146     		mov	r1, r6
 573 0040 3846     		mov	r0, r7
 574 0042 FFF7FEFF 		bl	gv_set_ref
 575 0046 C5E90376 		strd	r7, r6, [r5, #12]
 576 004a 0023     		movs	r3, #0
 577 004c 6B61     		str	r3, [r5, #20]
 578              	.L65:
 579 004e 2C70     		strb	r4, [r5]
 580              	.L63:
 581 0050 F8BD     		pop	{r3, r4, r5, r6, r7, pc}
 582              	.L66:
 583 0052 FFF7FEFF 		bl	guidance_v_guided_enter
 584 0056 2C70     		strb	r4, [r5]
 585 0058 FAE7     		b	.L63
 586              	.L74:
 587 005a FFF7FEFF 		bl	stateCalcSpeedNed_i
 588 005e EBE7     		b	.L71
 589              	.L73:
 590 0060 FFF7FEFF 		bl	stateCalcPositionNed_i
 591 0064 E3E7     		b	.L70
 592              	.L76:
 593 0066 00BF     		.align	2
 594              	.L75:
 595 0068 00000000 		.word	.LANCHOR0
 596 006c 00000000 		.word	state
 597              		.size	guidance_v_mode_changed, .-guidance_v_mode_changed
 598              		.section	.text.guidance_v_guided_run,"ax",%progbits
 599              		.align	1
 600              		.p2align 4,,15
 601              		.global	guidance_v_guided_run
 602              		.syntax unified
 603              		.thumb
 604              		.thumb_func
 605              		.fpu fpv4-sp-d16
 606              		.type	guidance_v_guided_run, %function
 607              	guidance_v_guided_run:
 608              		@ args = 0, pretend = 0, frame = 8
 609              		@ frame_needed = 0, uses_anonymous_args = 0
 610 0000 70B5     		push	{r4, r5, r6, lr}
 611 0002 334B     		ldr	r3, .L88
 612 0004 1B68     		ldr	r3, [r3]
 613 0006 012B     		cmp	r3, #1
 614 0008 82B0     		sub	sp, sp, #8
 615 000a 0546     		mov	r5, r0
 616 000c 10D0     		beq	.L78
 617 000e 022B     		cmp	r3, #2
 618 0010 4BD0     		beq	.L79
 619 0012 304C     		ldr	r4, .L88+4
 620 0014 002B     		cmp	r3, #0
 621 0016 2CD0     		beq	.L80
 622 0018 606A     		ldr	r0, [r4, #36]
 623              	.L81:
 624 001a 2F4B     		ldr	r3, .L88+8
 625 001c 1B78     		ldrb	r3, [r3]	@ zero_extendqisi2
ARM GAS  /tmp/ccEp0p75.s 			page 12


 626 001e 1BB9     		cbnz	r3, .L84
 627 0020 A369     		ldr	r3, [r4, #24]
 628 0022 9842     		cmp	r0, r3
 629 0024 A8BF     		it	ge
 630 0026 1846     		movge	r0, r3
 631              	.L84:
 632 0028 2C4B     		ldr	r3, .L88+12
 633 002a D860     		str	r0, [r3, #12]
 634 002c 02B0     		add	sp, sp, #8
 635              		@ sp needed
 636 002e 70BD     		pop	{r4, r5, r6, pc}
 637              	.L78:
 638 0030 2B4E     		ldr	r6, .L88+16
 639 0032 284C     		ldr	r4, .L88+4
 640 0034 3388     		ldrh	r3, [r6]
 641 0036 A068     		ldr	r0, [r4, #8]
 642 0038 9A07     		lsls	r2, r3, #30
 643 003a 43D5     		bpl	.L86
 644              	.L82:
 645 003c B16E     		ldr	r1, [r6, #104]
 646 003e FFF7FEFF 		bl	gv_update_ref_from_zd_sp
 647 0042 284A     		ldr	r2, .L88+20
 648 0044 2849     		ldr	r1, .L88+24
 649 0046 D2E90032 		ldrd	r3, r2, [r2]
 650 004a 9B0C     		lsrs	r3, r3, #18
 651 004c 43EA8233 		orr	r3, r3, r2, lsl #14
 652 0050 0968     		ldr	r1, [r1]
 653 0052 264A     		ldr	r2, .L88+28
 654 0054 8900     		lsls	r1, r1, #2
 655 0056 1268     		ldr	r2, [r2]
 656 0058 C4E90331 		strd	r3, r1, [r4, #12]
 657 005c 244B     		ldr	r3, .L88+32
 658 005e 1D49     		ldr	r1, .L88+4
 659 0060 2846     		mov	r0, r5
 660 0062 9200     		lsls	r2, r2, #2
 661 0064 0125     		movs	r5, #1
 662 0066 1D70     		strb	r5, [r3]
 663 0068 6261     		str	r2, [r4, #20]
 664 006a FFF7FEFF 		bl	guidance_v_run_speed
 665 006e 6062     		str	r0, [r4, #36]
 666 0070 D3E7     		b	.L81
 667              	.L80:
 668 0072 6068     		ldr	r0, [r4, #4]
 669 0074 A360     		str	r3, [r4, #8]
 670 0076 FFF7FEFF 		bl	gv_update_ref_from_z_sp
 671 007a 1A4A     		ldr	r2, .L88+20
 672 007c 1A49     		ldr	r1, .L88+24
 673 007e D2E90032 		ldrd	r3, r2, [r2]
 674 0082 0968     		ldr	r1, [r1]
 675 0084 9B0C     		lsrs	r3, r3, #18
 676 0086 43EA8233 		orr	r3, r3, r2, lsl #14
 677 008a 184A     		ldr	r2, .L88+28
 678 008c 8900     		lsls	r1, r1, #2
 679 008e C4E90331 		strd	r3, r1, [r4, #12]
 680 0092 1268     		ldr	r2, [r2]
 681 0094 164B     		ldr	r3, .L88+32
 682 0096 0121     		movs	r1, #1
ARM GAS  /tmp/ccEp0p75.s 			page 13


 683 0098 9200     		lsls	r2, r2, #2
 684 009a 1970     		strb	r1, [r3]
 685 009c 2846     		mov	r0, r5
 686 009e 2146     		mov	r1, r4
 687 00a0 6261     		str	r2, [r4, #20]
 688 00a2 FFF7FEFF 		bl	guidance_v_run_pos
 689 00a6 6062     		str	r0, [r4, #36]
 690 00a8 B7E7     		b	.L81
 691              	.L79:
 692 00aa 0D4E     		ldr	r6, .L88+16
 693 00ac 3388     		ldrh	r3, [r6]
 694 00ae 9B07     		lsls	r3, r3, #30
 695 00b0 05D5     		bpl	.L87
 696              	.L83:
 697 00b2 084C     		ldr	r4, .L88+4
 698 00b4 B36E     		ldr	r3, [r6, #104]
 699 00b6 206A     		ldr	r0, [r4, #32]
 700 00b8 6360     		str	r3, [r4, #4]
 701 00ba 6062     		str	r0, [r4, #36]
 702 00bc ADE7     		b	.L81
 703              	.L87:
 704 00be FFF7FEFF 		bl	stateCalcPositionNed_i
 705 00c2 F6E7     		b	.L83
 706              	.L86:
 707 00c4 0190     		str	r0, [sp, #4]
 708 00c6 FFF7FEFF 		bl	stateCalcPositionNed_i
 709 00ca 0198     		ldr	r0, [sp, #4]
 710 00cc B6E7     		b	.L82
 711              	.L89:
 712 00ce 00BF     		.align	2
 713              	.L88:
 714 00d0 00000000 		.word	.LANCHOR1
 715 00d4 00000000 		.word	.LANCHOR0
 716 00d8 00000000 		.word	radio_control
 717 00dc 00000000 		.word	stabilization_cmd
 718 00e0 00000000 		.word	state
 719 00e4 00000000 		.word	gv_z_ref
 720 00e8 00000000 		.word	gv_zd_ref
 721 00ec 00000000 		.word	gv_zdd_ref
 722 00f0 00000000 		.word	.LANCHOR2
 723              		.size	guidance_v_guided_run, .-guidance_v_guided_run
 724              		.section	.text.guidance_v_from_nav,"ax",%progbits
 725              		.align	1
 726              		.p2align 4,,15
 727              		.global	guidance_v_from_nav
 728              		.syntax unified
 729              		.thumb
 730              		.thumb_func
 731              		.fpu fpv4-sp-d16
 732              		.type	guidance_v_from_nav, %function
 733              	guidance_v_from_nav:
 734              		@ args = 0, pretend = 0, frame = 0
 735              		@ frame_needed = 0, uses_anonymous_args = 0
 736 0000 F8B5     		push	{r3, r4, r5, r6, r7, lr}
 737 0002 544E     		ldr	r6, .L110
 738 0004 7378     		ldrb	r3, [r6, #1]	@ zero_extendqisi2
 739 0006 022B     		cmp	r3, #2
ARM GAS  /tmp/ccEp0p75.s 			page 14


 740 0008 0546     		mov	r5, r0
 741 000a 2DD0     		beq	.L104
 742 000c 012B     		cmp	r3, #1
 743 000e 5AD0     		beq	.L105
 744 0010 73B1     		cbz	r3, .L106
 745 0012 032B     		cmp	r3, #3
 746 0014 504C     		ldr	r4, .L110+4
 747 0016 00F08380 		beq	.L99
 748              	.L103:
 749 001a 606A     		ldr	r0, [r4, #36]
 750              	.L92:
 751 001c 4F4B     		ldr	r3, .L110+8
 752 001e 1B78     		ldrb	r3, [r3]	@ zero_extendqisi2
 753 0020 1BB9     		cbnz	r3, .L100
 754 0022 A369     		ldr	r3, [r4, #24]
 755 0024 9842     		cmp	r0, r3
 756 0026 A8BF     		it	ge
 757 0028 1846     		movge	r0, r3
 758              	.L100:
 759 002a 4D4B     		ldr	r3, .L110+12
 760 002c D860     		str	r0, [r3, #12]
 761 002e F8BD     		pop	{r3, r4, r5, r6, r7, pc}
 762              	.L106:
 763 0030 4C4D     		ldr	r5, .L110+16
 764 0032 2B88     		ldrh	r3, [r5]
 765 0034 9A07     		lsls	r2, r3, #30
 766 0036 43D5     		bpl	.L107
 767              	.L97:
 768 0038 B5F81431 		ldrh	r3, [r5, #276]
 769 003c 464C     		ldr	r4, .L110+4
 770 003e AF6E     		ldr	r7, [r5, #104]
 771 0040 6760     		str	r7, [r4, #4]
 772 0042 9B07     		lsls	r3, r3, #30
 773 0044 38D5     		bpl	.L108
 774              	.L98:
 775 0046 D5F82C51 		ldr	r5, [r5, #300]
 776 004a A560     		str	r5, [r4, #8]
 777 004c 3846     		mov	r0, r7
 778 004e 0022     		movs	r2, #0
 779 0050 2946     		mov	r1, r5
 780 0052 FFF7FEFF 		bl	gv_set_ref
 781 0056 0023     		movs	r3, #0
 782 0058 C4E90375 		strd	r7, r5, [r4, #12]
 783 005c 6361     		str	r3, [r4, #20]
 784 005e FFF7FEFF 		bl	guidance_v_run_enter
 785 0062 706B     		ldr	r0, [r6, #52]
 786 0064 6062     		str	r0, [r4, #36]
 787 0066 D9E7     		b	.L92
 788              	.L104:
 789 0068 96ED1B7A 		vldr.32	s14, [r6, #108]
 790 006c DFED3E7A 		vldr.32	s15, .L110+20
 791 0070 394C     		ldr	r4, .L110+4
 792 0072 67EEC77A 		vnmul.f32	s15, s15, s14
 793 0076 0023     		movs	r3, #0
 794 0078 FDEEE77A 		vcvt.s32.f32	s15, s15
 795 007c 17EE900A 		vmov	r0, s15	@ int
 796 0080 C4E90103 		strd	r0, r3, [r4, #4]
ARM GAS  /tmp/ccEp0p75.s 			page 15


 797 0084 FFF7FEFF 		bl	gv_update_ref_from_z_sp
 798 0088 384A     		ldr	r2, .L110+24
 799 008a 3949     		ldr	r1, .L110+28
 800 008c D2E90032 		ldrd	r3, r2, [r2]
 801 0090 0968     		ldr	r1, [r1]
 802 0092 9B0C     		lsrs	r3, r3, #18
 803 0094 43EA8233 		orr	r3, r3, r2, lsl #14
 804 0098 364A     		ldr	r2, .L110+32
 805 009a 8900     		lsls	r1, r1, #2
 806 009c C4E90331 		strd	r3, r1, [r4, #12]
 807 00a0 1268     		ldr	r2, [r2]
 808 00a2 354B     		ldr	r3, .L110+36
 809 00a4 0121     		movs	r1, #1
 810 00a6 9200     		lsls	r2, r2, #2
 811 00a8 1970     		strb	r1, [r3]
 812 00aa 2846     		mov	r0, r5
 813 00ac 2146     		mov	r1, r4
 814 00ae 6261     		str	r2, [r4, #20]
 815 00b0 FFF7FEFF 		bl	guidance_v_run_pos
 816 00b4 6062     		str	r0, [r4, #36]
 817 00b6 B1E7     		b	.L92
 818              	.L108:
 819 00b8 FFF7FEFF 		bl	stateCalcSpeedNed_i
 820 00bc 6768     		ldr	r7, [r4, #4]
 821 00be C2E7     		b	.L98
 822              	.L107:
 823 00c0 FFF7FEFF 		bl	stateCalcPositionNed_i
 824 00c4 B8E7     		b	.L97
 825              	.L105:
 826 00c6 274F     		ldr	r7, .L110+16
 827 00c8 3B88     		ldrh	r3, [r7]
 828 00ca 9C07     		lsls	r4, r3, #30
 829 00cc 2BD5     		bpl	.L109
 830 00ce 96ED197A 		vldr.32	s14, [r6, #100]
 831 00d2 DFED2A7A 		vldr.32	s15, .L110+40
 832 00d6 204C     		ldr	r4, .L110+4
 833 00d8 B96E     		ldr	r1, [r7, #104]
 834 00da 67EEC77A 		vnmul.f32	s15, s15, s14
 835 00de FDEEE77A 		vcvt.s32.f32	s15, s15
 836 00e2 17EE906A 		vmov	r6, s15	@ int
 837 00e6 C4E90116 		strd	r1, r6, [r4, #4]
 838              	.L95:
 839 00ea 3046     		mov	r0, r6
 840 00ec FFF7FEFF 		bl	gv_update_ref_from_zd_sp
 841 00f0 1E4A     		ldr	r2, .L110+24
 842 00f2 1F49     		ldr	r1, .L110+28
 843 00f4 D2E90032 		ldrd	r3, r2, [r2]
 844 00f8 9B0C     		lsrs	r3, r3, #18
 845 00fa 43EA8233 		orr	r3, r3, r2, lsl #14
 846 00fe 0968     		ldr	r1, [r1]
 847 0100 1C4A     		ldr	r2, .L110+32
 848 0102 8900     		lsls	r1, r1, #2
 849 0104 1268     		ldr	r2, [r2]
 850 0106 C4E90331 		strd	r3, r1, [r4, #12]
 851 010a 1B4B     		ldr	r3, .L110+36
 852 010c 1249     		ldr	r1, .L110+4
 853 010e 2846     		mov	r0, r5
ARM GAS  /tmp/ccEp0p75.s 			page 16


 854 0110 9200     		lsls	r2, r2, #2
 855 0112 0125     		movs	r5, #1
 856 0114 1D70     		strb	r5, [r3]
 857 0116 6261     		str	r2, [r4, #20]
 858 0118 FFF7FEFF 		bl	guidance_v_run_speed
 859 011c 6062     		str	r0, [r4, #36]
 860 011e 7DE7     		b	.L92
 861              	.L99:
 862 0120 FFF7FEFF 		bl	guidance_v_guided_run
 863 0124 79E7     		b	.L103
 864              	.L109:
 865 0126 FFF7FEFF 		bl	stateCalcPositionNed_i
 866 012a 96ED197A 		vldr.32	s14, [r6, #100]
 867 012e DFED137A 		vldr.32	s15, .L110+40
 868 0132 3B88     		ldrh	r3, [r7]
 869 0134 084C     		ldr	r4, .L110+4
 870 0136 B96E     		ldr	r1, [r7, #104]
 871 0138 67EEC77A 		vnmul.f32	s15, s15, s14
 872 013c 9807     		lsls	r0, r3, #30
 873 013e FDEEE77A 		vcvt.s32.f32	s15, s15
 874 0142 17EE906A 		vmov	r6, s15	@ int
 875 0146 C4E90116 		strd	r1, r6, [r4, #4]
 876 014a CED4     		bmi	.L95
 877 014c FFF7FEFF 		bl	stateCalcPositionNed_i
 878 0150 B96E     		ldr	r1, [r7, #104]
 879 0152 CAE7     		b	.L95
 880              	.L111:
 881              		.align	2
 882              	.L110:
 883 0154 00000000 		.word	nav
 884 0158 00000000 		.word	.LANCHOR0
 885 015c 00000000 		.word	radio_control
 886 0160 00000000 		.word	stabilization_cmd
 887 0164 00000000 		.word	state
 888 0168 00008043 		.word	1132462080
 889 016c 00000000 		.word	gv_z_ref
 890 0170 00000000 		.word	gv_zd_ref
 891 0174 00000000 		.word	gv_zdd_ref
 892 0178 00000000 		.word	.LANCHOR2
 893 017c 00000049 		.word	1224736768
 894              		.size	guidance_v_from_nav, .-guidance_v_from_nav
 895              		.section	.text.guidance_v_run,"ax",%progbits
 896              		.align	1
 897              		.p2align 4,,15
 898              		.global	guidance_v_run
 899              		.syntax unified
 900              		.thumb
 901              		.thumb_func
 902              		.fpu fpv4-sp-d16
 903              		.type	guidance_v_run, %function
 904              	guidance_v_run:
 905              		@ args = 0, pretend = 0, frame = 8
 906              		@ frame_needed = 0, uses_anonymous_args = 0
 907 0000 F0B5     		push	{r4, r5, r6, r7, lr}
 908 0002 324D     		ldr	r5, .L129
 909 0004 83B0     		sub	sp, sp, #12
 910 0006 0446     		mov	r4, r0
ARM GAS  /tmp/ccEp0p75.s 			page 17


 911 0008 FFF7FEFF 		bl	guidance_v_thrust_adapt
 912 000c 2B78     		ldrb	r3, [r5]	@ zero_extendqisi2
 913 000e 304A     		ldr	r2, .L129+4
 914 0010 0021     		movs	r1, #0
 915 0012 013B     		subs	r3, r3, #1
 916 0014 1170     		strb	r1, [r2]
 917 0016 072B     		cmp	r3, #7
 918 0018 16D8     		bhi	.L112
 919 001a DFE803F0 		tbb	[pc, r3]
 920              	.L115:
 921 001e 26       		.byte	(.L120-.L115)/2
 922 001f 04       		.byte	(.L119-.L115)/2
 923 0020 31       		.byte	(.L118-.L115)/2
 924 0021 17       		.byte	(.L117-.L115)/2
 925 0022 20       		.byte	(.L116-.L115)/2
 926 0023 15       		.byte	(.L112-.L115)/2
 927 0024 15       		.byte	(.L112-.L115)/2
 928 0025 1A       		.byte	(.L114-.L115)/2
 929              		.p2align 1
 930              	.L119:
 931 0026 2B4E     		ldr	r6, .L129+8
 932 0028 EF69     		ldr	r7, [r5, #28]
 933 002a 3388     		ldrh	r3, [r6]
 934 002c AF60     		str	r7, [r5, #8]
 935 002e 9A07     		lsls	r2, r3, #30
 936 0030 48D5     		bpl	.L126
 937              	.L122:
 938 0032 B16E     		ldr	r1, [r6, #104]
 939 0034 3846     		mov	r0, r7
 940 0036 FFF7FEFF 		bl	gv_update_ref_from_zd_sp
 941 003a 2449     		ldr	r1, .L129
 942 003c 2046     		mov	r0, r4
 943 003e FFF7FEFF 		bl	guidance_v_run_speed
 944 0042 254B     		ldr	r3, .L129+12
 945 0044 6862     		str	r0, [r5, #36]
 946 0046 D860     		str	r0, [r3, #12]
 947              	.L112:
 948 0048 03B0     		add	sp, sp, #12
 949              		@ sp needed
 950 004a F0BD     		pop	{r4, r5, r6, r7, pc}
 951              	.L117:
 952 004c 234B     		ldr	r3, .L129+16
 953 004e 0022     		movs	r2, #0
 954 0050 1A60     		str	r2, [r3]
 955              	.L114:
 956 0052 2046     		mov	r0, r4
 957 0054 03B0     		add	sp, sp, #12
 958              		@ sp needed
 959 0056 BDE8F040 		pop	{r4, r5, r6, r7, lr}
 960 005a FFF7FEBF 		b	guidance_v_guided_run
 961              	.L116:
 962 005e 2046     		mov	r0, r4
 963 0060 03B0     		add	sp, sp, #12
 964              		@ sp needed
 965 0062 BDE8F040 		pop	{r4, r5, r6, r7, lr}
 966 0066 FFF7FEBF 		b	guidance_v_from_nav
 967              	.L120:
ARM GAS  /tmp/ccEp0p75.s 			page 18


 968 006a 1A4E     		ldr	r6, .L129+8
 969 006c 3388     		ldrh	r3, [r6]
 970 006e 9907     		lsls	r1, r3, #30
 971 0070 20D5     		bpl	.L127
 972              	.L121:
 973 0072 194B     		ldr	r3, .L129+12
 974 0074 B16E     		ldr	r1, [r6, #104]
 975 0076 AA69     		ldr	r2, [r5, #24]
 976 0078 6960     		str	r1, [r5, #4]
 977 007a DA60     		str	r2, [r3, #12]
 978 007c 03B0     		add	sp, sp, #12
 979              		@ sp needed
 980 007e F0BD     		pop	{r4, r5, r6, r7, pc}
 981              	.L118:
 982 0080 144E     		ldr	r6, .L129+8
 983 0082 A868     		ldr	r0, [r5, #8]
 984 0084 3388     		ldrh	r3, [r6]
 985 0086 9B07     		lsls	r3, r3, #30
 986 0088 17D5     		bpl	.L128
 987              	.L123:
 988 008a B16E     		ldr	r1, [r6, #104]
 989 008c FFF7FEFF 		bl	gv_update_ref_from_zd_sp
 990 0090 0E49     		ldr	r1, .L129
 991 0092 2046     		mov	r0, r4
 992 0094 FFF7FEFF 		bl	guidance_v_run_speed
 993 0098 114B     		ldr	r3, .L129+20
 994 009a 6862     		str	r0, [r5, #36]
 995 009c 1B78     		ldrb	r3, [r3]	@ zero_extendqisi2
 996 009e 33B9     		cbnz	r3, .L124
 997 00a0 AB69     		ldr	r3, [r5, #24]
 998 00a2 0D4A     		ldr	r2, .L129+12
 999 00a4 9842     		cmp	r0, r3
 1000 00a6 A8BF     		it	ge
 1001 00a8 1846     		movge	r0, r3
 1002 00aa D060     		str	r0, [r2, #12]
 1003 00ac CCE7     		b	.L112
 1004              	.L124:
 1005 00ae 0A4B     		ldr	r3, .L129+12
 1006 00b0 D860     		str	r0, [r3, #12]
 1007 00b2 C9E7     		b	.L112
 1008              	.L127:
 1009 00b4 FFF7FEFF 		bl	stateCalcPositionNed_i
 1010 00b8 DBE7     		b	.L121
 1011              	.L128:
 1012 00ba 0190     		str	r0, [sp, #4]
 1013 00bc FFF7FEFF 		bl	stateCalcPositionNed_i
 1014 00c0 0198     		ldr	r0, [sp, #4]
 1015 00c2 E2E7     		b	.L123
 1016              	.L126:
 1017 00c4 FFF7FEFF 		bl	stateCalcPositionNed_i
 1018 00c8 B3E7     		b	.L122
 1019              	.L130:
 1020 00ca 00BF     		.align	2
 1021              	.L129:
 1022 00cc 00000000 		.word	.LANCHOR0
 1023 00d0 00000000 		.word	.LANCHOR2
 1024 00d4 00000000 		.word	state
ARM GAS  /tmp/ccEp0p75.s 			page 19


 1025 00d8 00000000 		.word	stabilization_cmd
 1026 00dc 00000000 		.word	.LANCHOR1
 1027 00e0 00000000 		.word	radio_control
 1028              		.size	guidance_v_run, .-guidance_v_run
 1029              		.section	.text.guidance_v_set_z,"ax",%progbits
 1030              		.align	1
 1031              		.p2align 4,,15
 1032              		.global	guidance_v_set_z
 1033              		.syntax unified
 1034              		.thumb
 1035              		.thumb_func
 1036              		.fpu fpv4-sp-d16
 1037              		.type	guidance_v_set_z, %function
 1038              	guidance_v_set_z:
 1039              		@ args = 0, pretend = 0, frame = 0
 1040              		@ frame_needed = 0, uses_anonymous_args = 0
 1041              		@ link register save eliminated.
 1042 0000 07EE900A 		vmov	s15, r0
 1043 0004 FEEECC7A 		vcvt.s32.f32	s15, s15, #8
 1044 0008 044B     		ldr	r3, .L132
 1045 000a 0549     		ldr	r1, .L132+4
 1046 000c 17EE900A 		vmov	r0, s15	@ int
 1047 0010 0022     		movs	r2, #0
 1048 0012 C3E90102 		strd	r0, r2, [r3, #4]
 1049 0016 0A60     		str	r2, [r1]
 1050 0018 7047     		bx	lr
 1051              	.L133:
 1052 001a 00BF     		.align	2
 1053              	.L132:
 1054 001c 00000000 		.word	.LANCHOR0
 1055 0020 00000000 		.word	.LANCHOR1
 1056              		.size	guidance_v_set_z, .-guidance_v_set_z
 1057              		.section	.text.guidance_v_set_vz,"ax",%progbits
 1058              		.align	1
 1059              		.p2align 4,,15
 1060              		.global	guidance_v_set_vz
 1061              		.syntax unified
 1062              		.thumb
 1063              		.thumb_func
 1064              		.fpu fpv4-sp-d16
 1065              		.type	guidance_v_set_vz, %function
 1066              	guidance_v_set_vz:
 1067              		@ args = 0, pretend = 0, frame = 0
 1068              		@ frame_needed = 0, uses_anonymous_args = 0
 1069              		@ link register save eliminated.
 1070 0000 07EE900A 		vmov	s15, r0
 1071 0004 044A     		ldr	r2, .L135
 1072 0006 054B     		ldr	r3, .L135+4
 1073 0008 FEEEE67A 		vcvt.s32.f32	s15, s15, #19
 1074 000c 0121     		movs	r1, #1
 1075 000e 1160     		str	r1, [r2]
 1076 0010 C3ED027A 		vstr.32	s15, [r3, #8]	@ int
 1077 0014 7047     		bx	lr
 1078              	.L136:
 1079 0016 00BF     		.align	2
 1080              	.L135:
 1081 0018 00000000 		.word	.LANCHOR1
ARM GAS  /tmp/ccEp0p75.s 			page 20


 1082 001c 00000000 		.word	.LANCHOR0
 1083              		.size	guidance_v_set_vz, .-guidance_v_set_vz
 1084              		.section	.text.guidance_v_set_th,"ax",%progbits
 1085              		.align	1
 1086              		.p2align 4,,15
 1087              		.global	guidance_v_set_th
 1088              		.syntax unified
 1089              		.thumb
 1090              		.thumb_func
 1091              		.fpu fpv4-sp-d16
 1092              		.type	guidance_v_set_th, %function
 1093              	guidance_v_set_th:
 1094              		@ args = 0, pretend = 0, frame = 0
 1095              		@ frame_needed = 0, uses_anonymous_args = 0
 1096 0000 38B5     		push	{r3, r4, r5, lr}
 1097 0002 1C4C     		ldr	r4, .L148
 1098 0004 1C4A     		ldr	r2, .L148+4
 1099 0006 2388     		ldrh	r3, [r4]
 1100 0008 0221     		movs	r1, #2
 1101 000a 2DED028B 		vpush.64	{d8}
 1102 000e 1160     		str	r1, [r2]
 1103 0010 9A07     		lsls	r2, r3, #30
 1104 0012 08EE100A 		vmov	s16, r0
 1105 0016 2AD5     		bpl	.L145
 1106              	.L138:
 1107 0018 B4F81431 		ldrh	r3, [r4, #276]
 1108 001c A56E     		ldr	r5, [r4, #104]
 1109 001e 9B07     		lsls	r3, r3, #30
 1110 0020 22D5     		bpl	.L146
 1111              	.L139:
 1112 0022 D4F82C41 		ldr	r4, [r4, #300]
 1113 0026 0022     		movs	r2, #0
 1114 0028 2146     		mov	r1, r4
 1115 002a 2846     		mov	r0, r5
 1116 002c FFF7FEFF 		bl	gv_set_ref
 1117 0030 DFED127A 		vldr.32	s15, .L148+8
 1118 0034 124A     		ldr	r2, .L148+12
 1119 0036 28EE278A 		vmul.f32	s16, s16, s15
 1120 003a 0021     		movs	r1, #0
 1121 003c FDEEC87A 		vcvt.s32.f32	s15, s16
 1122 0040 C2E90354 		strd	r5, r4, [r2, #12]
 1123 0044 17EE903A 		vmov	r3, s15	@ int
 1124 0048 8B42     		cmp	r3, r1
 1125 004a 5161     		str	r1, [r2, #20]
 1126 004c 08DD     		ble	.L147
 1127 004e BDEC028B 		vldm	sp!, {d8}
 1128 0052 B3F5165F 		cmp	r3, #9600
 1129 0056 A8BF     		it	ge
 1130 0058 4FF41653 		movge	r3, #9600
 1131 005c 1362     		str	r3, [r2, #32]
 1132 005e 38BD     		pop	{r3, r4, r5, pc}
 1133              	.L147:
 1134 0060 BDEC028B 		vldm	sp!, {d8}
 1135 0064 1162     		str	r1, [r2, #32]
 1136 0066 38BD     		pop	{r3, r4, r5, pc}
 1137              	.L146:
 1138 0068 FFF7FEFF 		bl	stateCalcSpeedNed_i
ARM GAS  /tmp/ccEp0p75.s 			page 21


 1139 006c D9E7     		b	.L139
 1140              	.L145:
 1141 006e FFF7FEFF 		bl	stateCalcPositionNed_i
 1142 0072 D1E7     		b	.L138
 1143              	.L149:
 1144              		.align	2
 1145              	.L148:
 1146 0074 00000000 		.word	state
 1147 0078 00000000 		.word	.LANCHOR1
 1148 007c 00001646 		.word	1175846912
 1149 0080 00000000 		.word	.LANCHOR0
 1150              		.size	guidance_v_set_th, .-guidance_v_set_th
 1151              		.global	guidance_v
 1152              		.section	.bss.desired_zd_updated,"aw",%nobits
 1153              		.set	.LANCHOR2,. + 0
 1154              		.type	desired_zd_updated, %object
 1155              		.size	desired_zd_updated, 1
 1156              	desired_zd_updated:
 1157 0000 00       		.space	1
 1158              		.section	.bss.guidance_v,"aw",%nobits
 1159              		.align	2
 1160              		.set	.LANCHOR0,. + 0
 1161              		.type	guidance_v, %object
 1162              		.size	guidance_v, 48
 1163              	guidance_v:
 1164 0000 00000000 		.space	48
 1164      00000000 
 1164      00000000 
 1164      00000000 
 1164      00000000 
 1165              		.section	.bss.guidance_v_guided_mode,"aw",%nobits
 1166              		.align	2
 1167              		.set	.LANCHOR1,. + 0
 1168              		.type	guidance_v_guided_mode, %object
 1169              		.size	guidance_v_guided_mode, 4
 1170              	guidance_v_guided_mode:
 1171 0000 00000000 		.space	4
 1172              		.ident	"GCC: (15:10.3-2021.07-4) 10.3.1 20210621 (release)"
ARM GAS  /tmp/ccEp0p75.s 			page 22

