ARM GAS  /tmp/ccD2eUgL.s 			page 1


   1              		.cpu cortex-m4
   2              		.eabi_attribute 27, 1
   3              		.eabi_attribute 20, 1
   4              		.eabi_attribute 21, 1
   5              		.eabi_attribute 23, 3
   6              		.eabi_attribute 24, 1
   7              		.eabi_attribute 25, 1
   8              		.eabi_attribute 26, 1
   9              		.eabi_attribute 30, 2
  10              		.eabi_attribute 34, 1
  11              		.eabi_attribute 18, 4
  12              		.file	"guidance_flip.c"
  13              		.text
  14              		.section	.text.guidance_flip_enter,"ax",%progbits
  15              		.align	1
  16              		.p2align 4,,15
  17              		.global	guidance_flip_enter
  18              		.arch armv7e-m
  19              		.syntax unified
  20              		.thumb
  21              		.thumb_func
  22              		.fpu fpv4-sp-d16
  23              		.type	guidance_flip_enter, %function
  24              	guidance_flip_enter:
  25              		@ args = 0, pretend = 0, frame = 0
  26              		@ frame_needed = 0, uses_anonymous_args = 0
  27 0000 0849     		ldr	r1, .L4
  28 0002 094A     		ldr	r2, .L4+4
  29 0004 0948     		ldr	r0, .L4+8
  30 0006 08B5     		push	{r3, lr}
  31 0008 0023     		movs	r3, #0
  32 000a 0B70     		strb	r3, [r1]
  33 000c 1370     		strb	r3, [r2]
  34 000e 0360     		str	r3, [r0]
  35 0010 FFF7FEFF 		bl	stabilization_attitude_get_heading_i
  36 0014 064B     		ldr	r3, .L4+12
  37 0016 1860     		str	r0, [r3]
  38 0018 FFF7FEFF 		bl	autopilot_get_mode
  39 001c 054B     		ldr	r3, .L4+16
  40 001e 1870     		strb	r0, [r3]
  41 0020 08BD     		pop	{r3, pc}
  42              	.L5:
  43 0022 00BF     		.align	2
  44              	.L4:
  45 0024 00000000 		.word	.LANCHOR1
  46 0028 00000000 		.word	.LANCHOR2
  47 002c 00000000 		.word	.LANCHOR0
  48 0030 00000000 		.word	.LANCHOR3
  49 0034 00000000 		.word	.LANCHOR4
  50              		.size	guidance_flip_enter, .-guidance_flip_enter
  51              		.section	.text.guidance_flip_run,"ax",%progbits
  52              		.align	1
  53              		.p2align 4,,15
  54              		.global	guidance_flip_run
  55              		.syntax unified
  56              		.thumb
  57              		.thumb_func
ARM GAS  /tmp/ccD2eUgL.s 			page 2


  58              		.fpu fpv4-sp-d16
  59              		.type	guidance_flip_run, %function
  60              	guidance_flip_run:
  61              		@ args = 0, pretend = 0, frame = 0
  62              		@ frame_needed = 0, uses_anonymous_args = 0
  63 0000 2DE9F041 		push	{r4, r5, r6, r7, r8, lr}
  64 0004 4D4F     		ldr	r7, .L20
  65 0006 4E4D     		ldr	r5, .L20+4
  66 0008 3B68     		ldr	r3, [r7]
  67 000a 4E4A     		ldr	r2, .L20+8
  68 000c 1E03     		lsls	r6, r3, #12
  69 000e 0133     		adds	r3, r3, #1
  70 0010 3B60     		str	r3, [r7]
  71 0012 95F8B031 		ldrb	r3, [r5, #432]	@ zero_extendqisi2
  72 0016 A2FB0612 		umull	r1, r2, r2, r6
  73 001a 9B07     		lsls	r3, r3, #30
  74 001c 4FEA9214 		lsr	r4, r2, #6
  75 0020 6CD5     		bpl	.L19
  76              	.L7:
  77 0022 DFF84881 		ldr	r8, .L20+48
  78 0026 D5F8C421 		ldr	r2, [r5, #452]
  79 002a 98F80030 		ldrb	r3, [r8]	@ zero_extendqisi2
  80 002e 032B     		cmp	r3, #3
  81 0030 69D8     		bhi	.L8
  82 0032 DFE803F0 		tbb	[pc, r3]
  83              	.L10:
  84 0036 48       		.byte	(.L13-.L10)/2
  85 0037 35       		.byte	(.L12-.L10)/2
  86 0038 1F       		.byte	(.L11-.L10)/2
  87 0039 02       		.byte	(.L9-.L10)/2
  88              		.p2align 1
  89              	.L9:
  90 003a 434A     		ldr	r2, .L20+12
  91 003c 4348     		ldr	r0, .L20+16
  92 003e 1168     		ldr	r1, [r2]
  93 0040 0023     		movs	r3, #0
  94 0042 C0E90033 		strd	r3, r3, [r0]
  95 0046 FFF7FEFF 		bl	stabilization_attitude_set_earth_cmd_i
  96 004a FFF7FEFF 		bl	autopilot_in_flight
  97 004e FFF7FEFF 		bl	stabilization_attitude_run
  98 0052 3F4A     		ldr	r2, .L20+20
  99 0054 3F4B     		ldr	r3, .L20+24
 100 0056 1268     		ldr	r2, [r2]
 101 0058 A21A     		subs	r2, r4, r2
 102 005a 41F27071 		movw	r1, #6000
 103 005e B2F5006F 		cmp	r2, #2048
 104 0062 D960     		str	r1, [r3, #12]
 105 0064 04D9     		bls	.L6
 106 0066 98F80030 		ldrb	r3, [r8]	@ zero_extendqisi2
 107 006a 0133     		adds	r3, r3, #1
 108 006c 88F80030 		strb	r3, [r8]
 109              	.L6:
 110 0070 BDE8F081 		pop	{r4, r5, r6, r7, r8, pc}
 111              	.L11:
 112 0074 374B     		ldr	r3, .L20+24
 113 0076 0021     		movs	r1, #0
 114 0078 C3E90011 		strd	r1, r1, [r3]
ARM GAS  /tmp/ccD2eUgL.s 			page 3


 115 007c 9960     		str	r1, [r3, #8]
 116 007e 02F5F552 		add	r2, r2, #7840
 117 0082 4FF47A71 		mov	r1, #1000
 118 0086 1732     		adds	r2, r2, #23
 119 0088 D960     		str	r1, [r3, #12]
 120 008a 42F2B253 		movw	r3, #9650
 121 008e 9A42     		cmp	r2, r3
 122 0090 EED8     		bhi	.L6
 123 0092 2F4A     		ldr	r2, .L20+20
 124 0094 0323     		movs	r3, #3
 125 0096 1460     		str	r4, [r2]
 126 0098 88F80030 		strb	r3, [r8]
 127 009c BDE8F081 		pop	{r4, r5, r6, r7, r8, pc}
 128              	.L12:
 129 00a0 2C4B     		ldr	r3, .L20+24
 130 00a2 42F22830 		movw	r0, #9000
 131 00a6 1860     		str	r0, [r3]
 132 00a8 0021     		movs	r1, #0
 133 00aa 4FF47A70 		mov	r0, #1000
 134 00ae C3E90111 		strd	r1, r1, [r3, #4]
 135 00b2 D860     		str	r0, [r3, #12]
 136 00b4 40F2FB63 		movw	r3, #1787
 137 00b8 9A42     		cmp	r2, r3
 138 00ba D9DD     		ble	.L6
 139 00bc 0223     		movs	r3, #2
 140 00be 88F80030 		strb	r3, [r8]
 141 00c2 BDE8F081 		pop	{r4, r5, r6, r7, r8, pc}
 142              	.L13:
 143 00c6 204B     		ldr	r3, .L20+12
 144 00c8 2048     		ldr	r0, .L20+16
 145 00ca 1968     		ldr	r1, [r3]
 146 00cc 0024     		movs	r4, #0
 147 00ce C0E90044 		strd	r4, r4, [r0]
 148 00d2 FFF7FEFF 		bl	stabilization_attitude_set_earth_cmd_i
 149 00d6 FFF7FEFF 		bl	autopilot_in_flight
 150 00da FFF7FEFF 		bl	stabilization_attitude_run
 151 00de 1D4B     		ldr	r3, .L20+24
 152 00e0 4FF4FA52 		mov	r2, #8000
 153 00e4 DA60     		str	r2, [r3, #12]
 154 00e6 1C4B     		ldr	r3, .L20+28
 155 00e8 194A     		ldr	r2, .L20+20
 156 00ea 9E42     		cmp	r6, r3
 157 00ec 1460     		str	r4, [r2]
 158 00ee BFD9     		bls	.L6
 159 00f0 98F80030 		ldrb	r3, [r8]	@ zero_extendqisi2
 160 00f4 0133     		adds	r3, r3, #1
 161 00f6 88F80030 		strb	r3, [r8]
 162 00fa B9E7     		b	.L6
 163              	.L19:
 164 00fc 05F5D870 		add	r0, r5, #432
 165 0100 FFF7FEFF 		bl	orientationCalcEulers_i
 166 0104 8DE7     		b	.L7
 167              	.L8:
 168 0106 154A     		ldr	r2, .L20+32
 169 0108 154B     		ldr	r3, .L20+36
 170 010a 1078     		ldrb	r0, [r2]	@ zero_extendqisi2
 171 010c 1870     		strb	r0, [r3]
ARM GAS  /tmp/ccD2eUgL.s 			page 4


 172 010e FFF7FEFF 		bl	autopilot_set_mode
 173 0112 0D49     		ldr	r1, .L20+12
 174 0114 134B     		ldr	r3, .L20+40
 175 0116 0968     		ldr	r1, [r1]
 176 0118 9960     		str	r1, [r3, #8]
 177 011a 1349     		ldr	r1, .L20+44
 178 011c 0D4A     		ldr	r2, .L20+24
 179 011e 0023     		movs	r3, #0
 180 0120 0B70     		strb	r3, [r1]
 181 0122 0B49     		ldr	r1, .L20+20
 182 0124 3B60     		str	r3, [r7]
 183 0126 0B60     		str	r3, [r1]
 184 0128 4FF4FA51 		mov	r1, #8000
 185 012c C2E90033 		strd	r3, r3, [r2]
 186 0130 C2E90231 		strd	r3, r1, [r2, #8]
 187 0134 88F80030 		strb	r3, [r8]
 188 0138 9AE7     		b	.L6
 189              	.L21:
 190 013a 00BF     		.align	2
 191              	.L20:
 192 013c 00000000 		.word	.LANCHOR0
 193 0140 00000000 		.word	state
 194 0144 D34D6210 		.word	274877907
 195 0148 00000000 		.word	.LANCHOR3
 196 014c 00000000 		.word	.LANCHOR5
 197 0150 00000000 		.word	.LANCHOR6
 198 0154 00000000 		.word	stabilization_cmd
 199 0158 C7C01200 		.word	1228999
 200 015c 00000000 		.word	.LANCHOR4
 201 0160 00000000 		.word	autopilot_mode_auto2
 202 0164 00000000 		.word	stab_att_sp_euler
 203 0168 00000000 		.word	.LANCHOR2
 204 016c 00000000 		.word	.LANCHOR1
 205              		.size	guidance_flip_run, .-guidance_flip_run
 206              		.global	flip_cmd_earth
 207              		.global	autopilot_mode_old
 208              		.global	heading_save
 209              		.global	flip_rollout
 210              		.global	flip_state
 211              		.global	flip_counter
 212              		.section	.bss.autopilot_mode_old,"aw",%nobits
 213              		.set	.LANCHOR4,. + 0
 214              		.type	autopilot_mode_old, %object
 215              		.size	autopilot_mode_old, 1
 216              	autopilot_mode_old:
 217 0000 00       		.space	1
 218              		.section	.bss.flip_cmd_earth,"aw",%nobits
 219              		.align	2
 220              		.set	.LANCHOR5,. + 0
 221              		.type	flip_cmd_earth, %object
 222              		.size	flip_cmd_earth, 8
 223              	flip_cmd_earth:
 224 0000 00000000 		.space	8
 224      00000000 
 225              		.section	.bss.flip_counter,"aw",%nobits
 226              		.align	2
 227              		.set	.LANCHOR0,. + 0
ARM GAS  /tmp/ccD2eUgL.s 			page 5


 228              		.type	flip_counter, %object
 229              		.size	flip_counter, 4
 230              	flip_counter:
 231 0000 00000000 		.space	4
 232              		.section	.bss.flip_rollout,"aw",%nobits
 233              		.set	.LANCHOR2,. + 0
 234              		.type	flip_rollout, %object
 235              		.size	flip_rollout, 1
 236              	flip_rollout:
 237 0000 00       		.space	1
 238              		.section	.bss.flip_state,"aw",%nobits
 239              		.set	.LANCHOR1,. + 0
 240              		.type	flip_state, %object
 241              		.size	flip_state, 1
 242              	flip_state:
 243 0000 00       		.space	1
 244              		.section	.bss.heading_save,"aw",%nobits
 245              		.align	2
 246              		.set	.LANCHOR3,. + 0
 247              		.type	heading_save, %object
 248              		.size	heading_save, 4
 249              	heading_save:
 250 0000 00000000 		.space	4
 251              		.section	.bss.timer_save.0,"aw",%nobits
 252              		.align	2
 253              		.set	.LANCHOR6,. + 0
 254              		.type	timer_save.0, %object
 255              		.size	timer_save.0, 4
 256              	timer_save.0:
 257 0000 00000000 		.space	4
 258              		.ident	"GCC: (15:10.3-2021.07-4) 10.3.1 20210621 (release)"
ARM GAS  /tmp/ccD2eUgL.s 			page 6


DEFINED SYMBOLS
                            *ABS*:0000000000000000 guidance_flip.c
     /tmp/ccD2eUgL.s:15     .text.guidance_flip_enter:0000000000000000 $t
     /tmp/ccD2eUgL.s:24     .text.guidance_flip_enter:0000000000000000 guidance_flip_enter
     /tmp/ccD2eUgL.s:45     .text.guidance_flip_enter:0000000000000024 $d
     /tmp/ccD2eUgL.s:52     .text.guidance_flip_run:0000000000000000 $t
     /tmp/ccD2eUgL.s:60     .text.guidance_flip_run:0000000000000000 guidance_flip_run
     /tmp/ccD2eUgL.s:84     .text.guidance_flip_run:0000000000000036 $d
     /tmp/ccD2eUgL.s:88     .text.guidance_flip_run:000000000000003a $t
     /tmp/ccD2eUgL.s:192    .text.guidance_flip_run:000000000000013c $d
     /tmp/ccD2eUgL.s:223    .bss.flip_cmd_earth:0000000000000000 flip_cmd_earth
     /tmp/ccD2eUgL.s:216    .bss.autopilot_mode_old:0000000000000000 autopilot_mode_old
     /tmp/ccD2eUgL.s:249    .bss.heading_save:0000000000000000 heading_save
     /tmp/ccD2eUgL.s:236    .bss.flip_rollout:0000000000000000 flip_rollout
     /tmp/ccD2eUgL.s:242    .bss.flip_state:0000000000000000 flip_state
     /tmp/ccD2eUgL.s:230    .bss.flip_counter:0000000000000000 flip_counter
     /tmp/ccD2eUgL.s:217    .bss.autopilot_mode_old:0000000000000000 $d
     /tmp/ccD2eUgL.s:219    .bss.flip_cmd_earth:0000000000000000 $d
     /tmp/ccD2eUgL.s:226    .bss.flip_counter:0000000000000000 $d
     /tmp/ccD2eUgL.s:237    .bss.flip_rollout:0000000000000000 $d
     /tmp/ccD2eUgL.s:243    .bss.flip_state:0000000000000000 $d
     /tmp/ccD2eUgL.s:245    .bss.heading_save:0000000000000000 $d
     /tmp/ccD2eUgL.s:252    .bss.timer_save.0:0000000000000000 $d
     /tmp/ccD2eUgL.s:256    .bss.timer_save.0:0000000000000000 timer_save.0

UNDEFINED SYMBOLS
stabilization_attitude_get_heading_i
autopilot_get_mode
stabilization_attitude_set_earth_cmd_i
autopilot_in_flight
stabilization_attitude_run
orientationCalcEulers_i
autopilot_set_mode
state
stabilization_cmd
autopilot_mode_auto2
stab_att_sp_euler
