ARM GAS  /tmp/cc0aQ8QA.s 			page 1


   1              		.cpu cortex-m4
   2              		.eabi_attribute 27, 1
   3              		.eabi_attribute 20, 1
   4              		.eabi_attribute 21, 1
   5              		.eabi_attribute 23, 3
   6              		.eabi_attribute 24, 1
   7              		.eabi_attribute 25, 1
   8              		.eabi_attribute 26, 1
   9              		.eabi_attribute 30, 2
  10              		.eabi_attribute 34, 1
  11              		.eabi_attribute 18, 4
  12              		.file	"hal_i2c_lld.c"
  13              		.text
  14              		.section	.text.i2c_lld_abort_operation,"ax",%progbits
  15              		.align	1
  16              		.p2align 4,,15
  17              		.arch armv7e-m
  18              		.syntax unified
  19              		.thumb
  20              		.thumb_func
  21              		.fpu fpv4-sp-d16
  22              		.type	i2c_lld_abort_operation, %function
  23              	i2c_lld_abort_operation:
  24              		@ args = 0, pretend = 0, frame = 0
  25              		@ frame_needed = 0, uses_anonymous_args = 0
  26              		@ link register save eliminated.
  27 0000 10B4     		push	{r4}
  28 0002 D0E90C43 		ldrd	r4, r3, [r0, #48]
  29 0006 4FF40042 		mov	r2, #32768
  30 000a 1A60     		str	r2, [r3]
  31 000c 0021     		movs	r1, #0
  32 000e 2268     		ldr	r2, [r4]
  33 0010 1960     		str	r1, [r3]
  34 0012 5960     		str	r1, [r3, #4]
  35 0014 5961     		str	r1, [r3, #20]
  36 0016 1368     		ldr	r3, [r2]
  37 0018 23F01F03 		bic	r3, r3, #31
  38 001c 1360     		str	r3, [r2]
  39              	.L2:
  40 001e 1368     		ldr	r3, [r2]
  41 0020 D907     		lsls	r1, r3, #31
  42 0022 FCD4     		bmi	.L2
  43 0024 94F809C0 		ldrb	ip, [r4, #9]	@ zero_extendqisi2
  44 0028 C16A     		ldr	r1, [r0, #44]
  45 002a 6068     		ldr	r0, [r4, #4]
  46 002c 0A68     		ldr	r2, [r1]
  47 002e 3D23     		movs	r3, #61
  48 0030 03FA0CF3 		lsl	r3, r3, ip
  49 0034 0360     		str	r3, [r0]
  50 0036 1368     		ldr	r3, [r2]
  51 0038 23F01F03 		bic	r3, r3, #31
  52 003c 1360     		str	r3, [r2]
  53              	.L3:
  54 003e 1368     		ldr	r3, [r2]
  55 0040 DB07     		lsls	r3, r3, #31
  56 0042 FCD4     		bmi	.L3
  57 0044 487A     		ldrb	r0, [r1, #9]	@ zero_extendqisi2
ARM GAS  /tmp/cc0aQ8QA.s 			page 2


  58 0046 4A68     		ldr	r2, [r1, #4]
  59 0048 5DF8044B 		ldr	r4, [sp], #4
  60 004c 3D23     		movs	r3, #61
  61 004e 8340     		lsls	r3, r3, r0
  62 0050 1360     		str	r3, [r2]
  63 0052 7047     		bx	lr
  64              		.size	i2c_lld_abort_operation, .-i2c_lld_abort_operation
  65              		.section	.rodata.i2c_lld_serve_tx_end_irq.str1.4,"aMS",%progbits,1
  66              		.align	2
  67              	.LC0:
  68 0000 444D4120 		.ascii	"DMA failure\000"
  68      6661696C 
  68      75726500 
  69              		.section	.text.i2c_lld_serve_tx_end_irq,"ax",%progbits
  70              		.align	1
  71              		.p2align 4,,15
  72              		.syntax unified
  73              		.thumb
  74              		.thumb_func
  75              		.fpu fpv4-sp-d16
  76              		.type	i2c_lld_serve_tx_end_irq, %function
  77              	i2c_lld_serve_tx_end_irq:
  78              		@ args = 0, pretend = 0, frame = 0
  79              		@ frame_needed = 0, uses_anonymous_args = 0
  80 0000 11F00C0F 		tst	r1, #12
  81 0004 38B5     		push	{r3, r4, r5, lr}
  82 0006 456B     		ldr	r5, [r0, #52]
  83 0008 0446     		mov	r4, r0
  84 000a 12D1     		bne	.L16
  85              	.L9:
  86 000c 216B     		ldr	r1, [r4, #48]
  87 000e 0A68     		ldr	r2, [r1]
  88 0010 1368     		ldr	r3, [r2]
  89 0012 23F01F03 		bic	r3, r3, #31
  90 0016 1360     		str	r3, [r2]
  91              	.L10:
  92 0018 1368     		ldr	r3, [r2]
  93 001a DB07     		lsls	r3, r3, #31
  94 001c FCD4     		bmi	.L10
  95 001e 487A     		ldrb	r0, [r1, #9]	@ zero_extendqisi2
  96 0020 4A68     		ldr	r2, [r1, #4]
  97 0022 3D23     		movs	r3, #61
  98 0024 8340     		lsls	r3, r3, r0
  99 0026 1360     		str	r3, [r2]
 100 0028 6B68     		ldr	r3, [r5, #4]
 101 002a 43F40073 		orr	r3, r3, #512
 102 002e 6B60     		str	r3, [r5, #4]
 103 0030 38BD     		pop	{r3, r4, r5, pc}
 104              	.L16:
 105 0032 0248     		ldr	r0, .L17
 106 0034 FFF7FEFF 		bl	chSysHalt
 107 0038 E8E7     		b	.L9
 108              	.L18:
 109 003a 00BF     		.align	2
 110              	.L17:
 111 003c 00000000 		.word	.LC0
 112              		.size	i2c_lld_serve_tx_end_irq, .-i2c_lld_serve_tx_end_irq
ARM GAS  /tmp/cc0aQ8QA.s 			page 3


 113              		.section	.text.i2c_lld_serve_rx_end_irq,"ax",%progbits
 114              		.align	1
 115              		.p2align 4,,15
 116              		.syntax unified
 117              		.thumb
 118              		.thumb_func
 119              		.fpu fpv4-sp-d16
 120              		.type	i2c_lld_serve_rx_end_irq, %function
 121              	i2c_lld_serve_rx_end_irq:
 122              		@ args = 0, pretend = 0, frame = 0
 123              		@ frame_needed = 0, uses_anonymous_args = 0
 124 0000 11F00C0F 		tst	r1, #12
 125 0004 70B5     		push	{r4, r5, r6, lr}
 126 0006 456B     		ldr	r5, [r0, #52]
 127 0008 0646     		mov	r6, r0
 128 000a 29D1     		bne	.L27
 129              	.L20:
 130 000c F26A     		ldr	r2, [r6, #44]
 131 000e 1368     		ldr	r3, [r2]
 132 0010 1968     		ldr	r1, [r3]
 133 0012 21F01F01 		bic	r1, r1, #31
 134 0016 1960     		str	r1, [r3]
 135              	.L21:
 136 0018 1C68     		ldr	r4, [r3]
 137 001a 14F00104 		ands	r4, r4, #1
 138 001e FBD1     		bne	.L21
 139 0020 5168     		ldr	r1, [r2, #4]
 140 0022 527A     		ldrb	r2, [r2, #9]	@ zero_extendqisi2
 141 0024 3D23     		movs	r3, #61
 142 0026 9340     		lsls	r3, r3, r2
 143 0028 0B60     		str	r3, [r1]
 144 002a 6B68     		ldr	r3, [r5, #4]
 145 002c 23F48053 		bic	r3, r3, #4096
 146 0030 6B60     		str	r3, [r5, #4]
 147 0032 2B68     		ldr	r3, [r5]
 148 0034 23F48063 		bic	r3, r3, #1024
 149 0038 2B60     		str	r3, [r5]
 150 003a 2B68     		ldr	r3, [r5]
 151 003c 43F40073 		orr	r3, r3, #512
 152 0040 3022     		movs	r2, #48
 153 0042 2B60     		str	r3, [r5]
 154              		.syntax unified
 155              	@ 493 "/home/gautier/dev/paparazzi/sw/ext/chibios/os/common/ext/ARM/CMSIS/Core/Include/cmsis_gcc.h"
 156 0044 82F31188 		MSR basepri, r2
 157              	@ 0 "" 2
 158              		.thumb
 159              		.syntax unified
 160 0048 FFF7FEFF 		bl	__stats_start_measure_crit_isr
 161 004c 2146     		mov	r1, r4
 162 004e 06F11C00 		add	r0, r6, #28
 163 0052 FFF7FEFF 		bl	chThdResumeI
 164 0056 FFF7FEFF 		bl	__stats_stop_measure_crit_isr
 165              		.syntax unified
 166              	@ 493 "/home/gautier/dev/paparazzi/sw/ext/chibios/os/common/ext/ARM/CMSIS/Core/Include/cmsis_gcc.h"
 167 005a 84F31188 		MSR basepri, r4
 168              	@ 0 "" 2
 169              		.thumb
ARM GAS  /tmp/cc0aQ8QA.s 			page 4


 170              		.syntax unified
 171 005e 70BD     		pop	{r4, r5, r6, pc}
 172              	.L27:
 173 0060 0148     		ldr	r0, .L28
 174 0062 FFF7FEFF 		bl	chSysHalt
 175 0066 D1E7     		b	.L20
 176              	.L29:
 177              		.align	2
 178              	.L28:
 179 0068 00000000 		.word	.LC0
 180              		.size	i2c_lld_serve_rx_end_irq, .-i2c_lld_serve_rx_end_irq
 181              		.section	.text.Vector160,"ax",%progbits
 182              		.align	1
 183              		.p2align 4,,15
 184              		.global	Vector160
 185              		.syntax unified
 186              		.thumb
 187              		.thumb_func
 188              		.fpu fpv4-sp-d16
 189              		.type	Vector160, %function
 190              	Vector160:
 191              		@ args = 0, pretend = 0, frame = 0
 192              		@ frame_needed = 0, uses_anonymous_args = 0
 193 0000 F8B5     		push	{r3, r4, r5, r6, r7, lr}
 194 0002 764C     		ldr	r4, .L69
 195 0004 FFF7FEFF 		bl	__stats_increase_irq
 196 0008 D4E90D52 		ldrd	r5, r2, [r4, #52]
 197 000c E16B     		ldr	r1, [r4, #60]
 198 000e AB69     		ldr	r3, [r5, #24]
 199 0010 6E69     		ldr	r6, [r5, #20]
 200 0012 501C     		adds	r0, r2, #1
 201 0014 8A42     		cmp	r2, r1
 202 0016 A063     		str	r0, [r4, #56]
 203 0018 58D8     		bhi	.L66
 204 001a 94F84020 		ldrb	r2, [r4, #64]	@ zero_extendqisi2
 205 001e 2AB3     		cbz	r2, .L67
 206 0020 6F4A     		ldr	r2, .L69+4
 207 0022 46EA0343 		orr	r3, r6, r3, lsl #16
 208 0026 03F0FF13 		and	r3, r3, #16711935
 209 002a 9342     		cmp	r3, r2
 210 002c 39D8     		bhi	.L38
 211 002e B3F5403F 		cmp	r3, #196608
 212 0032 27D9     		bls	.L68
 213 0034 A3F54033 		sub	r3, r3, #196608
 214 0038 013B     		subs	r3, r3, #1
 215 003a 102B     		cmp	r3, #16
 216 003c 0ED8     		bhi	.L41
 217 003e DFE803F0 		tbb	[pc, r3]
 218              	.L43:
 219 0042 24       		.byte	(.L40-.L43)/2
 220 0043 94       		.byte	(.L45-.L43)/2
 221 0044 0D       		.byte	(.L41-.L43)/2
 222 0045 0D       		.byte	(.L41-.L43)/2
 223 0046 0D       		.byte	(.L41-.L43)/2
 224 0047 0D       		.byte	(.L41-.L43)/2
 225 0048 0D       		.byte	(.L41-.L43)/2
 226 0049 09       		.byte	(.L44-.L43)/2
ARM GAS  /tmp/cc0aQ8QA.s 			page 5


 227 004a 0D       		.byte	(.L41-.L43)/2
 228 004b 0D       		.byte	(.L41-.L43)/2
 229 004c 0D       		.byte	(.L41-.L43)/2
 230 004d 0D       		.byte	(.L41-.L43)/2
 231 004e 0D       		.byte	(.L41-.L43)/2
 232 004f 0D       		.byte	(.L41-.L43)/2
 233 0050 0D       		.byte	(.L41-.L43)/2
 234 0051 0D       		.byte	(.L41-.L43)/2
 235 0052 8C       		.byte	(.L42-.L43)/2
 236 0053 00       		.p2align 1
 237              	.L44:
 238 0054 238C     		ldrh	r3, [r4, #32]
 239 0056 C3F34703 		ubfx	r3, r3, #1, #8
 240              	.L65:
 241 005a 2B61     		str	r3, [r5, #16]
 242              	.L41:
 243 005c 16F00A0F 		tst	r6, #10
 244 0060 18BF     		it	ne
 245 0062 AB69     		ldrne	r3, [r5, #24]
 246              	.L36:
 247 0064 BDE8F840 		pop	{r3, r4, r5, r6, r7, lr}
 248 0068 FFF7FEBF 		b	__port_irq_epilogue
 249              	.L67:
 250 006c 2B68     		ldr	r3, [r5]
 251 006e 43F40043 		orr	r3, r3, #32768
 252 0072 2B60     		str	r3, [r5]
 253 0074 2B68     		ldr	r3, [r5]
 254 0076 23F00103 		bic	r3, r3, #1
 255 007a 2B60     		str	r3, [r5]
 256 007c BDE8F840 		pop	{r3, r4, r5, r6, r7, lr}
 257 0080 FFF7FEBF 		b	__port_irq_epilogue
 258              	.L68:
 259 0084 B3F1011F 		cmp	r3, #65537
 260 0088 E8D1     		bne	.L41
 261              	.L40:
 262 008a 238C     		ldrh	r3, [r4, #32]
 263 008c 1A0A     		lsrs	r2, r3, #8
 264 008e E4D0     		beq	.L65
 265 0090 02F00602 		and	r2, r2, #6
 266 0094 03F00103 		and	r3, r3, #1
 267 0098 1343     		orrs	r3, r3, r2
 268 009a 43F0F003 		orr	r3, r3, #240
 269 009e 2B61     		str	r3, [r5, #16]
 270 00a0 DCE7     		b	.L41
 271              	.L38:
 272 00a2 504A     		ldr	r2, .L69+8
 273 00a4 9342     		cmp	r3, r2
 274 00a6 77D0     		beq	.L46
 275 00a8 0232     		adds	r2, r2, #2
 276 00aa 9342     		cmp	r3, r2
 277 00ac D6D1     		bne	.L41
 278 00ae E36A     		ldr	r3, [r4, #44]
 279 00b0 2A69     		ldr	r2, [r5, #16]
 280 00b2 1B68     		ldr	r3, [r3]
 281 00b4 5F68     		ldr	r7, [r3, #4]
 282 00b6 002F     		cmp	r7, #0
 283 00b8 79D0     		beq	.L49
ARM GAS  /tmp/cc0aQ8QA.s 			page 6


 284 00ba 228C     		ldrh	r2, [r4, #32]
 285 00bc 2B68     		ldr	r3, [r5]
 286 00be 42F00102 		orr	r2, r2, #1
 287 00c2 43F4A063 		orr	r3, r3, #1280
 288 00c6 2284     		strh	r2, [r4, #32]	@ movhi
 289 00c8 2B60     		str	r3, [r5]
 290 00ca CBE7     		b	.L36
 291              	.L66:
 292 00cc A368     		ldr	r3, [r4, #8]
 293 00ce 216B     		ldr	r1, [r4, #48]
 294 00d0 43F08003 		orr	r3, r3, #128
 295 00d4 A360     		str	r3, [r4, #8]
 296 00d6 61B1     		cbz	r1, .L32
 297 00d8 0A68     		ldr	r2, [r1]
 298 00da 1368     		ldr	r3, [r2]
 299 00dc 23F01F03 		bic	r3, r3, #31
 300 00e0 1360     		str	r3, [r2]
 301              	.L33:
 302 00e2 1368     		ldr	r3, [r2]
 303 00e4 D807     		lsls	r0, r3, #31
 304 00e6 FCD4     		bmi	.L33
 305 00e8 487A     		ldrb	r0, [r1, #9]	@ zero_extendqisi2
 306 00ea 4A68     		ldr	r2, [r1, #4]
 307 00ec 3D23     		movs	r3, #61
 308 00ee 8340     		lsls	r3, r3, r0
 309 00f0 1360     		str	r3, [r2]
 310              	.L32:
 311 00f2 E16A     		ldr	r1, [r4, #44]
 312 00f4 61B1     		cbz	r1, .L34
 313 00f6 0A68     		ldr	r2, [r1]
 314 00f8 1368     		ldr	r3, [r2]
 315 00fa 23F01F03 		bic	r3, r3, #31
 316 00fe 1360     		str	r3, [r2]
 317              	.L35:
 318 0100 1368     		ldr	r3, [r2]
 319 0102 DB07     		lsls	r3, r3, #31
 320 0104 FCD4     		bmi	.L35
 321 0106 487A     		ldrb	r0, [r1, #9]	@ zero_extendqisi2
 322 0108 4A68     		ldr	r2, [r1, #4]
 323 010a 3D23     		movs	r3, #61
 324 010c 8340     		lsls	r3, r3, r0
 325 010e 1360     		str	r3, [r2]
 326              	.L34:
 327 0110 2A68     		ldr	r2, [r5]
 328 0112 354B     		ldr	r3, .L69+12
 329 0114 42F40042 		orr	r2, r2, #32768
 330 0118 2A60     		str	r2, [r5]
 331 011a 2A68     		ldr	r2, [r5]
 332 011c 22F00102 		bic	r2, r2, #1
 333 0120 2A60     		str	r2, [r5]
 334 0122 1A6A     		ldr	r2, [r3, #32]
 335 0124 42F40002 		orr	r2, r2, #8388608
 336 0128 1A62     		str	r2, [r3, #32]
 337 012a 1A6A     		ldr	r2, [r3, #32]
 338 012c 22F40002 		bic	r2, r2, #8388608
 339 0130 1A62     		str	r2, [r3, #32]
 340 0132 1B6A     		ldr	r3, [r3, #32]
ARM GAS  /tmp/cc0aQ8QA.s 			page 7


 341 0134 3021     		movs	r1, #48
 342              		.syntax unified
 343              	@ 493 "/home/gautier/dev/paparazzi/sw/ext/chibios/os/common/ext/ARM/CMSIS/Core/Include/cmsis_gcc.h"
 344 0136 81F31188 		MSR basepri, r1
 345              	@ 0 "" 2
 346              		.thumb
 347              		.syntax unified
 348 013a FFF7FEFF 		bl	__stats_start_measure_crit_isr
 349 013e 2B48     		ldr	r0, .L69+16
 350 0140 6FF00101 		mvn	r1, #1
 351 0144 FFF7FEFF 		bl	chThdResumeI
 352 0148 FFF7FEFF 		bl	__stats_stop_measure_crit_isr
 353 014c 0023     		movs	r3, #0
 354              		.syntax unified
 355              	@ 493 "/home/gautier/dev/paparazzi/sw/ext/chibios/os/common/ext/ARM/CMSIS/Core/Include/cmsis_gcc.h"
 356 014e 83F31188 		MSR basepri, r3
 357              	@ 0 "" 2
 358              		.thumb
 359              		.syntax unified
 360 0152 BDE8F840 		pop	{r3, r4, r5, r6, r7, lr}
 361 0156 FFF7FEBF 		b	__port_irq_epilogue
 362              	.L42:
 363 015a 2048     		ldr	r0, .L69
 364 015c FFF7FEFF 		bl	i2c_lld_abort_operation
 365 0160 6B68     		ldr	r3, [r5, #4]
 366 0162 23F40073 		bic	r3, r3, #512
 367 0166 6B60     		str	r3, [r5, #4]
 368 0168 78E7     		b	.L41
 369              	.L45:
 370 016a 6A68     		ldr	r2, [r5, #4]
 371 016c E16A     		ldr	r1, [r4, #44]
 372 016e 22F40072 		bic	r2, r2, #512
 373 0172 0B68     		ldr	r3, [r1]
 374 0174 6A60     		str	r2, [r5, #4]
 375 0176 1A68     		ldr	r2, [r3]
 376 0178 42F00102 		orr	r2, r2, #1
 377 017c 1A60     		str	r2, [r3]
 378 017e 6A68     		ldr	r2, [r5, #4]
 379 0180 42F48052 		orr	r2, r2, #4096
 380 0184 6A60     		str	r2, [r5, #4]
 381 0186 5B68     		ldr	r3, [r3, #4]
 382 0188 012B     		cmp	r3, #1
 383 018a 3FF667AF 		bhi	.L41
 384 018e 2B68     		ldr	r3, [r5]
 385 0190 23F48063 		bic	r3, r3, #1024
 386 0194 2B60     		str	r3, [r5]
 387 0196 61E7     		b	.L41
 388              	.L46:
 389 0198 6B68     		ldr	r3, [r5, #4]
 390 019a 226B     		ldr	r2, [r4, #48]
 391 019c 23F40073 		bic	r3, r3, #512
 392 01a0 1268     		ldr	r2, [r2]
 393 01a2 6B60     		str	r3, [r5, #4]
 394 01a4 1368     		ldr	r3, [r2]
 395 01a6 43F00103 		orr	r3, r3, #1
 396 01aa 1360     		str	r3, [r2]
 397 01ac 56E7     		b	.L41
ARM GAS  /tmp/cc0aQ8QA.s 			page 8


 398              	.L49:
 399 01ae 6B68     		ldr	r3, [r5, #4]
 400 01b0 23F40073 		bic	r3, r3, #512
 401 01b4 6B60     		str	r3, [r5, #4]
 402 01b6 2B68     		ldr	r3, [r5]
 403 01b8 43F40073 		orr	r3, r3, #512
 404 01bc 2B60     		str	r3, [r5]
 405 01be 3023     		movs	r3, #48
 406              		.syntax unified
 407              	@ 493 "/home/gautier/dev/paparazzi/sw/ext/chibios/os/common/ext/ARM/CMSIS/Core/Include/cmsis_gcc.h"
 408 01c0 83F31188 		MSR basepri, r3
 409              	@ 0 "" 2
 410              		.thumb
 411              		.syntax unified
 412 01c4 FFF7FEFF 		bl	__stats_start_measure_crit_isr
 413 01c8 3946     		mov	r1, r7
 414 01ca 04F11C00 		add	r0, r4, #28
 415 01ce FFF7FEFF 		bl	chThdResumeI
 416 01d2 FFF7FEFF 		bl	__stats_stop_measure_crit_isr
 417              		.syntax unified
 418              	@ 493 "/home/gautier/dev/paparazzi/sw/ext/chibios/os/common/ext/ARM/CMSIS/Core/Include/cmsis_gcc.h"
 419 01d6 87F31188 		MSR basepri, r7
 420              	@ 0 "" 2
 421              		.thumb
 422              		.syntax unified
 423 01da 3FE7     		b	.L41
 424              	.L70:
 425              		.align	2
 426              	.L69:
 427 01dc 00000000 		.word	.LANCHOR0
 428 01e0 11000300 		.word	196625
 429 01e4 82000700 		.word	458882
 430 01e8 00380240 		.word	1073887232
 431 01ec 1C000000 		.word	.LANCHOR0+28
 432              		.size	Vector160, .-Vector160
 433              		.section	.text.Vector164,"ax",%progbits
 434              		.align	1
 435              		.p2align 4,,15
 436              		.global	Vector164
 437              		.syntax unified
 438              		.thumb
 439              		.thumb_func
 440              		.fpu fpv4-sp-d16
 441              		.type	Vector164, %function
 442              	Vector164:
 443              		@ args = 0, pretend = 0, frame = 0
 444              		@ frame_needed = 0, uses_anonymous_args = 0
 445 0000 38B5     		push	{r3, r4, r5, lr}
 446 0002 4F4C     		ldr	r4, .L116
 447 0004 636B     		ldr	r3, [r4, #52]
 448 0006 5D69     		ldr	r5, [r3, #20]
 449 0008 FFF7FEFF 		bl	__stats_increase_irq
 450 000c 616B     		ldr	r1, [r4, #52]
 451 000e 206B     		ldr	r0, [r4, #48]
 452 0010 05F45F43 		and	r3, r5, #57088
 453 0014 DB43     		mvns	r3, r3
 454 0016 4B61     		str	r3, [r1, #20]
ARM GAS  /tmp/cc0aQ8QA.s 			page 9


 455 0018 60B1     		cbz	r0, .L72
 456 001a 0268     		ldr	r2, [r0]
 457 001c 1368     		ldr	r3, [r2]
 458 001e 23F01F03 		bic	r3, r3, #31
 459 0022 1360     		str	r3, [r2]
 460              	.L73:
 461 0024 1368     		ldr	r3, [r2]
 462 0026 DB07     		lsls	r3, r3, #31
 463 0028 FCD4     		bmi	.L73
 464 002a 4268     		ldr	r2, [r0, #4]
 465 002c 407A     		ldrb	r0, [r0, #9]	@ zero_extendqisi2
 466 002e 3D23     		movs	r3, #61
 467 0030 8340     		lsls	r3, r3, r0
 468 0032 1360     		str	r3, [r2]
 469              	.L72:
 470 0034 E06A     		ldr	r0, [r4, #44]
 471 0036 60B1     		cbz	r0, .L74
 472 0038 0268     		ldr	r2, [r0]
 473 003a 1368     		ldr	r3, [r2]
 474 003c 23F01F03 		bic	r3, r3, #31
 475 0040 1360     		str	r3, [r2]
 476              	.L75:
 477 0042 1368     		ldr	r3, [r2]
 478 0044 DB07     		lsls	r3, r3, #31
 479 0046 FCD4     		bmi	.L75
 480 0048 4268     		ldr	r2, [r0, #4]
 481 004a 407A     		ldrb	r0, [r0, #9]	@ zero_extendqisi2
 482 004c 3D23     		movs	r3, #61
 483 004e 8340     		lsls	r3, r3, r0
 484 0050 1360     		str	r3, [r2]
 485              	.L74:
 486 0052 A36B     		ldr	r3, [r4, #56]
 487 0054 5A1C     		adds	r2, r3, #1
 488 0056 A263     		str	r2, [r4, #56]
 489 0058 E26B     		ldr	r2, [r4, #60]
 490 005a 9342     		cmp	r3, r2
 491 005c 3FD8     		bhi	.L114
 492 005e 94F84030 		ldrb	r3, [r4, #64]	@ zero_extendqisi2
 493 0062 002B     		cmp	r3, #0
 494 0064 2FD0     		beq	.L115
 495 0066 15F48073 		ands	r3, r5, #256
 496 006a AAB2     		uxth	r2, r5
 497 006c 18BF     		it	ne
 498 006e 0123     		movne	r3, #1
 499 0070 9005     		lsls	r0, r2, #22
 500 0072 A360     		str	r3, [r4, #8]
 501 0074 44BF     		itt	mi
 502 0076 43F00203 		orrmi	r3, r3, #2
 503 007a A360     		strmi	r3, [r4, #8]
 504 007c 5005     		lsls	r0, r2, #21
 505 007e 0AD5     		bpl	.L82
 506 0080 4868     		ldr	r0, [r1, #4]
 507 0082 20F40070 		bic	r0, r0, #512
 508 0086 4860     		str	r0, [r1, #4]
 509 0088 0868     		ldr	r0, [r1]
 510 008a 43F00403 		orr	r3, r3, #4
 511 008e 40F40070 		orr	r0, r0, #512
ARM GAS  /tmp/cc0aQ8QA.s 			page 10


 512 0092 0860     		str	r0, [r1]
 513 0094 A360     		str	r3, [r4, #8]
 514              	.L82:
 515 0096 1005     		lsls	r0, r2, #20
 516 0098 44BF     		itt	mi
 517 009a 43F00803 		orrmi	r3, r3, #8
 518 009e A360     		strmi	r3, [r4, #8]
 519 00a0 5104     		lsls	r1, r2, #17
 520 00a2 44BF     		itt	mi
 521 00a4 43F02003 		orrmi	r3, r3, #32
 522 00a8 A360     		strmi	r3, [r4, #8]
 523 00aa D004     		lsls	r0, r2, #19
 524 00ac 40D5     		bpl	.L85
 525 00ae 43F01003 		orr	r3, r3, #16
 526 00b2 2904     		lsls	r1, r5, #16
 527 00b4 A360     		str	r3, [r4, #8]
 528 00b6 02D5     		bpl	.L87
 529              	.L86:
 530 00b8 43F04003 		orr	r3, r3, #64
 531 00bc A360     		str	r3, [r4, #8]
 532              	.L87:
 533 00be 3023     		movs	r3, #48
 534              		.syntax unified
 535              	@ 493 "/home/gautier/dev/paparazzi/sw/ext/chibios/os/common/ext/ARM/CMSIS/Core/Include/cmsis_gcc.h"
 536 00c0 83F31188 		MSR basepri, r3
 537              	@ 0 "" 2
 538              		.thumb
 539              		.syntax unified
 540 00c4 24E0     		b	.L112
 541              	.L115:
 542 00c6 0B68     		ldr	r3, [r1]
 543 00c8 43F40043 		orr	r3, r3, #32768
 544 00cc 0B60     		str	r3, [r1]
 545 00ce 0B68     		ldr	r3, [r1]
 546 00d0 23F00103 		bic	r3, r3, #1
 547 00d4 0B60     		str	r3, [r1]
 548 00d6 BDE83840 		pop	{r3, r4, r5, lr}
 549 00da FFF7FEBF 		b	__port_irq_epilogue
 550              	.L114:
 551 00de 0B68     		ldr	r3, [r1]
 552 00e0 A268     		ldr	r2, [r4, #8]
 553 00e2 43F40043 		orr	r3, r3, #32768
 554 00e6 42F08002 		orr	r2, r2, #128
 555 00ea A260     		str	r2, [r4, #8]
 556 00ec 0B60     		str	r3, [r1]
 557 00ee 0A68     		ldr	r2, [r1]
 558 00f0 144B     		ldr	r3, .L116+4
 559 00f2 22F00102 		bic	r2, r2, #1
 560 00f6 0A60     		str	r2, [r1]
 561 00f8 1A6A     		ldr	r2, [r3, #32]
 562 00fa 42F40002 		orr	r2, r2, #8388608
 563 00fe 1A62     		str	r2, [r3, #32]
 564 0100 1A6A     		ldr	r2, [r3, #32]
 565 0102 22F40002 		bic	r2, r2, #8388608
 566 0106 1A62     		str	r2, [r3, #32]
 567 0108 3021     		movs	r1, #48
 568 010a 1B6A     		ldr	r3, [r3, #32]
ARM GAS  /tmp/cc0aQ8QA.s 			page 11


 569              		.syntax unified
 570              	@ 493 "/home/gautier/dev/paparazzi/sw/ext/chibios/os/common/ext/ARM/CMSIS/Core/Include/cmsis_gcc.h"
 571 010c 81F31188 		MSR basepri, r1
 572              	@ 0 "" 2
 573              		.thumb
 574              		.syntax unified
 575              	.L112:
 576 0110 FFF7FEFF 		bl	__stats_start_measure_crit_isr
 577 0114 0C48     		ldr	r0, .L116+8
 578 0116 6FF00101 		mvn	r1, #1
 579 011a FFF7FEFF 		bl	chThdResumeI
 580 011e FFF7FEFF 		bl	__stats_stop_measure_crit_isr
 581 0122 0023     		movs	r3, #0
 582              		.syntax unified
 583              	@ 493 "/home/gautier/dev/paparazzi/sw/ext/chibios/os/common/ext/ARM/CMSIS/Core/Include/cmsis_gcc.h"
 584 0124 83F31188 		MSR basepri, r3
 585              	@ 0 "" 2
 586              		.thumb
 587              		.syntax unified
 588 0128 BDE83840 		pop	{r3, r4, r5, lr}
 589 012c FFF7FEBF 		b	__port_irq_epilogue
 590              	.L85:
 591 0130 2A04     		lsls	r2, r5, #16
 592 0132 C1D4     		bmi	.L86
 593 0134 002B     		cmp	r3, #0
 594 0136 C2D1     		bne	.L87
 595 0138 BDE83840 		pop	{r3, r4, r5, lr}
 596 013c FFF7FEBF 		b	__port_irq_epilogue
 597              	.L117:
 598              		.align	2
 599              	.L116:
 600 0140 00000000 		.word	.LANCHOR0
 601 0144 00380240 		.word	1073887232
 602 0148 1C000000 		.word	.LANCHOR0+28
 603              		.size	Vector164, .-Vector164
 604              		.section	.text.i2c_lld_init,"ax",%progbits
 605              		.align	1
 606              		.p2align 4,,15
 607              		.global	i2c_lld_init
 608              		.syntax unified
 609              		.thumb
 610              		.thumb_func
 611              		.fpu fpv4-sp-d16
 612              		.type	i2c_lld_init, %function
 613              	i2c_lld_init:
 614              		@ args = 0, pretend = 0, frame = 0
 615              		@ frame_needed = 0, uses_anonymous_args = 0
 616 0000 10B5     		push	{r4, lr}
 617 0002 054C     		ldr	r4, .L120
 618 0004 2046     		mov	r0, r4
 619 0006 FFF7FEFF 		bl	i2cObjectInit
 620 000a 0023     		movs	r3, #0
 621 000c 034A     		ldr	r2, .L120+4
 622 000e E361     		str	r3, [r4, #28]
 623 0010 C4E90B33 		strd	r3, r3, [r4, #44]
 624 0014 6263     		str	r2, [r4, #52]
 625 0016 10BD     		pop	{r4, pc}
ARM GAS  /tmp/cc0aQ8QA.s 			page 12


 626              	.L121:
 627              		.align	2
 628              	.L120:
 629 0018 00000000 		.word	.LANCHOR0
 630 001c 005C0040 		.word	1073765376
 631              		.size	i2c_lld_init, .-i2c_lld_init
 632              		.section	.text.i2c_lld_start,"ax",%progbits
 633              		.align	1
 634              		.p2align 4,,15
 635              		.global	i2c_lld_start
 636              		.syntax unified
 637              		.thumb
 638              		.thumb_func
 639              		.fpu fpv4-sp-d16
 640              		.type	i2c_lld_start, %function
 641              	i2c_lld_start:
 642              		@ args = 0, pretend = 0, frame = 0
 643              		@ frame_needed = 0, uses_anonymous_args = 0
 644 0000 70B5     		push	{r4, r5, r6, lr}
 645 0002 0378     		ldrb	r3, [r0]	@ zero_extendqisi2
 646 0004 456B     		ldr	r5, [r0, #52]
 647 0006 012B     		cmp	r3, #1
 648 0008 0446     		mov	r4, r0
 649 000a 46D0     		beq	.L136
 650              	.L132:
 651 000c 2B46     		mov	r3, r5
 652              	.L123:
 653 000e E16A     		ldr	r1, [r4, #44]
 654 0010 6068     		ldr	r0, [r4, #4]
 655 0012 0968     		ldr	r1, [r1]
 656 0014 4668     		ldr	r6, [r0, #4]
 657 0016 05F11002 		add	r2, r5, #16
 658 001a 8A60     		str	r2, [r1, #8]
 659 001c 216B     		ldr	r1, [r4, #48]
 660 001e 0968     		ldr	r1, [r1]
 661 0020 8A60     		str	r2, [r1, #8]
 662 0022 4FF40041 		mov	r1, #32768
 663 0026 2960     		str	r1, [r5]
 664 0028 0022     		movs	r2, #0
 665 002a 4FF41061 		mov	r1, #2304
 666 002e 2A60     		str	r2, [r5]
 667 0030 6960     		str	r1, [r5, #4]
 668 0032 5968     		ldr	r1, [r3, #4]
 669 0034 90F808C0 		ldrb	ip, [r0, #8]	@ zero_extendqisi2
 670 0038 4FF6C074 		movw	r4, #65472
 671 003c 2140     		ands	r1, r1, r4
 672 003e 5960     		str	r1, [r3, #4]
 673 0040 5968     		ldr	r1, [r3, #4]
 674 0042 474C     		ldr	r4, .L140
 675 0044 41F02A01 		orr	r1, r1, #42
 676 0048 A642     		cmp	r6, r4
 677 004a 5960     		str	r1, [r3, #4]
 678 004c 17DC     		bgt	.L124
 679 004e 2B22     		movs	r2, #43
 680 0050 7100     		lsls	r1, r6, #1
 681 0052 1A62     		str	r2, [r3, #32]
 682 0054 434A     		ldr	r2, .L140+4
ARM GAS  /tmp/cc0aQ8QA.s 			page 13


 683 0056 92FBF1F2 		sdiv	r2, r2, r1
 684 005a C2F30B02 		ubfx	r2, r2, #0, #12
 685              	.L125:
 686 005e DA61     		str	r2, [r3, #28]
 687 0060 0178     		ldrb	r1, [r0]	@ zero_extendqisi2
 688 0062 1A68     		ldr	r2, [r3]
 689 0064 0229     		cmp	r1, #2
 690 0066 92B2     		uxth	r2, r2
 691 0068 59D0     		beq	.L128
 692 006a 0329     		cmp	r1, #3
 693 006c 54D0     		beq	.L129
 694 006e 0129     		cmp	r1, #1
 695 0070 4ED0     		beq	.L137
 696              	.L130:
 697 0072 1A60     		str	r2, [r3]
 698 0074 2B68     		ldr	r3, [r5]
 699 0076 43F00103 		orr	r3, r3, #1
 700 007a 2B60     		str	r3, [r5]
 701 007c 70BD     		pop	{r4, r5, r6, pc}
 702              	.L124:
 703 007e 3A49     		ldr	r1, .L140+8
 704 0080 8E42     		cmp	r6, r1
 705 0082 ECDC     		bgt	.L125
 706 0084 BCF1020F 		cmp	ip, #2
 707 0088 4FD0     		beq	.L138
 708 008a BCF1030F 		cmp	ip, #3
 709 008e 5AD0     		beq	.L139
 710 0090 48F6FF72 		movw	r2, #36863
 711              	.L127:
 712 0094 0D21     		movs	r1, #13
 713 0096 1962     		str	r1, [r3, #32]
 714 0098 E1E7     		b	.L125
 715              	.L136:
 716 009a 344B     		ldr	r3, .L140+12
 717 009c 40F21642 		movw	r2, #1046
 718 00a0 40F25641 		movw	r1, #1110
 719 00a4 9842     		cmp	r0, r3
 720 00a6 C0E90921 		strd	r2, r1, [r0, #36]
 721 00aa AFD1     		bne	.L132
 722 00ac 304E     		ldr	r6, .L140+16
 723 00ae 314A     		ldr	r2, .L140+20
 724 00b0 336A     		ldr	r3, [r6, #32]
 725 00b2 43F40003 		orr	r3, r3, #8388608
 726 00b6 3362     		str	r3, [r6, #32]
 727 00b8 336A     		ldr	r3, [r6, #32]
 728 00ba 23F40003 		bic	r3, r3, #8388608
 729 00be 3362     		str	r3, [r6, #32]
 730 00c0 316A     		ldr	r1, [r6, #32]
 731 00c2 0346     		mov	r3, r0
 732 00c4 0521     		movs	r1, #5
 733 00c6 0220     		movs	r0, #2
 734 00c8 FFF7FEFF 		bl	dmaStreamAllocI
 735 00cc 2A4A     		ldr	r2, .L140+24
 736 00ce E062     		str	r0, [r4, #44]
 737 00d0 2346     		mov	r3, r4
 738 00d2 0521     		movs	r1, #5
 739 00d4 0420     		movs	r0, #4
ARM GAS  /tmp/cc0aQ8QA.s 			page 14


 740 00d6 FFF7FEFF 		bl	dmaStreamAllocI
 741 00da 336C     		ldr	r3, [r6, #64]
 742 00dc 2063     		str	r0, [r4, #48]
 743 00de 43F40003 		orr	r3, r3, #8388608
 744 00e2 3364     		str	r3, [r6, #64]
 745 00e4 336E     		ldr	r3, [r6, #96]
 746 00e6 43F40003 		orr	r3, r3, #8388608
 747 00ea 0521     		movs	r1, #5
 748 00ec 3366     		str	r3, [r6, #96]
 749 00ee 4820     		movs	r0, #72
 750 00f0 336E     		ldr	r3, [r6, #96]
 751 00f2 FFF7FEFF 		bl	nvicEnableVector
 752 00f6 0521     		movs	r1, #5
 753 00f8 4920     		movs	r0, #73
 754 00fa FFF7FEFF 		bl	nvicEnableVector
 755 00fe A36A     		ldr	r3, [r4, #40]
 756 0100 616A     		ldr	r1, [r4, #36]
 757 0102 1E4A     		ldr	r2, .L140+28
 758 0104 1143     		orrs	r1, r1, r2
 759 0106 1A43     		orrs	r2, r2, r3
 760 0108 C4E90912 		strd	r1, r2, [r4, #36]
 761 010c 636B     		ldr	r3, [r4, #52]
 762 010e 7EE7     		b	.L123
 763              	.L137:
 764 0110 22F00A02 		bic	r2, r2, #10
 765 0114 92B2     		uxth	r2, r2
 766 0116 ACE7     		b	.L130
 767              	.L129:
 768 0118 42F00A02 		orr	r2, r2, #10
 769 011c A9E7     		b	.L130
 770              	.L128:
 771 011e 22F00802 		bic	r2, r2, #8
 772 0122 92B2     		uxth	r2, r2
 773 0124 42F00202 		orr	r2, r2, #2
 774 0128 A3E7     		b	.L130
 775              	.L138:
 776 012a 01F11E71 		add	r1, r1, #41418752
 777 012e 01F53131 		add	r1, r1, #181248
 778 0132 06EB4602 		add	r2, r6, r6, lsl #1
 779 0136 B1FBF2F2 		udiv	r2, r1, r2
 780 013a 6FEA4242 		mvn	r2, r2, lsl #17
 781 013e 6FEA5242 		mvn	r2, r2, lsr #17
 782 0142 92B2     		uxth	r2, r2
 783 0144 A6E7     		b	.L127
 784              	.L139:
 785 0146 06EB8601 		add	r1, r6, r6, lsl #2
 786 014a 064A     		ldr	r2, .L140+4
 787 014c 01EB8101 		add	r1, r1, r1, lsl #2
 788 0150 B2FBF1F2 		udiv	r2, r2, r1
 789 0154 6FEA8242 		mvn	r2, r2, lsl #18
 790 0158 6FEA9242 		mvn	r2, r2, lsr #18
 791 015c 92B2     		uxth	r2, r2
 792 015e 99E7     		b	.L127
 793              	.L141:
 794              		.align	2
 795              	.L140:
 796 0160 A0860100 		.word	100000
ARM GAS  /tmp/cc0aQ8QA.s 			page 15


 797 0164 80DE8002 		.word	42000000
 798 0168 801A0600 		.word	400000
 799 016c 00000000 		.word	.LANCHOR0
 800 0170 00380240 		.word	1073887232
 801 0174 00000000 		.word	i2c_lld_serve_rx_end_irq
 802 0178 00000000 		.word	i2c_lld_serve_tx_end_irq
 803 017c 00000306 		.word	100859904
 804              		.size	i2c_lld_start, .-i2c_lld_start
 805              		.section	.text.i2c_lld_stop,"ax",%progbits
 806              		.align	1
 807              		.p2align 4,,15
 808              		.global	i2c_lld_stop
 809              		.syntax unified
 810              		.thumb
 811              		.thumb_func
 812              		.fpu fpv4-sp-d16
 813              		.type	i2c_lld_stop, %function
 814              	i2c_lld_stop:
 815              		@ args = 0, pretend = 0, frame = 0
 816              		@ frame_needed = 0, uses_anonymous_args = 0
 817 0000 0378     		ldrb	r3, [r0]	@ zero_extendqisi2
 818 0002 012B     		cmp	r3, #1
 819 0004 00D1     		bne	.L150
 820 0006 7047     		bx	lr
 821              	.L150:
 822 0008 10B5     		push	{r4, lr}
 823 000a 0446     		mov	r4, r0
 824 000c FFF7FEFF 		bl	i2c_lld_abort_operation
 825 0010 206B     		ldr	r0, [r4, #48]
 826 0012 FFF7FEFF 		bl	dmaStreamFreeI
 827 0016 E06A     		ldr	r0, [r4, #44]
 828 0018 FFF7FEFF 		bl	dmaStreamFreeI
 829 001c 0B4A     		ldr	r2, .L152
 830 001e 0023     		movs	r3, #0
 831 0020 9442     		cmp	r4, r2
 832 0022 C4E90B33 		strd	r3, r3, [r4, #44]
 833 0026 00D0     		beq	.L151
 834 0028 10BD     		pop	{r4, pc}
 835              	.L151:
 836 002a 4820     		movs	r0, #72
 837 002c FFF7FEFF 		bl	nvicDisableVector
 838 0030 4920     		movs	r0, #73
 839 0032 FFF7FEFF 		bl	nvicDisableVector
 840 0036 064B     		ldr	r3, .L152+4
 841 0038 1A6C     		ldr	r2, [r3, #64]
 842 003a 22F40002 		bic	r2, r2, #8388608
 843 003e 1A64     		str	r2, [r3, #64]
 844 0040 1A6E     		ldr	r2, [r3, #96]
 845 0042 22F40002 		bic	r2, r2, #8388608
 846 0046 1A66     		str	r2, [r3, #96]
 847 0048 1B6E     		ldr	r3, [r3, #96]
 848 004a 10BD     		pop	{r4, pc}
 849              	.L153:
 850              		.align	2
 851              	.L152:
 852 004c 00000000 		.word	.LANCHOR0
 853 0050 00380240 		.word	1073887232
ARM GAS  /tmp/cc0aQ8QA.s 			page 16


 854              		.size	i2c_lld_stop, .-i2c_lld_stop
 855              		.section	.text.i2c_lld_master_receive_timeout,"ax",%progbits
 856              		.align	1
 857              		.p2align 4,,15
 858              		.global	i2c_lld_master_receive_timeout
 859              		.syntax unified
 860              		.thumb
 861              		.thumb_func
 862              		.fpu fpv4-sp-d16
 863              		.type	i2c_lld_master_receive_timeout, %function
 864              	i2c_lld_master_receive_timeout:
 865              		@ args = 4, pretend = 0, frame = 0
 866              		@ frame_needed = 0, uses_anonymous_args = 0
 867 0000 2DE9F041 		push	{r4, r5, r6, r7, r8, lr}
 868 0004 4900     		lsls	r1, r1, #1
 869 0006 1E46     		mov	r6, r3
 870 0008 03EB4303 		add	r3, r3, r3, lsl #1
 871 000c 41F00101 		orr	r1, r1, #1
 872 0010 5B00     		lsls	r3, r3, #1
 873 0012 4FF00008 		mov	r8, #0
 874 0016 0184     		strh	r1, [r0, #32]	@ movhi
 875 0018 C363     		str	r3, [r0, #60]
 876 001a C0F83880 		str	r8, [r0, #56]
 877 001e C0F80880 		str	r8, [r0, #8]
 878 0022 456B     		ldr	r5, [r0, #52]
 879 0024 0446     		mov	r4, r0
 880 0026 1746     		mov	r7, r2
 881 0028 FFF7FEFF 		bl	__stats_stop_measure_crit_thd
 882              		.syntax unified
 883              	@ 493 "/home/gautier/dev/paparazzi/sw/ext/chibios/os/common/ext/ARM/CMSIS/Core/Include/cmsis_gcc.h"
 884 002c 88F31188 		MSR basepri, r8
 885              	@ 0 "" 2
 886              		.thumb
 887              		.syntax unified
 888 0030 E36A     		ldr	r3, [r4, #44]
 889 0032 626A     		ldr	r2, [r4, #36]
 890 0034 1B68     		ldr	r3, [r3]
 891 0036 1A60     		str	r2, [r3]
 892 0038 DF60     		str	r7, [r3, #12]
 893 003a 214F     		ldr	r7, .L163
 894 003c 5E60     		str	r6, [r3, #4]
 895 003e FB69     		ldr	r3, [r7, #28]
 896 0040 3023     		movs	r3, #48
 897              		.syntax unified
 898              	@ 493 "/home/gautier/dev/paparazzi/sw/ext/chibios/os/common/ext/ARM/CMSIS/Core/Include/cmsis_gcc.h"
 899 0042 83F31188 		MSR basepri, r3
 900              	@ 0 "" 2
 901              		.thumb
 902              		.syntax unified
 903 0046 FFF7FEFF 		bl	__stats_start_measure_crit_thd
 904 004a AB69     		ldr	r3, [r5, #24]
 905 004c 9907     		lsls	r1, r3, #30
 906 004e 25D4     		bmi	.L155
 907 0050 2B68     		ldr	r3, [r5]
 908 0052 9A05     		lsls	r2, r3, #22
 909 0054 22D4     		bmi	.L155
 910 0056 6B68     		ldr	r3, [r5, #4]
ARM GAS  /tmp/cc0aQ8QA.s 			page 17


 911 0058 0699     		ldr	r1, [sp, #24]
 912 005a 0122     		movs	r2, #1
 913 005c 43F40073 		orr	r3, r3, #512
 914 0060 84F84020 		strb	r2, [r4, #64]
 915 0064 6B60     		str	r3, [r5, #4]
 916 0066 2B68     		ldr	r3, [r5]
 917 0068 43F4A063 		orr	r3, r3, #1280
 918 006c 2B60     		str	r3, [r5]
 919 006e 04F11C00 		add	r0, r4, #28
 920 0072 FFF7FEFF 		bl	chThdSuspendTimeoutS
 921 0076 E16A     		ldr	r1, [r4, #44]
 922 0078 0A68     		ldr	r2, [r1]
 923 007a 1368     		ldr	r3, [r2]
 924 007c 23F01F03 		bic	r3, r3, #31
 925 0080 1360     		str	r3, [r2]
 926              	.L159:
 927 0082 1368     		ldr	r3, [r2]
 928 0084 13F00103 		ands	r3, r3, #1
 929 0088 FBD1     		bne	.L159
 930 008a 4D68     		ldr	r5, [r1, #4]
 931 008c 497A     		ldrb	r1, [r1, #9]	@ zero_extendqisi2
 932 008e 3D22     		movs	r2, #61
 933 0090 8A40     		lsls	r2, r2, r1
 934 0092 2A60     		str	r2, [r5]
 935 0094 84F84030 		strb	r3, [r4, #64]
 936              	.L154:
 937 0098 BDE8F081 		pop	{r4, r5, r6, r7, r8, pc}
 938              	.L155:
 939 009c E16A     		ldr	r1, [r4, #44]
 940 009e FB69     		ldr	r3, [r7, #28]
 941 00a0 0A68     		ldr	r2, [r1]
 942 00a2 1368     		ldr	r3, [r2]
 943 00a4 23F01F03 		bic	r3, r3, #31
 944 00a8 1360     		str	r3, [r2]
 945              	.L157:
 946 00aa 1368     		ldr	r3, [r2]
 947 00ac DB07     		lsls	r3, r3, #31
 948 00ae FCD4     		bmi	.L157
 949 00b0 487A     		ldrb	r0, [r1, #9]	@ zero_extendqisi2
 950 00b2 4A68     		ldr	r2, [r1, #4]
 951 00b4 3D23     		movs	r3, #61
 952 00b6 8340     		lsls	r3, r3, r0
 953 00b8 1360     		str	r3, [r2]
 954 00ba 4FF0FF30 		mov	r0, #-1
 955 00be EBE7     		b	.L154
 956              	.L164:
 957              		.align	2
 958              	.L163:
 959 00c0 00000000 		.word	ch0
 960              		.size	i2c_lld_master_receive_timeout, .-i2c_lld_master_receive_timeout
 961              		.section	.text.i2c_lld_master_transmit_timeout,"ax",%progbits
 962              		.align	1
 963              		.p2align 4,,15
 964              		.global	i2c_lld_master_transmit_timeout
 965              		.syntax unified
 966              		.thumb
 967              		.thumb_func
ARM GAS  /tmp/cc0aQ8QA.s 			page 18


 968              		.fpu fpv4-sp-d16
 969              		.type	i2c_lld_master_transmit_timeout, %function
 970              	i2c_lld_master_transmit_timeout:
 971              		@ args = 12, pretend = 0, frame = 0
 972              		@ frame_needed = 0, uses_anonymous_args = 0
 973 0000 2DE9F843 		push	{r3, r4, r5, r6, r7, r8, r9, lr}
 974 0004 099F     		ldr	r7, [sp, #36]
 975 0006 456B     		ldr	r5, [r0, #52]
 976 0008 4900     		lsls	r1, r1, #1
 977 000a 0184     		strh	r1, [r0, #32]	@ movhi
 978 000c D919     		adds	r1, r3, r7
 979 000e 01EB4101 		add	r1, r1, r1, lsl #1
 980 0012 4900     		lsls	r1, r1, #1
 981 0014 4FF00009 		mov	r9, #0
 982 0018 C163     		str	r1, [r0, #60]
 983 001a C0F83890 		str	r9, [r0, #56]
 984 001e C0F80890 		str	r9, [r0, #8]
 985 0022 1E46     		mov	r6, r3
 986 0024 0446     		mov	r4, r0
 987 0026 9046     		mov	r8, r2
 988 0028 FFF7FEFF 		bl	__stats_stop_measure_crit_thd
 989              		.syntax unified
 990              	@ 493 "/home/gautier/dev/paparazzi/sw/ext/chibios/os/common/ext/ARM/CMSIS/Core/Include/cmsis_gcc.h"
 991 002c 89F31188 		MSR basepri, r9
 992              	@ 0 "" 2
 993              		.thumb
 994              		.syntax unified
 995 0030 236B     		ldr	r3, [r4, #48]
 996 0032 A06A     		ldr	r0, [r4, #40]
 997 0034 1968     		ldr	r1, [r3]
 998 0036 E36A     		ldr	r3, [r4, #44]
 999 0038 626A     		ldr	r2, [r4, #36]
 1000 003a 1B68     		ldr	r3, [r3]
 1001 003c 0860     		str	r0, [r1]
 1002 003e C1F80C80 		str	r8, [r1, #12]
 1003 0042 4E60     		str	r6, [r1, #4]
 1004 0044 1A60     		str	r2, [r3]
 1005 0046 304E     		ldr	r6, .L178
 1006 0048 089A     		ldr	r2, [sp, #32]
 1007 004a DA60     		str	r2, [r3, #12]
 1008 004c 5F60     		str	r7, [r3, #4]
 1009 004e F369     		ldr	r3, [r6, #28]
 1010 0050 3023     		movs	r3, #48
 1011              		.syntax unified
 1012              	@ 493 "/home/gautier/dev/paparazzi/sw/ext/chibios/os/common/ext/ARM/CMSIS/Core/Include/cmsis_gcc.h"
 1013 0052 83F31188 		MSR basepri, r3
 1014              	@ 0 "" 2
 1015              		.thumb
 1016              		.syntax unified
 1017 0056 FFF7FEFF 		bl	__stats_start_measure_crit_thd
 1018 005a AB69     		ldr	r3, [r5, #24]
 1019 005c 9B07     		lsls	r3, r3, #30
 1020 005e 33D4     		bmi	.L166
 1021 0060 2B68     		ldr	r3, [r5]
 1022 0062 9F05     		lsls	r7, r3, #22
 1023 0064 30D4     		bmi	.L166
 1024 0066 6B68     		ldr	r3, [r5, #4]
ARM GAS  /tmp/cc0aQ8QA.s 			page 19


 1025 0068 0A99     		ldr	r1, [sp, #40]
 1026 006a 0122     		movs	r2, #1
 1027 006c 43F40073 		orr	r3, r3, #512
 1028 0070 84F84020 		strb	r2, [r4, #64]
 1029 0074 6B60     		str	r3, [r5, #4]
 1030 0076 2B68     		ldr	r3, [r5]
 1031 0078 43F48073 		orr	r3, r3, #256
 1032 007c 2B60     		str	r3, [r5]
 1033 007e 04F11C00 		add	r0, r4, #28
 1034 0082 FFF7FEFF 		bl	chThdSuspendTimeoutS
 1035 0086 216B     		ldr	r1, [r4, #48]
 1036 0088 0A68     		ldr	r2, [r1]
 1037 008a 1368     		ldr	r3, [r2]
 1038 008c 23F01F03 		bic	r3, r3, #31
 1039 0090 1360     		str	r3, [r2]
 1040              	.L171:
 1041 0092 1368     		ldr	r3, [r2]
 1042 0094 DB07     		lsls	r3, r3, #31
 1043 0096 FCD4     		bmi	.L171
 1044 0098 4D7A     		ldrb	r5, [r1, #9]	@ zero_extendqisi2
 1045 009a 4A68     		ldr	r2, [r1, #4]
 1046 009c E16A     		ldr	r1, [r4, #44]
 1047 009e 3D23     		movs	r3, #61
 1048 00a0 AB40     		lsls	r3, r3, r5
 1049 00a2 1360     		str	r3, [r2]
 1050 00a4 0A68     		ldr	r2, [r1]
 1051 00a6 1368     		ldr	r3, [r2]
 1052 00a8 23F01F03 		bic	r3, r3, #31
 1053 00ac 1360     		str	r3, [r2]
 1054              	.L172:
 1055 00ae 1368     		ldr	r3, [r2]
 1056 00b0 13F00103 		ands	r3, r3, #1
 1057 00b4 FBD1     		bne	.L172
 1058 00b6 4D68     		ldr	r5, [r1, #4]
 1059 00b8 497A     		ldrb	r1, [r1, #9]	@ zero_extendqisi2
 1060 00ba 3D22     		movs	r2, #61
 1061 00bc 8A40     		lsls	r2, r2, r1
 1062 00be 2A60     		str	r2, [r5]
 1063 00c0 84F84030 		strb	r3, [r4, #64]
 1064              	.L165:
 1065 00c4 BDE8F883 		pop	{r3, r4, r5, r6, r7, r8, r9, pc}
 1066              	.L166:
 1067 00c8 206B     		ldr	r0, [r4, #48]
 1068 00ca F369     		ldr	r3, [r6, #28]
 1069 00cc 0268     		ldr	r2, [r0]
 1070 00ce 1368     		ldr	r3, [r2]
 1071 00d0 23F01F03 		bic	r3, r3, #31
 1072 00d4 1360     		str	r3, [r2]
 1073              	.L168:
 1074 00d6 1368     		ldr	r3, [r2]
 1075 00d8 DD07     		lsls	r5, r3, #31
 1076 00da FCD4     		bmi	.L168
 1077 00dc 457A     		ldrb	r5, [r0, #9]	@ zero_extendqisi2
 1078 00de E16A     		ldr	r1, [r4, #44]
 1079 00e0 4068     		ldr	r0, [r0, #4]
 1080 00e2 0A68     		ldr	r2, [r1]
 1081 00e4 3D23     		movs	r3, #61
ARM GAS  /tmp/cc0aQ8QA.s 			page 20


 1082 00e6 AB40     		lsls	r3, r3, r5
 1083 00e8 0360     		str	r3, [r0]
 1084 00ea 1368     		ldr	r3, [r2]
 1085 00ec 23F01F03 		bic	r3, r3, #31
 1086 00f0 1360     		str	r3, [r2]
 1087              	.L169:
 1088 00f2 1368     		ldr	r3, [r2]
 1089 00f4 D807     		lsls	r0, r3, #31
 1090 00f6 FCD4     		bmi	.L169
 1091 00f8 487A     		ldrb	r0, [r1, #9]	@ zero_extendqisi2
 1092 00fa 4A68     		ldr	r2, [r1, #4]
 1093 00fc 3D23     		movs	r3, #61
 1094 00fe 8340     		lsls	r3, r3, r0
 1095 0100 1360     		str	r3, [r2]
 1096 0102 4FF0FF30 		mov	r0, #-1
 1097 0106 DDE7     		b	.L165
 1098              	.L179:
 1099              		.align	2
 1100              	.L178:
 1101 0108 00000000 		.word	ch0
 1102              		.size	i2c_lld_master_transmit_timeout, .-i2c_lld_master_transmit_timeout
 1103              		.global	I2CD3
 1104              		.section	.bss.I2CD3,"aw",%nobits
 1105              		.align	2
 1106              		.set	.LANCHOR0,. + 0
 1107              		.type	I2CD3, %object
 1108              		.size	I2CD3, 68
 1109              	I2CD3:
 1110 0000 00000000 		.space	68
 1110      00000000 
 1110      00000000 
 1110      00000000 
 1110      00000000 
 1111              		.ident	"GCC: (15:10.3-2021.07-4) 10.3.1 20210621 (release)"
ARM GAS  /tmp/cc0aQ8QA.s 			page 21

