ARM GAS  /tmp/ccY7bcJO.s 			page 1


   1              		.cpu cortex-m4
   2              		.eabi_attribute 27, 1
   3              		.eabi_attribute 20, 1
   4              		.eabi_attribute 21, 1
   5              		.eabi_attribute 23, 3
   6              		.eabi_attribute 24, 1
   7              		.eabi_attribute 25, 1
   8              		.eabi_attribute 26, 1
   9              		.eabi_attribute 30, 2
  10              		.eabi_attribute 34, 1
  11              		.eabi_attribute 18, 4
  12              		.file	"hal_serial_lld.c"
  13              		.text
  14              		.section	.text.notify6,"ax",%progbits
  15              		.align	1
  16              		.p2align 4,,15
  17              		.arch armv7e-m
  18              		.syntax unified
  19              		.thumb
  20              		.thumb_func
  21              		.fpu fpv4-sp-d16
  22              		.type	notify6, %function
  23              	notify6:
  24              		@ args = 0, pretend = 0, frame = 0
  25              		@ frame_needed = 0, uses_anonymous_args = 0
  26              		@ link register save eliminated.
  27 0000 024A     		ldr	r2, .L3
  28 0002 D368     		ldr	r3, [r2, #12]
  29 0004 43F0C003 		orr	r3, r3, #192
  30 0008 D360     		str	r3, [r2, #12]
  31 000a 7047     		bx	lr
  32              	.L4:
  33              		.align	2
  34              	.L3:
  35 000c 00140140 		.word	1073812480
  36              		.size	notify6, .-notify6
  37              		.section	.text.sd_lld_init,"ax",%progbits
  38              		.align	1
  39              		.p2align 4,,15
  40              		.global	sd_lld_init
  41              		.syntax unified
  42              		.thumb
  43              		.thumb_func
  44              		.fpu fpv4-sp-d16
  45              		.type	sd_lld_init, %function
  46              	sd_lld_init:
  47              		@ args = 0, pretend = 0, frame = 0
  48              		@ frame_needed = 0, uses_anonymous_args = 0
  49 0000 10B5     		push	{r4, lr}
  50 0002 064C     		ldr	r4, .L7
  51 0004 064A     		ldr	r2, .L7+4
  52 0006 0021     		movs	r1, #0
  53 0008 2046     		mov	r0, r4
  54 000a FFF7FEFF 		bl	sdObjectInit
  55 000e 054A     		ldr	r2, .L7+8
  56 0010 054B     		ldr	r3, .L7+12
  57 0012 C4F85428 		str	r2, [r4, #2132]
ARM GAS  /tmp/ccY7bcJO.s 			page 2


  58 0016 C4F85838 		str	r3, [r4, #2136]
  59 001a 10BD     		pop	{r4, pc}
  60              	.L8:
  61              		.align	2
  62              	.L7:
  63 001c 00000000 		.word	.LANCHOR0
  64 0020 00000000 		.word	notify6
  65 0024 00140140 		.word	1073812480
  66 0028 00BD0105 		.word	84000000
  67              		.size	sd_lld_init, .-sd_lld_init
  68              		.section	.text.sd_lld_start,"ax",%progbits
  69              		.align	1
  70              		.p2align 4,,15
  71              		.global	sd_lld_start
  72              		.syntax unified
  73              		.thumb
  74              		.thumb_func
  75              		.fpu fpv4-sp-d16
  76              		.type	sd_lld_start, %function
  77              	sd_lld_start:
  78              		@ args = 0, pretend = 0, frame = 0
  79              		@ frame_needed = 0, uses_anonymous_args = 0
  80 0000 F0B5     		push	{r4, r5, r6, r7, lr}
  81 0002 0029     		cmp	r1, #0
  82 0004 35D0     		beq	.L10
  83 0006 037A     		ldrb	r3, [r0, #8]	@ zero_extendqisi2
  84 0008 B1F804E0 		ldrh	lr, [r1, #4]
  85 000c 0A68     		ldr	r2, [r1]
  86 000e CE88     		ldrh	r6, [r1, #6]
  87 0010 0C89     		ldrh	r4, [r1, #8]
  88 0012 B1F904C0 		ldrsh	ip, [r1, #4]
  89 0016 012B     		cmp	r3, #1
  90 0018 4EF40455 		orr	r5, lr, #8448
  91 001c 4FEA5203 		lsr	r3, r2, #1
  92 0020 46F04006 		orr	r6, r6, #64
  93 0024 44F00104 		orr	r4, r4, #1
  94 0028 45F02C05 		orr	r5, r5, #44
  95 002c 0EF4A051 		and	r1, lr, #5120
  96 0030 2AD0     		beq	.L15
  97              	.L12:
  98 0032 D0F85878 		ldr	r7, [r0, #2136]
  99 0036 BCF1000F 		cmp	ip, #0
 100 003a 3B44     		add	r3, r3, r7
 101 003c B3FBF2F3 		udiv	r3, r3, r2
 102 0040 D0F85428 		ldr	r2, [r0, #2132]
 103 0044 05DA     		bge	.L13
 104 0046 23F0070C 		bic	ip, r3, #7
 105 004a 03F00703 		and	r3, r3, #7
 106 004e 43EA4C03 		orr	r3, r3, ip, lsl #1
 107              	.L13:
 108 0052 9360     		str	r3, [r2, #8]
 109 0054 0023     		movs	r3, #0
 110 0056 1661     		str	r6, [r2, #16]
 111 0058 B1F5806F 		cmp	r1, #1024
 112 005c 5461     		str	r4, [r2, #20]
 113 005e D560     		str	r5, [r2, #12]
 114 0060 1360     		str	r3, [r2]
ARM GAS  /tmp/ccY7bcJO.s 			page 3


 115 0062 1368     		ldr	r3, [r2]
 116 0064 5368     		ldr	r3, [r2, #4]
 117 0066 0CBF     		ite	eq
 118 0068 7F23     		moveq	r3, #127
 119 006a FF23     		movne	r3, #255
 120 006c 80F85C38 		strb	r3, [r0, #2140]
 121 0070 F0BD     		pop	{r4, r5, r6, r7, pc}
 122              	.L10:
 123 0072 047A     		ldrb	r4, [r0, #8]	@ zero_extendqisi2
 124 0074 012C     		cmp	r4, #1
 125 0076 19D1     		bne	.L20
 126 0078 42F22C15 		movw	r5, #8492
 127 007c 4026     		movs	r6, #64
 128 007e 8C46     		mov	ip, r1
 129 0080 4FF4E143 		mov	r3, #28800
 130 0084 4FF46142 		mov	r2, #57600
 131              	.L15:
 132 0088 154F     		ldr	r7, .L22
 133 008a B842     		cmp	r0, r7
 134 008c D1D1     		bne	.L12
 135 008e 154F     		ldr	r7, .L22+4
 136 0090 D7F844E0 		ldr	lr, [r7, #68]
 137 0094 4EF0200E 		orr	lr, lr, #32
 138 0098 C7F844E0 		str	lr, [r7, #68]
 139 009c D7F864E0 		ldr	lr, [r7, #100]
 140 00a0 4EF0200E 		orr	lr, lr, #32
 141 00a4 C7F864E0 		str	lr, [r7, #100]
 142 00a8 7F6E     		ldr	r7, [r7, #100]
 143 00aa C2E7     		b	.L12
 144              	.L20:
 145 00ac D0F85838 		ldr	r3, [r0, #2136]
 146 00b0 0D4C     		ldr	r4, .L22+8
 147 00b2 D0F85428 		ldr	r2, [r0, #2132]
 148 00b6 03F5E143 		add	r3, r3, #28800
 149 00ba A4FB0343 		umull	r4, r3, r4, r3
 150 00be DB0B     		lsrs	r3, r3, #15
 151 00c0 4024     		movs	r4, #64
 152 00c2 9360     		str	r3, [r2, #8]
 153 00c4 1461     		str	r4, [r2, #16]
 154 00c6 42F22C13 		movw	r3, #8492
 155 00ca 0124     		movs	r4, #1
 156 00cc 5461     		str	r4, [r2, #20]
 157 00ce D360     		str	r3, [r2, #12]
 158 00d0 1160     		str	r1, [r2]
 159 00d2 1368     		ldr	r3, [r2]
 160 00d4 5268     		ldr	r2, [r2, #4]
 161 00d6 FF23     		movs	r3, #255
 162 00d8 80F85C38 		strb	r3, [r0, #2140]
 163 00dc F0BD     		pop	{r4, r5, r6, r7, pc}
 164              	.L23:
 165 00de 00BF     		.align	2
 166              	.L22:
 167 00e0 00000000 		.word	.LANCHOR0
 168 00e4 00380240 		.word	1073887232
 169 00e8 C5B3A291 		.word	-1851608123
 170              		.size	sd_lld_start, .-sd_lld_start
 171              		.section	.text.sd_lld_stop,"ax",%progbits
ARM GAS  /tmp/ccY7bcJO.s 			page 4


 172              		.align	1
 173              		.p2align 4,,15
 174              		.global	sd_lld_stop
 175              		.syntax unified
 176              		.thumb
 177              		.thumb_func
 178              		.fpu fpv4-sp-d16
 179              		.type	sd_lld_stop, %function
 180              	sd_lld_stop:
 181              		@ args = 0, pretend = 0, frame = 0
 182              		@ frame_needed = 0, uses_anonymous_args = 0
 183              		@ link register save eliminated.
 184 0000 037A     		ldrb	r3, [r0, #8]	@ zero_extendqisi2
 185 0002 022B     		cmp	r3, #2
 186 0004 00D0     		beq	.L28
 187              	.L24:
 188 0006 7047     		bx	lr
 189              	.L28:
 190 0008 0949     		ldr	r1, .L29
 191 000a D0F85438 		ldr	r3, [r0, #2132]
 192 000e 0022     		movs	r2, #0
 193 0010 8842     		cmp	r0, r1
 194 0012 DA60     		str	r2, [r3, #12]
 195 0014 1A61     		str	r2, [r3, #16]
 196 0016 5A61     		str	r2, [r3, #20]
 197 0018 F5D1     		bne	.L24
 198 001a 064B     		ldr	r3, .L29+4
 199 001c 5A6C     		ldr	r2, [r3, #68]
 200 001e 22F02002 		bic	r2, r2, #32
 201 0022 5A64     		str	r2, [r3, #68]
 202 0024 5A6E     		ldr	r2, [r3, #100]
 203 0026 22F02002 		bic	r2, r2, #32
 204 002a 5A66     		str	r2, [r3, #100]
 205 002c 5B6E     		ldr	r3, [r3, #100]
 206 002e EAE7     		b	.L24
 207              	.L30:
 208              		.align	2
 209              	.L29:
 210 0030 00000000 		.word	.LANCHOR0
 211 0034 00380240 		.word	1073887232
 212              		.size	sd_lld_stop, .-sd_lld_stop
 213              		.section	.text.sd_lld_serve_interrupt,"ax",%progbits
 214              		.align	1
 215              		.p2align 4,,15
 216              		.global	sd_lld_serve_interrupt
 217              		.syntax unified
 218              		.thumb
 219              		.thumb_func
 220              		.fpu fpv4-sp-d16
 221              		.type	sd_lld_serve_interrupt, %function
 222              	sd_lld_serve_interrupt:
 223              		@ args = 0, pretend = 0, frame = 0
 224              		@ frame_needed = 0, uses_anonymous_args = 0
 225 0000 2DE9F041 		push	{r4, r5, r6, r7, r8, lr}
 226 0004 D0F85458 		ldr	r5, [r0, #2132]
 227 0008 D5F80C80 		ldr	r8, [r5, #12]
 228 000c 2B68     		ldr	r3, [r5]
ARM GAS  /tmp/ccY7bcJO.s 			page 5


 229 000e DA05     		lsls	r2, r3, #23
 230 0010 0646     		mov	r6, r0
 231 0012 9CB2     		uxth	r4, r3
 232 0014 46D4     		bmi	.L83
 233              	.L32:
 234 0016 3023     		movs	r3, #48
 235              		.syntax unified
 236              	@ 493 "/home/gautier/dev/paparazzi/sw/ext/chibios/os/common/ext/ARM/CMSIS/Core/Include/cmsis_gcc.h"
 237 0018 83F31188 		MSR basepri, r3
 238              	@ 0 "" 2
 239              		.thumb
 240              		.syntax unified
 241 001c FFF7FEFF 		bl	__stats_start_measure_crit_isr
 242 0020 14F02F0F 		tst	r4, #47
 243 0024 2DD0     		beq	.L33
 244 0026 371D     		adds	r7, r6, #4
 245 0028 07E0     		b	.L40
 246              	.L34:
 247 002a A006     		lsls	r0, r4, #26
 248 002c 6B68     		ldr	r3, [r5, #4]
 249 002e 1DD4     		bmi	.L84
 250              	.L39:
 251 0030 2B68     		ldr	r3, [r5]
 252 0032 13F02F0F 		tst	r3, #47
 253 0036 9CB2     		uxth	r4, r3
 254 0038 23D0     		beq	.L33
 255              	.L40:
 256 003a 2307     		lsls	r3, r4, #28
 257 003c F5D0     		beq	.L34
 258 003e 14F0080F 		tst	r4, #8
 259 0042 0CBF     		ite	eq
 260 0044 0021     		moveq	r1, #0
 261 0046 8021     		movne	r1, #128
 262 0048 E007     		lsls	r0, r4, #31
 263 004a 48BF     		it	mi
 264 004c 41F02001 		orrmi	r1, r1, #32
 265 0050 A207     		lsls	r2, r4, #30
 266 0052 48BF     		it	mi
 267 0054 41F04001 		orrmi	r1, r1, #64
 268 0058 6307     		lsls	r3, r4, #29
 269 005a 48BF     		it	mi
 270 005c 41F48071 		orrmi	r1, r1, #256
 271 0060 3846     		mov	r0, r7
 272 0062 FFF7FEFF 		bl	chEvtBroadcastFlagsI
 273 0066 A006     		lsls	r0, r4, #26
 274 0068 6B68     		ldr	r3, [r5, #4]
 275 006a E1D5     		bpl	.L39
 276              	.L84:
 277 006c 96F85C18 		ldrb	r1, [r6, #2140]	@ zero_extendqisi2
 278 0070 3046     		mov	r0, r6
 279 0072 1940     		ands	r1, r1, r3
 280 0074 FFF7FEFF 		bl	sdIncomingDataI
 281 0078 2B68     		ldr	r3, [r5]
 282 007a 13F02F0F 		tst	r3, #47
 283 007e 9CB2     		uxth	r4, r3
 284 0080 DBD1     		bne	.L40
 285              	.L33:
ARM GAS  /tmp/ccY7bcJO.s 			page 6


 286 0082 FFF7FEFF 		bl	__stats_stop_measure_crit_isr
 287 0086 0023     		movs	r3, #0
 288              		.syntax unified
 289              	@ 493 "/home/gautier/dev/paparazzi/sw/ext/chibios/os/common/ext/ARM/CMSIS/Core/Include/cmsis_gcc.h"
 290 0088 83F31188 		MSR basepri, r3
 291              	@ 0 "" 2
 292              		.thumb
 293              		.syntax unified
 294 008c 18F0800F 		tst	r8, #128
 295 0090 01D0     		beq	.L41
 296 0092 2206     		lsls	r2, r4, #24
 297 0094 29D4     		bmi	.L85
 298              	.L41:
 299 0096 18F0400F 		tst	r8, #64
 300 009a 01D0     		beq	.L31
 301 009c 6306     		lsls	r3, r4, #25
 302 009e 14D4     		bmi	.L86
 303              	.L31:
 304 00a0 BDE8F081 		pop	{r4, r5, r6, r7, r8, pc}
 305              	.L83:
 306 00a4 3023     		movs	r3, #48
 307              		.syntax unified
 308              	@ 493 "/home/gautier/dev/paparazzi/sw/ext/chibios/os/common/ext/ARM/CMSIS/Core/Include/cmsis_gcc.h"
 309 00a6 83F31188 		MSR basepri, r3
 310              	@ 0 "" 2
 311              		.thumb
 312              		.syntax unified
 313 00aa FFF7FEFF 		bl	__stats_start_measure_crit_isr
 314 00ae 4FF40071 		mov	r1, #512
 315 00b2 301D     		adds	r0, r6, #4
 316 00b4 FFF7FEFF 		bl	chEvtBroadcastFlagsI
 317 00b8 6FF48073 		mvn	r3, #256
 318 00bc 2B60     		str	r3, [r5]
 319 00be FFF7FEFF 		bl	__stats_stop_measure_crit_isr
 320 00c2 0023     		movs	r3, #0
 321              		.syntax unified
 322              	@ 493 "/home/gautier/dev/paparazzi/sw/ext/chibios/os/common/ext/ARM/CMSIS/Core/Include/cmsis_gcc.h"
 323 00c4 83F31188 		MSR basepri, r3
 324              	@ 0 "" 2
 325              		.thumb
 326              		.syntax unified
 327 00c8 A5E7     		b	.L32
 328              	.L86:
 329 00ca 3023     		movs	r3, #48
 330              		.syntax unified
 331              	@ 493 "/home/gautier/dev/paparazzi/sw/ext/chibios/os/common/ext/ARM/CMSIS/Core/Include/cmsis_gcc.h"
 332 00cc 83F31188 		MSR basepri, r3
 333              	@ 0 "" 2
 334              		.thumb
 335              		.syntax unified
 336 00d0 FFF7FEFF 		bl	__stats_start_measure_crit_isr
 337 00d4 D6E91123 		ldrd	r2, r3, [r6, #68]
 338 00d8 9A42     		cmp	r2, r3
 339 00da 18D0     		beq	.L87
 340              	.L45:
 341 00dc FFF7FEFF 		bl	__stats_stop_measure_crit_isr
 342 00e0 0023     		movs	r3, #0
ARM GAS  /tmp/ccY7bcJO.s 			page 7


 343              		.syntax unified
 344              	@ 493 "/home/gautier/dev/paparazzi/sw/ext/chibios/os/common/ext/ARM/CMSIS/Core/Include/cmsis_gcc.h"
 345 00e2 83F31188 		MSR basepri, r3
 346              	@ 0 "" 2
 347              		.thumb
 348              		.syntax unified
 349 00e6 BDE8F081 		pop	{r4, r5, r6, r7, r8, pc}
 350              	.L85:
 351 00ea 3023     		movs	r3, #48
 352              		.syntax unified
 353              	@ 493 "/home/gautier/dev/paparazzi/sw/ext/chibios/os/common/ext/ARM/CMSIS/Core/Include/cmsis_gcc.h"
 354 00ec 83F31188 		MSR basepri, r3
 355              	@ 0 "" 2
 356              		.thumb
 357              		.syntax unified
 358 00f0 FFF7FEFF 		bl	__stats_start_measure_crit_isr
 359 00f4 06F13000 		add	r0, r6, #48
 360 00f8 FFF7FEFF 		bl	oqGetI
 361 00fc 0028     		cmp	r0, #0
 362 00fe 13DB     		blt	.L88
 363 0100 6860     		str	r0, [r5, #4]
 364              	.L43:
 365 0102 FFF7FEFF 		bl	__stats_stop_measure_crit_isr
 366 0106 0023     		movs	r3, #0
 367              		.syntax unified
 368              	@ 493 "/home/gautier/dev/paparazzi/sw/ext/chibios/os/common/ext/ARM/CMSIS/Core/Include/cmsis_gcc.h"
 369 0108 83F31188 		MSR basepri, r3
 370              	@ 0 "" 2
 371              		.thumb
 372              		.syntax unified
 373 010c C3E7     		b	.L41
 374              	.L87:
 375 010e B36B     		ldr	r3, [r6, #56]
 376 0110 002B     		cmp	r3, #0
 377 0112 E3D0     		beq	.L45
 378 0114 1021     		movs	r1, #16
 379 0116 301D     		adds	r0, r6, #4
 380 0118 FFF7FEFF 		bl	chEvtBroadcastFlagsI
 381 011c 4FF6BF73 		movw	r3, #65471
 382 0120 08EA0303 		and	r3, r8, r3
 383 0124 EB60     		str	r3, [r5, #12]
 384 0126 D9E7     		b	.L45
 385              	.L88:
 386 0128 0821     		movs	r1, #8
 387 012a 301D     		adds	r0, r6, #4
 388 012c FFF7FEFF 		bl	chEvtBroadcastFlagsI
 389 0130 4FF67F73 		movw	r3, #65407
 390 0134 08EA0303 		and	r3, r8, r3
 391 0138 EB60     		str	r3, [r5, #12]
 392 013a E2E7     		b	.L43
 393              		.size	sd_lld_serve_interrupt, .-sd_lld_serve_interrupt
 394              		.global	SD6
 395              		.section	.bss.SD6,"aw",%nobits
 396              		.align	2
 397              		.set	.LANCHOR0,. + 0
 398              		.type	SD6, %object
 399              		.size	SD6, 2144
ARM GAS  /tmp/ccY7bcJO.s 			page 8


 400              	SD6:
 401 0000 00000000 		.space	2144
 401      00000000 
 401      00000000 
 401      00000000 
 401      00000000 
 402              		.ident	"GCC: (15:10.3-2021.07-4) 10.3.1 20210621 (release)"
ARM GAS  /tmp/ccY7bcJO.s 			page 9

