ARM GAS  /tmp/ccnEG5qa.s 			page 1


   1              		.cpu cortex-m4
   2              		.eabi_attribute 27, 1
   3              		.eabi_attribute 20, 1
   4              		.eabi_attribute 21, 1
   5              		.eabi_attribute 23, 3
   6              		.eabi_attribute 24, 1
   7              		.eabi_attribute 25, 1
   8              		.eabi_attribute 26, 1
   9              		.eabi_attribute 30, 2
  10              		.eabi_attribute 34, 1
  11              		.eabi_attribute 18, 4
  12              		.file	"i2c.c"
  13              		.text
  14              		.section	.rodata.send_i2c_err.str1.4,"aMS",%progbits,1
  15              		.align	2
  16              	.LC0:
  17 0000 4932435F 		.ascii	"I2C_ERRORS\000"
  17      4552524F 
  17      525300
  18              		.section	.text.send_i2c_err,"ax",%progbits
  19              		.align	1
  20              		.p2align 4,,15
  21              		.arch armv7e-m
  22              		.syntax unified
  23              		.thumb
  24              		.thumb_func
  25              		.fpu fpv4-sp-d16
  26              		.type	send_i2c_err, %function
  27              	send_i2c_err:
  28              		@ args = 0, pretend = 0, frame = 48
  29              		@ frame_needed = 0, uses_anonymous_args = 0
  30 0000 2DE9F041 		push	{r4, r5, r6, r7, r8, lr}
  31 0004 8B4C     		ldr	r4, .L11
  32 0006 2278     		ldrb	r2, [r4]	@ zero_extendqisi2
  33 0008 032A     		cmp	r2, #3
  34 000a 8EB0     		sub	sp, sp, #56
  35 000c 09D0     		beq	.L9
  36              	.L2:
  37 000e 0132     		adds	r2, r2, #1
  38 0010 D2B2     		uxtb	r2, r2
  39 0012 072A     		cmp	r2, #7
  40 0014 0ABF     		itet	eq
  41 0016 0023     		moveq	r3, #0
  42 0018 2270     		strbne	r2, [r4]
  43 001a 2370     		strbeq	r3, [r4]
  44 001c 0EB0     		add	sp, sp, #56
  45              		@ sp needed
  46 001e BDE8F081 		pop	{r4, r5, r6, r7, r8, pc}
  47              	.L9:
  48 0022 854B     		ldr	r3, .L11+4
  49 0024 DB6B     		ldr	r3, [r3, #60]
  50 0026 1E88     		ldrh	r6, [r3]
  51 0028 8DF80F20 		strb	r2, [sp, #15]
  52 002c 5A88     		ldrh	r2, [r3, #2]
  53 002e ADF81220 		strh	r2, [sp, #18]	@ movhi
  54 0032 9A88     		ldrh	r2, [r3, #4]
  55 0034 ADF81420 		strh	r2, [sp, #20]	@ movhi
ARM GAS  /tmp/ccnEG5qa.s 			page 2


  56 0038 DA88     		ldrh	r2, [r3, #6]
  57 003a ADF81620 		strh	r2, [sp, #22]	@ movhi
  58 003e 0C90     		str	r0, [sp, #48]
  59 0040 0268     		ldr	r2, [r0]
  60 0042 1889     		ldrh	r0, [r3, #8]
  61 0044 ADF81800 		strh	r0, [sp, #24]	@ movhi
  62 0048 5889     		ldrh	r0, [r3, #10]
  63 004a 0D91     		str	r1, [sp, #52]
  64 004c 1F21     		movs	r1, #31
  65 004e ADF82C10 		strh	r1, [sp, #44]	@ movhi
  66 0052 9989     		ldrh	r1, [r3, #12]
  67 0054 ADF81C10 		strh	r1, [sp, #28]	@ movhi
  68 0058 D989     		ldrh	r1, [r3, #14]
  69 005a ADF81E10 		strh	r1, [sp, #30]	@ movhi
  70 005e 198A     		ldrh	r1, [r3, #16]
  71 0060 ADF82010 		strh	r1, [sp, #32]	@ movhi
  72 0064 0025     		movs	r5, #0
  73 0066 598A     		ldrh	r1, [r3, #18]
  74 0068 5B69     		ldr	r3, [r3, #20]
  75 006a ADF81060 		strh	r6, [sp, #16]	@ movhi
  76 006e ADF81A00 		strh	r0, [sp, #26]	@ movhi
  77 0072 ADF82210 		strh	r1, [sp, #34]	@ movhi
  78 0076 0993     		str	r3, [sp, #36]
  79 0078 1D21     		movs	r1, #29
  80 007a 8DF82E50 		strb	r5, [sp, #46]
  81 007e 0A95     		str	r5, [sp, #40]
  82 0080 0BA8     		add	r0, sp, #44
  83 0082 9047     		blx	r2
  84 0084 0C9B     		ldr	r3, [sp, #48]
  85 0086 82B2     		uxth	r2, r0
  86 0088 5B68     		ldr	r3, [r3, #4]
  87 008a 0646     		mov	r6, r0
  88 008c 0AA9     		add	r1, sp, #40
  89 008e 0BA8     		add	r0, sp, #44
  90 0090 9847     		blx	r3
  91 0092 0C9B     		ldr	r3, [sp, #48]
  92 0094 20B9     		cbnz	r0, .L10
  93 0096 9B69     		ldr	r3, [r3, #24]
  94 0098 0BA8     		add	r0, sp, #44
  95 009a 9847     		blx	r3
  96              	.L4:
  97 009c 2278     		ldrb	r2, [r4]	@ zero_extendqisi2
  98 009e B6E7     		b	.L2
  99              	.L10:
 100 00a0 3146     		mov	r1, r6
 101 00a2 0BA8     		add	r0, sp, #44
 102 00a4 DB69     		ldr	r3, [r3, #28]
 103 00a6 9847     		blx	r3
 104 00a8 0C9B     		ldr	r3, [sp, #48]
 105 00aa 0A99     		ldr	r1, [sp, #40]
 106 00ac 1B69     		ldr	r3, [r3, #16]
 107 00ae 0BA8     		add	r0, sp, #44
 108 00b0 1D22     		movs	r2, #29
 109 00b2 9847     		blx	r3
 110 00b4 0127     		movs	r7, #1
 111 00b6 0C9B     		ldr	r3, [sp, #48]
 112 00b8 0197     		str	r7, [sp, #4]
ARM GAS  /tmp/ccnEG5qa.s 			page 3


 113 00ba 0BAA     		add	r2, sp, #44
 114 00bc 0092     		str	r2, [sp]
 115 00be 9E68     		ldr	r6, [r3, #8]
 116 00c0 0A99     		ldr	r1, [sp, #40]
 117 00c2 2B46     		mov	r3, r5
 118 00c4 1046     		mov	r0, r2
 119 00c6 0222     		movs	r2, #2
 120 00c8 B047     		blx	r6
 121 00ca 0C9B     		ldr	r3, [sp, #48]
 122 00cc 9DF82D20 		ldrb	r2, [sp, #45]	@ zero_extendqisi2
 123 00d0 0195     		str	r5, [sp, #4]
 124 00d2 0092     		str	r2, [sp]
 125 00d4 DE68     		ldr	r6, [r3, #12]
 126 00d6 0A99     		ldr	r1, [sp, #40]
 127 00d8 2B46     		mov	r3, r5
 128 00da 0BA8     		add	r0, sp, #44
 129 00dc 0222     		movs	r2, #2
 130 00de B047     		blx	r6
 131 00e0 9DF82E30 		ldrb	r3, [sp, #46]	@ zero_extendqisi2
 132 00e4 0C9A     		ldr	r2, [sp, #48]
 133 00e6 0195     		str	r5, [sp, #4]
 134 00e8 1B01     		lsls	r3, r3, #4
 135 00ea 3B43     		orrs	r3, r3, r7
 136 00ec DBB2     		uxtb	r3, r3
 137 00ee 0093     		str	r3, [sp]
 138 00f0 D668     		ldr	r6, [r2, #12]
 139 00f2 0A99     		ldr	r1, [sp, #40]
 140 00f4 2B46     		mov	r3, r5
 141 00f6 0BA8     		add	r0, sp, #44
 142 00f8 0222     		movs	r2, #2
 143 00fa B047     		blx	r6
 144 00fc 4F4A     		ldr	r2, .L11+8
 145 00fe 0C9B     		ldr	r3, [sp, #48]
 146 0100 0192     		str	r2, [sp, #4]
 147 0102 FD22     		movs	r2, #253
 148 0104 0092     		str	r2, [sp]
 149 0106 DE68     		ldr	r6, [r3, #12]
 150 0108 0A99     		ldr	r1, [sp, #40]
 151 010a 2B46     		mov	r3, r5
 152 010c 0BA8     		add	r0, sp, #44
 153 010e 0222     		movs	r2, #2
 154 0110 B047     		blx	r6
 155 0112 0226     		movs	r6, #2
 156 0114 0C9B     		ldr	r3, [sp, #48]
 157 0116 0196     		str	r6, [sp, #4]
 158 0118 04AA     		add	r2, sp, #16
 159 011a 0092     		str	r2, [sp]
 160 011c D3F80880 		ldr	r8, [r3, #8]
 161 0120 0A99     		ldr	r1, [sp, #40]
 162 0122 2B46     		mov	r3, r5
 163 0124 0BA8     		add	r0, sp, #44
 164 0126 0422     		movs	r2, #4
 165 0128 C047     		blx	r8
 166 012a 0C9B     		ldr	r3, [sp, #48]
 167 012c 0196     		str	r6, [sp, #4]
 168 012e 0DF11202 		add	r2, sp, #18
 169 0132 0092     		str	r2, [sp]
ARM GAS  /tmp/ccnEG5qa.s 			page 4


 170 0134 D3F80880 		ldr	r8, [r3, #8]
 171 0138 0A99     		ldr	r1, [sp, #40]
 172 013a 2B46     		mov	r3, r5
 173 013c 0BA8     		add	r0, sp, #44
 174 013e 0422     		movs	r2, #4
 175 0140 C047     		blx	r8
 176 0142 0C9B     		ldr	r3, [sp, #48]
 177 0144 0196     		str	r6, [sp, #4]
 178 0146 05AA     		add	r2, sp, #20
 179 0148 0092     		str	r2, [sp]
 180 014a D3F80880 		ldr	r8, [r3, #8]
 181 014e 0A99     		ldr	r1, [sp, #40]
 182 0150 2B46     		mov	r3, r5
 183 0152 0BA8     		add	r0, sp, #44
 184 0154 0422     		movs	r2, #4
 185 0156 C047     		blx	r8
 186 0158 0C9B     		ldr	r3, [sp, #48]
 187 015a 0196     		str	r6, [sp, #4]
 188 015c 0DF11602 		add	r2, sp, #22
 189 0160 0092     		str	r2, [sp]
 190 0162 D3F80880 		ldr	r8, [r3, #8]
 191 0166 0A99     		ldr	r1, [sp, #40]
 192 0168 2B46     		mov	r3, r5
 193 016a 0BA8     		add	r0, sp, #44
 194 016c 0422     		movs	r2, #4
 195 016e C047     		blx	r8
 196 0170 0C9B     		ldr	r3, [sp, #48]
 197 0172 0196     		str	r6, [sp, #4]
 198 0174 06AA     		add	r2, sp, #24
 199 0176 0092     		str	r2, [sp]
 200 0178 D3F80880 		ldr	r8, [r3, #8]
 201 017c 0A99     		ldr	r1, [sp, #40]
 202 017e 2B46     		mov	r3, r5
 203 0180 0BA8     		add	r0, sp, #44
 204 0182 0422     		movs	r2, #4
 205 0184 C047     		blx	r8
 206 0186 0C9B     		ldr	r3, [sp, #48]
 207 0188 0196     		str	r6, [sp, #4]
 208 018a 0DF11A02 		add	r2, sp, #26
 209 018e 0092     		str	r2, [sp]
 210 0190 D3F80880 		ldr	r8, [r3, #8]
 211 0194 0A99     		ldr	r1, [sp, #40]
 212 0196 2B46     		mov	r3, r5
 213 0198 0BA8     		add	r0, sp, #44
 214 019a 0422     		movs	r2, #4
 215 019c C047     		blx	r8
 216 019e 0C9B     		ldr	r3, [sp, #48]
 217 01a0 0196     		str	r6, [sp, #4]
 218 01a2 07AA     		add	r2, sp, #28
 219 01a4 0092     		str	r2, [sp]
 220 01a6 D3F80880 		ldr	r8, [r3, #8]
 221 01aa 0A99     		ldr	r1, [sp, #40]
 222 01ac 2B46     		mov	r3, r5
 223 01ae 0BA8     		add	r0, sp, #44
 224 01b0 0422     		movs	r2, #4
 225 01b2 C047     		blx	r8
 226 01b4 0C9B     		ldr	r3, [sp, #48]
ARM GAS  /tmp/ccnEG5qa.s 			page 5


 227 01b6 0196     		str	r6, [sp, #4]
 228 01b8 0DF11E02 		add	r2, sp, #30
 229 01bc 0092     		str	r2, [sp]
 230 01be D3F80880 		ldr	r8, [r3, #8]
 231 01c2 0A99     		ldr	r1, [sp, #40]
 232 01c4 2B46     		mov	r3, r5
 233 01c6 0BA8     		add	r0, sp, #44
 234 01c8 0422     		movs	r2, #4
 235 01ca C047     		blx	r8
 236 01cc 0C9B     		ldr	r3, [sp, #48]
 237 01ce 0196     		str	r6, [sp, #4]
 238 01d0 08AA     		add	r2, sp, #32
 239 01d2 0092     		str	r2, [sp]
 240 01d4 D3F80880 		ldr	r8, [r3, #8]
 241 01d8 0A99     		ldr	r1, [sp, #40]
 242 01da 2B46     		mov	r3, r5
 243 01dc 0BA8     		add	r0, sp, #44
 244 01de 0422     		movs	r2, #4
 245 01e0 C047     		blx	r8
 246 01e2 0C9B     		ldr	r3, [sp, #48]
 247 01e4 0196     		str	r6, [sp, #4]
 248 01e6 0DF12202 		add	r2, sp, #34
 249 01ea 0092     		str	r2, [sp]
 250 01ec D3F80880 		ldr	r8, [r3, #8]
 251 01f0 0A99     		ldr	r1, [sp, #40]
 252 01f2 2B46     		mov	r3, r5
 253 01f4 0BA8     		add	r0, sp, #44
 254 01f6 0422     		movs	r2, #4
 255 01f8 C047     		blx	r8
 256 01fa 0422     		movs	r2, #4
 257 01fc 0C9B     		ldr	r3, [sp, #48]
 258 01fe 0192     		str	r2, [sp, #4]
 259 0200 09AA     		add	r2, sp, #36
 260 0202 0092     		str	r2, [sp]
 261 0204 D3F80880 		ldr	r8, [r3, #8]
 262 0208 0A99     		ldr	r1, [sp, #40]
 263 020a 2B46     		mov	r3, r5
 264 020c 0BA8     		add	r0, sp, #44
 265 020e 0622     		movs	r2, #6
 266 0210 C047     		blx	r8
 267 0212 0C99     		ldr	r1, [sp, #48]
 268 0214 0197     		str	r7, [sp, #4]
 269 0216 0DF10F03 		add	r3, sp, #15
 270 021a 0093     		str	r3, [sp]
 271 021c 0BA8     		add	r0, sp, #44
 272 021e 2B46     		mov	r3, r5
 273 0220 3246     		mov	r2, r6
 274 0222 8D68     		ldr	r5, [r1, #8]
 275 0224 0A99     		ldr	r1, [sp, #40]
 276 0226 A847     		blx	r5
 277 0228 0C9B     		ldr	r3, [sp, #48]
 278 022a 0A99     		ldr	r1, [sp, #40]
 279 022c 5B69     		ldr	r3, [r3, #20]
 280 022e 0BA8     		add	r0, sp, #44
 281 0230 9847     		blx	r3
 282 0232 33E7     		b	.L4
 283              	.L12:
ARM GAS  /tmp/ccnEG5qa.s 			page 6


 284              		.align	2
 285              	.L11:
 286 0234 00000000 		.word	.LANCHOR0
 287 0238 00000000 		.word	.LANCHOR1
 288 023c 00000000 		.word	.LC0
 289              		.size	send_i2c_err, .-send_i2c_err
 290              		.section	.text.i2c3_init,"ax",%progbits
 291              		.align	1
 292              		.p2align 4,,15
 293              		.global	i2c3_init
 294              		.syntax unified
 295              		.thumb
 296              		.thumb_func
 297              		.fpu fpv4-sp-d16
 298              		.type	i2c3_init, %function
 299              	i2c3_init:
 300              		@ args = 0, pretend = 0, frame = 0
 301              		@ frame_needed = 0, uses_anonymous_args = 0
 302 0000 10B5     		push	{r4, lr}
 303 0002 074B     		ldr	r3, .L15
 304 0004 074A     		ldr	r2, .L15+4
 305 0006 0848     		ldr	r0, .L15+8
 306 0008 0024     		movs	r4, #0
 307 000a 1C86     		strh	r4, [r3, #48]	@ movhi
 308 000c FD21     		movs	r1, #253
 309 000e 83F83240 		strb	r4, [r3, #50]
 310 0012 5C63     		str	r4, [r3, #52]
 311 0014 FFF7FEFF 		bl	register_periodic_telemetry
 312 0018 BDE81040 		pop	{r4, lr}
 313 001c FFF7FEBF 		b	i2c3_hw_init
 314              	.L16:
 315              		.align	2
 316              	.L15:
 317 0020 00000000 		.word	.LANCHOR1
 318 0024 00000000 		.word	send_i2c_err
 319 0028 00000000 		.word	pprz_telemetry
 320              		.size	i2c3_init, .-i2c3_init
 321              		.section	.text.i2c_init,"ax",%progbits
 322              		.align	1
 323              		.p2align 4,,15
 324              		.global	i2c_init
 325              		.syntax unified
 326              		.thumb
 327              		.thumb_func
 328              		.fpu fpv4-sp-d16
 329              		.type	i2c_init, %function
 330              	i2c_init:
 331              		@ args = 0, pretend = 0, frame = 0
 332              		@ frame_needed = 0, uses_anonymous_args = 0
 333              		@ link register save eliminated.
 334 0000 0346     		mov	r3, r0
 335 0002 0021     		movs	r1, #0
 336 0004 1986     		strh	r1, [r3, #48]	@ movhi
 337 0006 83F83210 		strb	r1, [r3, #50]
 338 000a 5963     		str	r1, [r3, #52]
 339 000c 024A     		ldr	r2, .L18
 340 000e 0348     		ldr	r0, .L18+4
ARM GAS  /tmp/ccnEG5qa.s 			page 7


 341 0010 FD21     		movs	r1, #253
 342 0012 FFF7FEBF 		b	register_periodic_telemetry
 343              	.L19:
 344 0016 00BF     		.align	2
 345              	.L18:
 346 0018 00000000 		.word	send_i2c_err
 347 001c 00000000 		.word	pprz_telemetry
 348              		.size	i2c_init, .-i2c_init
 349              		.section	.text.i2c_transmit,"ax",%progbits
 350              		.align	1
 351              		.p2align 4,,15
 352              		.global	i2c_transmit
 353              		.syntax unified
 354              		.thumb
 355              		.thumb_func
 356              		.fpu fpv4-sp-d16
 357              		.type	i2c_transmit, %function
 358              	i2c_transmit:
 359              		@ args = 0, pretend = 0, frame = 0
 360              		@ frame_needed = 0, uses_anonymous_args = 0
 361              		@ link register save eliminated.
 362 0000 0B71     		strb	r3, [r1, #4]
 363 0002 0023     		movs	r3, #0
 364 0004 4A70     		strb	r2, [r1, #1]
 365 0006 0B70     		strb	r3, [r1]
 366 0008 4268     		ldr	r2, [r0, #4]
 367 000a 4B80     		strh	r3, [r1, #2]	@ movhi
 368 000c 1047     		bx	r2
 369              		.size	i2c_transmit, .-i2c_transmit
 370 000e 00BF     		.section	.text.i2c_receive,"ax",%progbits
 371              		.align	1
 372              		.p2align 4,,15
 373              		.global	i2c_receive
 374              		.syntax unified
 375              		.thumb
 376              		.thumb_func
 377              		.fpu fpv4-sp-d16
 378              		.type	i2c_receive, %function
 379              	i2c_receive:
 380              		@ args = 0, pretend = 0, frame = 0
 381              		@ frame_needed = 0, uses_anonymous_args = 0
 382              		@ link register save eliminated.
 383 0000 4B80     		strh	r3, [r1, #2]	@ movhi
 384 0002 0123     		movs	r3, #1
 385 0004 0B70     		strb	r3, [r1]
 386 0006 0023     		movs	r3, #0
 387 0008 4A70     		strb	r2, [r1, #1]
 388 000a 0B71     		strb	r3, [r1, #4]
 389 000c 4368     		ldr	r3, [r0, #4]
 390 000e 1847     		bx	r3
 391              		.size	i2c_receive, .-i2c_receive
 392              		.section	.text.i2c_transceive,"ax",%progbits
 393              		.align	1
 394              		.p2align 4,,15
 395              		.global	i2c_transceive
 396              		.syntax unified
 397              		.thumb
ARM GAS  /tmp/ccnEG5qa.s 			page 8


 398              		.thumb_func
 399              		.fpu fpv4-sp-d16
 400              		.type	i2c_transceive, %function
 401              	i2c_transceive:
 402              		@ args = 4, pretend = 0, frame = 0
 403              		@ frame_needed = 0, uses_anonymous_args = 0
 404              		@ link register save eliminated.
 405 0000 0B71     		strb	r3, [r1, #4]
 406 0002 0223     		movs	r3, #2
 407 0004 4A70     		strb	r2, [r1, #1]
 408 0006 0B70     		strb	r3, [r1]
 409 0008 BDF80020 		ldrh	r2, [sp]
 410 000c 4368     		ldr	r3, [r0, #4]
 411 000e 4A80     		strh	r2, [r1, #2]	@ movhi
 412 0010 1847     		bx	r3
 413              		.size	i2c_transceive, .-i2c_transceive
 414 0012 00BF     		.section	.text.i2c_blocking_transmit,"ax",%progbits
 415              		.align	1
 416              		.p2align 4,,15
 417              		.global	i2c_blocking_transmit
 418              		.syntax unified
 419              		.thumb
 420              		.thumb_func
 421              		.fpu fpv4-sp-d16
 422              		.type	i2c_blocking_transmit, %function
 423              	i2c_blocking_transmit:
 424              		@ args = 0, pretend = 0, frame = 0
 425              		@ frame_needed = 0, uses_anonymous_args = 0
 426 0000 F8B5     		push	{r3, r4, r5, r6, r7, lr}
 427 0002 0B71     		strb	r3, [r1, #4]
 428 0004 0023     		movs	r3, #0
 429 0006 4A70     		strb	r2, [r1, #1]
 430 0008 0B70     		strb	r3, [r1]
 431 000a 4268     		ldr	r2, [r0, #4]
 432 000c 4B80     		strh	r3, [r1, #2]	@ movhi
 433 000e 2DED028B 		vpush.64	{d8}
 434 0012 0546     		mov	r5, r0
 435 0014 0E46     		mov	r6, r1
 436 0016 9047     		blx	r2
 437 0018 0746     		mov	r7, r0
 438 001a A0B3     		cbz	r0, .L24
 439 001c 1C4C     		ldr	r4, .L43
 440 001e D4ED007A 		vldr.32	s15, [r4]	@ int
 441 0022 94ED567A 		vldr.32	s14, [r4, #344]	@ int
 442 0026 D4ED016A 		vldr.32	s13, [r4, #4]	@ int
 443 002a B8EE477A 		vcvt.f32.u32	s14, s14
 444 002e F8EE666A 		vcvt.f32.u32	s13, s13
 445 0032 F8EE677A 		vcvt.f32.u32	s15, s15
 446 0036 86EE878A 		vdiv.f32	s16, s13, s14
 447 003a F7EE008A 		vmov.f32	s17, #1.0e+0
 448 003e 38EE278A 		vadd.f32	s16, s16, s15
 449              	.L25:
 450 0042 96F82530 		ldrb	r3, [r6, #37]	@ zero_extendqisi2
 451 0046 2846     		mov	r0, r5
 452 0048 1BB1     		cbz	r3, .L28
 453 004a 96F82530 		ldrb	r3, [r6, #37]	@ zero_extendqisi2
 454 004e 012B     		cmp	r3, #1
ARM GAS  /tmp/ccnEG5qa.s 			page 9


 455 0050 19D1     		bne	.L24
 456              	.L28:
 457 0052 EB68     		ldr	r3, [r5, #12]
 458 0054 03B1     		cbz	r3, .L26
 459 0056 9847     		blx	r3
 460              	.L26:
 461 0058 94ED007A 		vldr.32	s14, [r4]	@ int
 462 005c D4ED567A 		vldr.32	s15, [r4, #344]	@ int
 463 0060 94ED016A 		vldr.32	s12, [r4, #4]	@ int
 464 0064 F8EE676A 		vcvt.f32.u32	s13, s15
 465 0068 B8EE466A 		vcvt.f32.u32	s12, s12
 466 006c B8EE477A 		vcvt.f32.u32	s14, s14
 467 0070 C6EE267A 		vdiv.f32	s15, s12, s13
 468 0074 77EE877A 		vadd.f32	s15, s15, s14
 469 0078 77EEC87A 		vsub.f32	s15, s15, s16
 470 007c F4EEE87A 		vcmpe.f32	s15, s17
 471 0080 F1EE10FA 		vmrs	APSR_nzcv, FPSCR
 472 0084 DDDD     		ble	.L25
 473              	.L24:
 474 0086 BDEC028B 		vldm	sp!, {d8}
 475 008a 3846     		mov	r0, r7
 476 008c F8BD     		pop	{r3, r4, r5, r6, r7, pc}
 477              	.L44:
 478 008e 00BF     		.align	2
 479              	.L43:
 480 0090 00000000 		.word	sys_time
 481              		.size	i2c_blocking_transmit, .-i2c_blocking_transmit
 482              		.section	.text.i2c_blocking_receive,"ax",%progbits
 483              		.align	1
 484              		.p2align 4,,15
 485              		.global	i2c_blocking_receive
 486              		.syntax unified
 487              		.thumb
 488              		.thumb_func
 489              		.fpu fpv4-sp-d16
 490              		.type	i2c_blocking_receive, %function
 491              	i2c_blocking_receive:
 492              		@ args = 0, pretend = 0, frame = 0
 493              		@ frame_needed = 0, uses_anonymous_args = 0
 494 0000 F8B5     		push	{r3, r4, r5, r6, r7, lr}
 495 0002 4B80     		strh	r3, [r1, #2]	@ movhi
 496 0004 0123     		movs	r3, #1
 497 0006 0B70     		strb	r3, [r1]
 498 0008 0023     		movs	r3, #0
 499 000a 4A70     		strb	r2, [r1, #1]
 500 000c 0B71     		strb	r3, [r1, #4]
 501 000e 2DED028B 		vpush.64	{d8}
 502 0012 4368     		ldr	r3, [r0, #4]
 503 0014 0546     		mov	r5, r0
 504 0016 0E46     		mov	r6, r1
 505 0018 9847     		blx	r3
 506 001a 0746     		mov	r7, r0
 507 001c A0B3     		cbz	r0, .L46
 508 001e 1C4C     		ldr	r4, .L65
 509 0020 D4ED007A 		vldr.32	s15, [r4]	@ int
 510 0024 94ED567A 		vldr.32	s14, [r4, #344]	@ int
 511 0028 D4ED016A 		vldr.32	s13, [r4, #4]	@ int
ARM GAS  /tmp/ccnEG5qa.s 			page 10


 512 002c B8EE477A 		vcvt.f32.u32	s14, s14
 513 0030 F8EE666A 		vcvt.f32.u32	s13, s13
 514 0034 F8EE677A 		vcvt.f32.u32	s15, s15
 515 0038 86EE878A 		vdiv.f32	s16, s13, s14
 516 003c F7EE008A 		vmov.f32	s17, #1.0e+0
 517 0040 38EE278A 		vadd.f32	s16, s16, s15
 518              	.L47:
 519 0044 96F82530 		ldrb	r3, [r6, #37]	@ zero_extendqisi2
 520 0048 2846     		mov	r0, r5
 521 004a 1BB1     		cbz	r3, .L50
 522 004c 96F82530 		ldrb	r3, [r6, #37]	@ zero_extendqisi2
 523 0050 012B     		cmp	r3, #1
 524 0052 19D1     		bne	.L46
 525              	.L50:
 526 0054 EB68     		ldr	r3, [r5, #12]
 527 0056 03B1     		cbz	r3, .L48
 528 0058 9847     		blx	r3
 529              	.L48:
 530 005a 94ED007A 		vldr.32	s14, [r4]	@ int
 531 005e D4ED567A 		vldr.32	s15, [r4, #344]	@ int
 532 0062 94ED016A 		vldr.32	s12, [r4, #4]	@ int
 533 0066 F8EE676A 		vcvt.f32.u32	s13, s15
 534 006a B8EE466A 		vcvt.f32.u32	s12, s12
 535 006e B8EE477A 		vcvt.f32.u32	s14, s14
 536 0072 C6EE267A 		vdiv.f32	s15, s12, s13
 537 0076 77EE877A 		vadd.f32	s15, s15, s14
 538 007a 77EEC87A 		vsub.f32	s15, s15, s16
 539 007e F4EEE87A 		vcmpe.f32	s15, s17
 540 0082 F1EE10FA 		vmrs	APSR_nzcv, FPSCR
 541 0086 DDDD     		ble	.L47
 542              	.L46:
 543 0088 BDEC028B 		vldm	sp!, {d8}
 544 008c 3846     		mov	r0, r7
 545 008e F8BD     		pop	{r3, r4, r5, r6, r7, pc}
 546              	.L66:
 547              		.align	2
 548              	.L65:
 549 0090 00000000 		.word	sys_time
 550              		.size	i2c_blocking_receive, .-i2c_blocking_receive
 551              		.section	.text.i2c_blocking_transceive,"ax",%progbits
 552              		.align	1
 553              		.p2align 4,,15
 554              		.global	i2c_blocking_transceive
 555              		.syntax unified
 556              		.thumb
 557              		.thumb_func
 558              		.fpu fpv4-sp-d16
 559              		.type	i2c_blocking_transceive, %function
 560              	i2c_blocking_transceive:
 561              		@ args = 4, pretend = 0, frame = 0
 562              		@ frame_needed = 0, uses_anonymous_args = 0
 563 0000 F8B5     		push	{r3, r4, r5, r6, r7, lr}
 564 0002 2DED028B 		vpush.64	{d8}
 565 0006 0B71     		strb	r3, [r1, #4]
 566 0008 0223     		movs	r3, #2
 567 000a 4A70     		strb	r2, [r1, #1]
 568 000c 0B70     		strb	r3, [r1]
ARM GAS  /tmp/ccnEG5qa.s 			page 11


 569 000e BDF82020 		ldrh	r2, [sp, #32]
 570 0012 4368     		ldr	r3, [r0, #4]
 571 0014 4A80     		strh	r2, [r1, #2]	@ movhi
 572 0016 0546     		mov	r5, r0
 573 0018 0E46     		mov	r6, r1
 574 001a 9847     		blx	r3
 575 001c 0746     		mov	r7, r0
 576 001e A0B3     		cbz	r0, .L68
 577 0020 1C4C     		ldr	r4, .L87
 578 0022 D4ED007A 		vldr.32	s15, [r4]	@ int
 579 0026 94ED567A 		vldr.32	s14, [r4, #344]	@ int
 580 002a D4ED016A 		vldr.32	s13, [r4, #4]	@ int
 581 002e B8EE477A 		vcvt.f32.u32	s14, s14
 582 0032 F8EE666A 		vcvt.f32.u32	s13, s13
 583 0036 F8EE677A 		vcvt.f32.u32	s15, s15
 584 003a 86EE878A 		vdiv.f32	s16, s13, s14
 585 003e F7EE008A 		vmov.f32	s17, #1.0e+0
 586 0042 38EE278A 		vadd.f32	s16, s16, s15
 587              	.L69:
 588 0046 96F82530 		ldrb	r3, [r6, #37]	@ zero_extendqisi2
 589 004a 2846     		mov	r0, r5
 590 004c 1BB1     		cbz	r3, .L72
 591 004e 96F82530 		ldrb	r3, [r6, #37]	@ zero_extendqisi2
 592 0052 012B     		cmp	r3, #1
 593 0054 19D1     		bne	.L68
 594              	.L72:
 595 0056 EB68     		ldr	r3, [r5, #12]
 596 0058 03B1     		cbz	r3, .L70
 597 005a 9847     		blx	r3
 598              	.L70:
 599 005c 94ED007A 		vldr.32	s14, [r4]	@ int
 600 0060 D4ED567A 		vldr.32	s15, [r4, #344]	@ int
 601 0064 94ED016A 		vldr.32	s12, [r4, #4]	@ int
 602 0068 F8EE676A 		vcvt.f32.u32	s13, s15
 603 006c B8EE466A 		vcvt.f32.u32	s12, s12
 604 0070 B8EE477A 		vcvt.f32.u32	s14, s14
 605 0074 C6EE267A 		vdiv.f32	s15, s12, s13
 606 0078 77EE877A 		vadd.f32	s15, s15, s14
 607 007c 77EEC87A 		vsub.f32	s15, s15, s16
 608 0080 F4EEE87A 		vcmpe.f32	s15, s17
 609 0084 F1EE10FA 		vmrs	APSR_nzcv, FPSCR
 610 0088 DDDD     		ble	.L69
 611              	.L68:
 612 008a BDEC028B 		vldm	sp!, {d8}
 613 008e 3846     		mov	r0, r7
 614 0090 F8BD     		pop	{r3, r4, r5, r6, r7, pc}
 615              	.L88:
 616 0092 00BF     		.align	2
 617              	.L87:
 618 0094 00000000 		.word	sys_time
 619              		.size	i2c_blocking_transceive, .-i2c_blocking_transceive
 620              		.global	i2c3
 621              		.section	.bss._i2c_nb_cnt.0,"aw",%nobits
 622              		.set	.LANCHOR0,. + 0
 623              		.type	_i2c_nb_cnt.0, %object
 624              		.size	_i2c_nb_cnt.0, 1
 625              	_i2c_nb_cnt.0:
ARM GAS  /tmp/ccnEG5qa.s 			page 12


 626 0000 00       		.space	1
 627              		.section	.bss.i2c3,"aw",%nobits
 628              		.align	2
 629              		.set	.LANCHOR1,. + 0
 630              		.type	i2c3, %object
 631              		.size	i2c3, 68
 632              	i2c3:
 633 0000 00000000 		.space	68
 633      00000000 
 633      00000000 
 633      00000000 
 633      00000000 
 634              		.ident	"GCC: (15:10.3-2021.07-4) 10.3.1 20210621 (release)"
ARM GAS  /tmp/ccnEG5qa.s 			page 13

