ARM GAS  /tmp/ccjjlp8L.s 			page 1


   1              		.cpu cortex-m4
   2              		.eabi_attribute 27, 1
   3              		.eabi_attribute 20, 1
   4              		.eabi_attribute 21, 1
   5              		.eabi_attribute 23, 3
   6              		.eabi_attribute 24, 1
   7              		.eabi_attribute 25, 1
   8              		.eabi_attribute 26, 1
   9              		.eabi_attribute 30, 2
  10              		.eabi_attribute 34, 1
  11              		.eabi_attribute 18, 4
  12              		.file	"i2c_arch.c"
  13              		.text
  14              		.section	.text.palReadLineMode,"ax",%progbits
  15              		.align	1
  16              		.p2align 4,,15
  17              		.arch armv7e-m
  18              		.syntax unified
  19              		.thumb
  20              		.thumb_func
  21              		.fpu fpv4-sp-d16
  22              		.type	palReadLineMode, %function
  23              	palReadLineMode:
  24              		@ args = 0, pretend = 0, frame = 0
  25              		@ frame_needed = 0, uses_anonymous_args = 0
  26 0000 20F00F01 		bic	r1, r0, #15
  27 0004 30B5     		push	{r4, r5, lr}
  28 0006 0C68     		ldr	r4, [r1]
  29 0008 4A68     		ldr	r2, [r1, #4]
  30 000a 8B68     		ldr	r3, [r1, #8]
  31 000c 00F00F0C 		and	ip, r0, #15
  32 0010 4FEA4C05 		lsl	r5, ip, #1
  33 0014 22FA0CF2 		lsr	r2, r2, ip
  34 0018 9200     		lsls	r2, r2, #2
  35 001a EC40     		lsrs	r4, r4, r5
  36 001c EB40     		lsrs	r3, r3, r5
  37 001e 02F00402 		and	r2, r2, #4
  38 0022 04F00304 		and	r4, r4, #3
  39 0026 DB00     		lsls	r3, r3, #3
  40 0028 2243     		orrs	r2, r2, r4
  41 002a 03F01803 		and	r3, r3, #24
  42 002e 1343     		orrs	r3, r3, r2
  43 0030 CA68     		ldr	r2, [r1, #12]
  44 0032 EA40     		lsrs	r2, r2, r5
  45 0034 5201     		lsls	r2, r2, #5
  46 0036 02F06002 		and	r2, r2, #96
  47 003a 1343     		orrs	r3, r3, r2
  48 003c 0207     		lsls	r2, r0, #28
  49 003e 09D4     		bmi	.L2
  50 0040 086A     		ldr	r0, [r1, #32]
  51 0042 4FEA8C0E 		lsl	lr, ip, #2
  52 0046 20FA0EF0 		lsr	r0, r0, lr
  53 004a C001     		lsls	r0, r0, #7
  54 004c 00F4F060 		and	r0, r0, #1920
  55 0050 1843     		orrs	r0, r0, r3
  56 0052 30BD     		pop	{r4, r5, pc}
  57              	.L2:
ARM GAS  /tmp/ccjjlp8L.s 			page 2


  58 0054 486A     		ldr	r0, [r1, #36]
  59 0056 ACF1080C 		sub	ip, ip, #8
  60 005a 4FEA8C0C 		lsl	ip, ip, #2
  61 005e 20FA0CF0 		lsr	r0, r0, ip
  62 0062 C001     		lsls	r0, r0, #7
  63 0064 00F4F060 		and	r0, r0, #1920
  64 0068 1843     		orrs	r0, r0, r3
  65 006a 30BD     		pop	{r4, r5, pc}
  66              		.size	palReadLineMode, .-palReadLineMode
  67              		.section	.text.i2c_chibios_setbitrate,"ax",%progbits
  68              		.align	1
  69              		.p2align 4,,15
  70              		.syntax unified
  71              		.thumb
  72              		.thumb_func
  73              		.fpu fpv4-sp-d16
  74              		.type	i2c_chibios_setbitrate, %function
  75              	i2c_chibios_setbitrate:
  76              		@ args = 0, pretend = 0, frame = 0
  77              		@ frame_needed = 0, uses_anonymous_args = 0
  78              		@ link register save eliminated.
  79 0000 7047     		bx	lr
  80              		.size	i2c_chibios_setbitrate, .-i2c_chibios_setbitrate
  81 0002 00BF     		.section	.text.i2c_chibios_idle,"ax",%progbits
  82              		.align	1
  83              		.p2align 4,,15
  84              		.syntax unified
  85              		.thumb
  86              		.thumb_func
  87              		.fpu fpv4-sp-d16
  88              		.type	i2c_chibios_idle, %function
  89              	i2c_chibios_idle:
  90              		@ args = 0, pretend = 0, frame = 0
  91              		@ frame_needed = 0, uses_anonymous_args = 0
  92              		@ link register save eliminated.
  93 0000 0020     		movs	r0, #0
  94 0002 7047     		bx	lr
  95              		.size	i2c_chibios_idle, .-i2c_chibios_idle
  96              		.section	.text.thd_i2c,"ax",%progbits
  97              		.align	1
  98              		.p2align 4,,15
  99              		.syntax unified
 100              		.thumb
 101              		.thumb_func
 102              		.fpu fpv4-sp-d16
 103              		.type	thd_i2c, %function
 104              	thd_i2c:
 105              		@ args = 0, pretend = 0, frame = 0
 106              		@ frame_needed = 0, uses_anonymous_args = 0
 107 0000 2DE9F047 		push	{r4, r5, r6, r7, r8, r9, r10, lr}
 108 0004 7B4B     		ldr	r3, .L55
 109 0006 856B     		ldr	r5, [r0, #56]
 110 0008 DB68     		ldr	r3, [r3, #12]
 111 000a 2A68     		ldr	r2, [r5]
 112 000c DA61     		str	r2, [r3, #28]
 113 000e 84B0     		sub	sp, sp, #16
 114 0010 0446     		mov	r4, r0
ARM GAS  /tmp/ccjjlp8L.s 			page 3


 115 0012 0126     		movs	r6, #1
 116 0014 4FF03008 		mov	r8, #48
 117 0018 0027     		movs	r7, #0
 118 001a 2FE0     		b	.L9
 119              	.L53:
 120 001c 6422     		movs	r2, #100
 121 001e 9AF80110 		ldrb	r1, [r10, #1]	@ zero_extendqisi2
 122 0022 0292     		str	r2, [sp, #8]
 123 0024 BAF802C0 		ldrh	ip, [r10, #2]
 124 0028 606B     		ldr	r0, [r4, #52]
 125 002a 0AF10502 		add	r2, r10, #5
 126 002e CDE9002C 		strd	r2, ip, [sp]
 127 0032 4908     		lsrs	r1, r1, #1
 128 0034 FFF7FEFF 		bl	i2cMasterTransmitTimeout
 129 0038 8146     		mov	r9, r0
 130              	.L13:
 131              		.syntax unified
 132              	@ 493 "/home/gautier/dev/paparazzi/sw/ext/chibios/os/common/ext/ARM/CMSIS/Core/Include/cmsis_gcc.h"
 133 003a 88F31188 		MSR basepri, r8
 134              	@ 0 "" 2
 135              		.thumb
 136              		.syntax unified
 137 003e FFF7FEFF 		bl	__stats_start_measure_crit_thd
 138 0042 94F83130 		ldrb	r3, [r4, #49]	@ zero_extendqisi2
 139 0046 84F83270 		strb	r7, [r4, #50]
 140 004a 0133     		adds	r3, r3, #1
 141 004c DBB2     		uxtb	r3, r3
 142 004e 072B     		cmp	r3, #7
 143 0050 94BF     		ite	ls
 144 0052 84F83130 		strbls	r3, [r4, #49]
 145 0056 84F83170 		strbhi	r7, [r4, #49]
 146 005a FFF7FEFF 		bl	__stats_stop_measure_crit_thd
 147              		.syntax unified
 148              	@ 493 "/home/gautier/dev/paparazzi/sw/ext/chibios/os/common/ext/ARM/CMSIS/Core/Include/cmsis_gcc.h"
 149 005e 87F31188 		MSR basepri, r7
 150              	@ 0 "" 2
 151              		.thumb
 152              		.syntax unified
 153 0062 B9F1FF3F 		cmp	r9, #-1
 154 0066 6BD0     		beq	.L16
 155 0068 B9F1000F 		cmp	r9, #0
 156 006c 64D0     		beq	.L17
 157 006e 19F1020F 		cmn	r9, #2
 158 0072 29D0     		beq	.L51
 159              	.L19:
 160 0074 606B     		ldr	r0, [r4, #52]
 161 0076 FFF7FEFF 		bl	i2cReleaseBus
 162              	.L11:
 163 007a A56B     		ldr	r5, [r4, #56]
 164              	.L9:
 165 007c 281D     		adds	r0, r5, #4
 166 007e FFF7FEFF 		bl	chSemWait
 167 0082 606B     		ldr	r0, [r4, #52]
 168 0084 FFF7FEFF 		bl	i2cAcquireBus
 169 0088 94F83130 		ldrb	r3, [r4, #49]	@ zero_extendqisi2
 170 008c 94F83020 		ldrb	r2, [r4, #48]	@ zero_extendqisi2
 171 0090 9A42     		cmp	r2, r3
ARM GAS  /tmp/ccjjlp8L.s 			page 4


 172 0092 16D0     		beq	.L52
 173 0094 0433     		adds	r3, r3, #4
 174 0096 54F823A0 		ldr	r10, [r4, r3, lsl #2]
 175 009a 84F83260 		strb	r6, [r4, #50]
 176 009e 9AF80430 		ldrb	r3, [r10, #4]	@ zero_extendqisi2
 177 00a2 002B     		cmp	r3, #0
 178 00a4 BAD1     		bne	.L53
 179 00a6 9AF80110 		ldrb	r1, [r10, #1]	@ zero_extendqisi2
 180 00aa BAF80230 		ldrh	r3, [r10, #2]
 181 00ae 606B     		ldr	r0, [r4, #52]
 182 00b0 6422     		movs	r2, #100
 183 00b2 0092     		str	r2, [sp]
 184 00b4 4908     		lsrs	r1, r1, #1
 185 00b6 0AF10502 		add	r2, r10, #5
 186 00ba FFF7FEFF 		bl	i2cMasterReceiveTimeout
 187 00be 8146     		mov	r9, r0
 188 00c0 BBE7     		b	.L13
 189              	.L52:
 190 00c2 84F83270 		strb	r7, [r4, #50]
 191 00c6 D8E7     		b	.L11
 192              	.L51:
 193 00c8 0323     		movs	r3, #3
 194 00ca 8AF82530 		strb	r3, [r10, #37]
 195 00ce 606B     		ldr	r0, [r4, #52]
 196 00d0 FFF7FEFF 		bl	i2cGetErrors
 197 00d4 C107     		lsls	r1, r0, #31
 198 00d6 04D5     		bpl	.L22
 199 00d8 E26B     		ldr	r2, [r4, #60]
 200 00da D388     		ldrh	r3, [r2, #6]
 201 00dc 0133     		adds	r3, r3, #1
 202 00de 9BB2     		uxth	r3, r3
 203 00e0 D380     		strh	r3, [r2, #6]	@ movhi
 204              	.L22:
 205 00e2 8207     		lsls	r2, r0, #30
 206 00e4 04D5     		bpl	.L23
 207 00e6 E26B     		ldr	r2, [r4, #60]
 208 00e8 1389     		ldrh	r3, [r2, #8]
 209 00ea 0133     		adds	r3, r3, #1
 210 00ec 9BB2     		uxth	r3, r3
 211 00ee 1381     		strh	r3, [r2, #8]	@ movhi
 212              	.L23:
 213 00f0 4307     		lsls	r3, r0, #29
 214 00f2 04D5     		bpl	.L24
 215 00f4 E26B     		ldr	r2, [r4, #60]
 216 00f6 9388     		ldrh	r3, [r2, #4]
 217 00f8 0133     		adds	r3, r3, #1
 218 00fa 9BB2     		uxth	r3, r3
 219 00fc 9380     		strh	r3, [r2, #4]	@ movhi
 220              	.L24:
 221 00fe 0507     		lsls	r5, r0, #28
 222 0100 04D5     		bpl	.L25
 223 0102 E26B     		ldr	r2, [r4, #60]
 224 0104 5389     		ldrh	r3, [r2, #10]
 225 0106 0133     		adds	r3, r3, #1
 226 0108 9BB2     		uxth	r3, r3
 227 010a 5381     		strh	r3, [r2, #10]	@ movhi
 228              	.L25:
ARM GAS  /tmp/ccjjlp8L.s 			page 5


 229 010c C106     		lsls	r1, r0, #27
 230 010e 04D5     		bpl	.L26
 231 0110 E26B     		ldr	r2, [r4, #60]
 232 0112 9389     		ldrh	r3, [r2, #12]
 233 0114 0133     		adds	r3, r3, #1
 234 0116 9BB2     		uxth	r3, r3
 235 0118 9381     		strh	r3, [r2, #12]	@ movhi
 236              	.L26:
 237 011a 8206     		lsls	r2, r0, #26
 238 011c 04D5     		bpl	.L27
 239 011e E26B     		ldr	r2, [r4, #60]
 240 0120 D389     		ldrh	r3, [r2, #14]
 241 0122 0133     		adds	r3, r3, #1
 242 0124 9BB2     		uxth	r3, r3
 243 0126 D381     		strh	r3, [r2, #14]	@ movhi
 244              	.L27:
 245 0128 4306     		lsls	r3, r0, #25
 246 012a A3D5     		bpl	.L19
 247 012c E26B     		ldr	r2, [r4, #60]
 248 012e 138A     		ldrh	r3, [r2, #16]
 249 0130 0133     		adds	r3, r3, #1
 250 0132 9BB2     		uxth	r3, r3
 251 0134 1382     		strh	r3, [r2, #16]	@ movhi
 252 0136 9DE7     		b	.L19
 253              	.L17:
 254 0138 0223     		movs	r3, #2
 255 013a 8AF82530 		strb	r3, [r10, #37]
 256 013e 99E7     		b	.L19
 257              	.L16:
 258 0140 0323     		movs	r3, #3
 259 0142 8AF82530 		strb	r3, [r10, #37]
 260 0146 E26B     		ldr	r2, [r4, #60]
 261 0148 A86B     		ldr	r0, [r5, #56]
 262 014a 538A     		ldrh	r3, [r2, #18]
 263 014c 0133     		adds	r3, r3, #1
 264 014e 9BB2     		uxth	r3, r3
 265 0150 5382     		strh	r3, [r2, #18]	@ movhi
 266 0152 FFF7FEFF 		bl	palReadLineMode
 267 0156 8146     		mov	r9, r0
 268 0158 A86B     		ldr	r0, [r5, #56]
 269 015a 00F00F01 		and	r1, r0, #15
 270 015e 0022     		movs	r2, #0
 271 0160 06FA01F1 		lsl	r1, r6, r1
 272 0164 20F00F00 		bic	r0, r0, #15
 273 0168 FFF7FEFF 		bl	_pal_lld_setgroupmode
 274 016c AB6B     		ldr	r3, [r5, #56]
 275 016e 23F00F00 		bic	r0, r3, #15
 276 0172 4A46     		mov	r2, r9
 277 0174 D0F810A0 		ldr	r10, [r0, #16]
 278 0178 03F00F09 		and	r9, r3, #15
 279 017c 06FA09F1 		lsl	r1, r6, r9
 280 0180 2AFA09F9 		lsr	r9, r10, r9
 281 0184 FFF7FEFF 		bl	_pal_lld_setgroupmode
 282 0188 19F0010F 		tst	r9, #1
 283 018c 05D0     		beq	.L54
 284              	.L20:
 285 018e 606B     		ldr	r0, [r4, #52]
ARM GAS  /tmp/ccjjlp8L.s 			page 6


 286 0190 05F11001 		add	r1, r5, #16
 287 0194 FFF7FEFF 		bl	i2cStart
 288 0198 6CE7     		b	.L19
 289              	.L54:
 290 019a E86B     		ldr	r0, [r5, #60]
 291 019c FFF7FEFF 		bl	palReadLineMode
 292 01a0 8146     		mov	r9, r0
 293 01a2 E86B     		ldr	r0, [r5, #60]
 294 01a4 00F00F01 		and	r1, r0, #15
 295 01a8 0122     		movs	r2, #1
 296 01aa 06FA01F1 		lsl	r1, r6, r1
 297 01ae 20F00F00 		bic	r0, r0, #15
 298 01b2 FFF7FEFF 		bl	_pal_lld_setgroupmode
 299 01b6 4FF0140A 		mov	r10, #20
 300              	.L21:
 301 01ba EB6B     		ldr	r3, [r5, #60]
 302 01bc 23F00F02 		bic	r2, r3, #15
 303 01c0 03F00F03 		and	r3, r3, #15
 304 01c4 5169     		ldr	r1, [r2, #20]
 305 01c6 06FA03F3 		lsl	r3, r6, r3
 306 01ca 4B40     		eors	r3, r3, r1
 307 01cc 5361     		str	r3, [r2, #20]
 308 01ce 0120     		movs	r0, #1
 309 01d0 FFF7FEFF 		bl	chThdSleep
 310 01d4 0AF1FF33 		add	r3, r10, #-1
 311 01d8 13F0FF0A 		ands	r10, r3, #255
 312 01dc EDD1     		bne	.L21
 313 01de E86B     		ldr	r0, [r5, #60]
 314 01e0 00F00F01 		and	r1, r0, #15
 315 01e4 4A46     		mov	r2, r9
 316 01e6 06FA01F1 		lsl	r1, r6, r1
 317 01ea 20F00F00 		bic	r0, r0, #15
 318 01ee FFF7FEFF 		bl	_pal_lld_setgroupmode
 319 01f2 CCE7     		b	.L20
 320              	.L56:
 321              		.align	2
 322              	.L55:
 323 01f4 00000000 		.word	ch0
 324              		.size	thd_i2c, .-thd_i2c
 325              		.section	.text.i2c_chibios_submit,"ax",%progbits
 326              		.align	1
 327              		.p2align 4,,15
 328              		.syntax unified
 329              		.thumb
 330              		.thumb_func
 331              		.fpu fpv4-sp-d16
 332              		.type	i2c_chibios_submit, %function
 333              	i2c_chibios_submit:
 334              		@ args = 0, pretend = 0, frame = 0
 335              		@ frame_needed = 0, uses_anonymous_args = 0
 336 0000 70B5     		push	{r4, r5, r6, lr}
 337 0002 3023     		movs	r3, #48
 338 0004 0446     		mov	r4, r0
 339 0006 0D46     		mov	r5, r1
 340              		.syntax unified
 341              	@ 493 "/home/gautier/dev/paparazzi/sw/ext/chibios/os/common/ext/ARM/CMSIS/Core/Include/cmsis_gcc.h"
 342 0008 83F31188 		MSR basepri, r3
ARM GAS  /tmp/ccjjlp8L.s 			page 7


 343              	@ 0 "" 2
 344              		.thumb
 345              		.syntax unified
 346 000c FFF7FEFF 		bl	__stats_start_measure_crit_thd
 347 0010 94F83020 		ldrb	r2, [r4, #48]	@ zero_extendqisi2
 348 0014 94F83110 		ldrb	r1, [r4, #49]	@ zero_extendqisi2
 349 0018 531C     		adds	r3, r2, #1
 350 001a DBB2     		uxtb	r3, r3
 351 001c 082B     		cmp	r3, #8
 352 001e 28BF     		it	cs
 353 0020 0023     		movcs	r3, #0
 354 0022 9942     		cmp	r1, r3
 355 0024 11D0     		beq	.L62
 356 0026 0432     		adds	r2, r2, #4
 357 0028 0026     		movs	r6, #0
 358 002a 85F82560 		strb	r6, [r5, #37]
 359 002e 44F82250 		str	r5, [r4, r2, lsl #2]
 360 0032 84F83030 		strb	r3, [r4, #48]
 361 0036 FFF7FEFF 		bl	__stats_stop_measure_crit_thd
 362              		.syntax unified
 363              	@ 493 "/home/gautier/dev/paparazzi/sw/ext/chibios/os/common/ext/ARM/CMSIS/Core/Include/cmsis_gcc.h"
 364 003a 86F31188 		MSR basepri, r6
 365              	@ 0 "" 2
 366              		.thumb
 367              		.syntax unified
 368 003e A06B     		ldr	r0, [r4, #56]
 369 0040 0430     		adds	r0, r0, #4
 370 0042 FFF7FEFF 		bl	chSemSignal
 371 0046 0120     		movs	r0, #1
 372 0048 70BD     		pop	{r4, r5, r6, pc}
 373              	.L62:
 374 004a E26B     		ldr	r2, [r4, #60]
 375 004c 5388     		ldrh	r3, [r2, #2]
 376 004e 0133     		adds	r3, r3, #1
 377 0050 0321     		movs	r1, #3
 378 0052 9BB2     		uxth	r3, r3
 379 0054 5380     		strh	r3, [r2, #2]	@ movhi
 380 0056 85F82510 		strb	r1, [r5, #37]
 381 005a FFF7FEFF 		bl	__stats_stop_measure_crit_thd
 382 005e 0020     		movs	r0, #0
 383              		.syntax unified
 384              	@ 493 "/home/gautier/dev/paparazzi/sw/ext/chibios/os/common/ext/ARM/CMSIS/Core/Include/cmsis_gcc.h"
 385 0060 80F31188 		MSR basepri, r0
 386              	@ 0 "" 2
 387              		.thumb
 388              		.syntax unified
 389 0064 70BD     		pop	{r4, r5, r6, pc}
 390              		.size	i2c_chibios_submit, .-i2c_chibios_submit
 391 0066 00BF     		.section	.text.i2c3_hw_init,"ax",%progbits
 392              		.align	1
 393              		.p2align 4,,15
 394              		.global	i2c3_hw_init
 395              		.syntax unified
 396              		.thumb
 397              		.thumb_func
 398              		.fpu fpv4-sp-d16
 399              		.type	i2c3_hw_init, %function
ARM GAS  /tmp/ccjjlp8L.s 			page 8


 400              	i2c3_hw_init:
 401              		@ args = 0, pretend = 0, frame = 0
 402              		@ frame_needed = 0, uses_anonymous_args = 0
 403 0000 70B5     		push	{r4, r5, r6, lr}
 404 0002 0F4C     		ldr	r4, .L65
 405 0004 0F4D     		ldr	r5, .L65+4
 406 0006 104E     		ldr	r6, .L65+8
 407 0008 104B     		ldr	r3, .L65+12
 408 000a 2360     		str	r3, [r4]
 409 000c 104B     		ldr	r3, .L65+16
 410 000e 6360     		str	r3, [r4, #4]
 411 0010 82B0     		sub	sp, sp, #8
 412 0012 104B     		ldr	r3, .L65+20
 413 0014 A360     		str	r3, [r4, #8]
 414 0016 05F11001 		add	r1, r5, #16
 415 001a 3046     		mov	r0, r6
 416 001c FFF7FEFF 		bl	i2cStart
 417 0020 05F11C02 		add	r2, r5, #28
 418 0024 E263     		str	r2, [r4, #60]
 419 0026 0C4B     		ldr	r3, .L65+24
 420 0028 0094     		str	r4, [sp]
 421 002a 8122     		movs	r2, #129
 422 002c 4FF47671 		mov	r1, #984
 423 0030 0A48     		ldr	r0, .L65+28
 424 0032 6663     		str	r6, [r4, #52]
 425 0034 A563     		str	r5, [r4, #56]
 426 0036 FFF7FEFF 		bl	chThdCreateStatic
 427 003a 02B0     		add	sp, sp, #8
 428              		@ sp needed
 429 003c 70BD     		pop	{r4, r5, r6, pc}
 430              	.L66:
 431 003e 00BF     		.align	2
 432              	.L65:
 433 0040 00000000 		.word	i2c3
 434 0044 00000000 		.word	.LANCHOR0
 435 0048 00000000 		.word	I2CD3
 436 004c 00000000 		.word	i2c_chibios_idle
 437 0050 00000000 		.word	i2c_chibios_submit
 438 0054 00000000 		.word	i2c_chibios_setbitrate
 439 0058 00000000 		.word	thd_i2c
 440 005c 00000000 		.word	.LANCHOR1
 441              		.size	i2c3_hw_init, .-i2c3_hw_init
 442              		.section	.text.i2c_event,"ax",%progbits
 443              		.align	1
 444              		.p2align 4,,15
 445              		.global	i2c_event
 446              		.syntax unified
 447              		.thumb
 448              		.thumb_func
 449              		.fpu fpv4-sp-d16
 450              		.type	i2c_event, %function
 451              	i2c_event:
 452              		@ args = 0, pretend = 0, frame = 0
 453              		@ frame_needed = 0, uses_anonymous_args = 0
 454              		@ link register save eliminated.
 455 0000 7047     		bx	lr
 456              		.size	i2c_event, .-i2c_event
ARM GAS  /tmp/ccjjlp8L.s 			page 9


 457 0002 00BF     		.section	.rodata.str1.4,"aMS",%progbits,1
 458              		.align	2
 459              	.LC0:
 460 0000 69326333 		.ascii	"i2c3\000"
 460      00
 461              		.section	.bss.wa_thd_i2c3,"aw",%nobits
 462              		.align	3
 463              		.set	.LANCHOR1,. + 0
 464              		.type	wa_thd_i2c3, %object
 465              		.size	wa_thd_i2c3, 984
 466              	wa_thd_i2c3:
 467 0000 00000000 		.space	984
 467      00000000 
 467      00000000 
 467      00000000 
 467      00000000 
 468              		.section	.ram0_init,"aw"
 469              		.align	3
 470              		.set	.LANCHOR0,. + 0
 471              		.type	i2c3_init_s, %object
 472              		.size	i2c3_init_s, 64
 473              	i2c3_init_s:
 474 0000 00000000 		.word	.LC0
 475 0004 04000000 		.word	i2c3_init_s+4
 476 0008 04000000 		.word	i2c3_init_s+4
 477 000c 00000000 		.word	0
 478 0010 01       		.byte	1
 479 0011 000000   		.space	3
 480 0014 801A0600 		.word	400000
 481 0018 02       		.byte	2
 482 0019 000000   		.space	3
 483 001c 00000000 		.space	28
 483      00000000 
 483      00000000 
 483      00000000 
 483      00000000 
 484 0038 09080240 		.word	1073874953
 485 003c 08000240 		.word	1073872904
 486              		.ident	"GCC: (15:10.3-2021.07-4) 10.3.1 20210621 (release)"
ARM GAS  /tmp/ccjjlp8L.s 			page 10

