ARM GAS  /tmp/ccLdQz3C.s 			page 1


   1              		.cpu cortex-m4
   2              		.eabi_attribute 27, 1
   3              		.eabi_attribute 20, 1
   4              		.eabi_attribute 21, 1
   5              		.eabi_attribute 23, 3
   6              		.eabi_attribute 24, 1
   7              		.eabi_attribute 25, 1
   8              		.eabi_attribute 26, 1
   9              		.eabi_attribute 30, 2
  10              		.eabi_attribute 34, 1
  11              		.eabi_attribute 18, 4
  12              		.file	"main_chibios.c"
  13              		.text
  14              		.section	.rodata.thd_ap.str1.4,"aMS",%progbits,1
  15              		.align	2
  16              	.LC0:
  17 0000 415000   		.ascii	"AP\000"
  18              		.section	.text.thd_ap,"ax",%progbits
  19              		.align	1
  20              		.p2align 4,,15
  21              		.arch armv7e-m
  22              		.syntax unified
  23              		.thumb
  24              		.thumb_func
  25              		.fpu fpv4-sp-d16
  26              		.type	thd_ap, %function
  27              	thd_ap:
  28              		@ args = 0, pretend = 0, frame = 0
  29              		@ frame_needed = 0, uses_anonymous_args = 0
  30 0000 F8B5     		push	{r3, r4, r5, r6, r7, lr}
  31 0002 124D     		ldr	r5, .L8
  32 0004 124A     		ldr	r2, .L8+4
  33 0006 EB68     		ldr	r3, [r5, #12]
  34 0008 93F82560 		ldrb	r6, [r3, #37]	@ zero_extendqisi2
  35 000c DA61     		str	r2, [r3, #28]
  36 000e 16F00406 		ands	r6, r6, #4
  37 0012 16D1     		bne	.L2
  38 0014 3027     		movs	r7, #48
  39              	.L3:
  40              		.syntax unified
  41              	@ 493 "/home/gautier/dev/paparazzi/sw/ext/chibios/os/common/ext/ARM/CMSIS/Core/Include/cmsis_gcc.h"
  42 0016 87F31188 		MSR basepri, r7
  43              	@ 0 "" 2
  44              		.thumb
  45              		.syntax unified
  46 001a FFF7FEFF 		bl	__stats_start_measure_crit_thd
  47 001e EC69     		ldr	r4, [r5, #28]
  48 0020 FFF7FEFF 		bl	__stats_stop_measure_crit_thd
  49              		.syntax unified
  50              	@ 493 "/home/gautier/dev/paparazzi/sw/ext/chibios/os/common/ext/ARM/CMSIS/Core/Include/cmsis_gcc.h"
  51 0024 86F31188 		MSR basepri, r6
  52              	@ 0 "" 2
  53              		.thumb
  54              		.syntax unified
  55 0028 FFF7FEFF 		bl	main_ap_periodic
  56 002c FFF7FEFF 		bl	main_ap_event
  57 0030 611C     		adds	r1, r4, #1
ARM GAS  /tmp/ccLdQz3C.s 			page 2


  58 0032 2046     		mov	r0, r4
  59 0034 FFF7FEFF 		bl	chThdSleepUntilWindowed
  60 0038 EB68     		ldr	r3, [r5, #12]
  61 003a 93F82530 		ldrb	r3, [r3, #37]	@ zero_extendqisi2
  62 003e 5B07     		lsls	r3, r3, #29
  63 0040 E9D5     		bpl	.L3
  64              	.L2:
  65 0042 BDE8F840 		pop	{r3, r4, r5, r6, r7, lr}
  66 0046 0020     		movs	r0, #0
  67 0048 FFF7FEBF 		b	chThdExit
  68              	.L9:
  69              		.align	2
  70              	.L8:
  71 004c 00000000 		.word	ch0
  72 0050 00000000 		.word	.LC0
  73              		.size	thd_ap, .-thd_ap
  74              		.section	.text.startup.main,"ax",%progbits
  75              		.align	1
  76              		.p2align 4,,15
  77              		.global	main
  78              		.syntax unified
  79              		.thumb
  80              		.thumb_func
  81              		.fpu fpv4-sp-d16
  82              		.type	main, %function
  83              	main:
  84              		@ args = 0, pretend = 0, frame = 0
  85              		@ frame_needed = 0, uses_anonymous_args = 0
  86 0000 10B5     		push	{r4, lr}
  87 0002 82B0     		sub	sp, sp, #8
  88 0004 FFF7FEFF 		bl	mcu_init
  89 0008 0024     		movs	r4, #0
  90 000a FFF7FEFF 		bl	main_ap_init
  91 000e 4FF47A70 		mov	r0, #1000
  92 0012 FFF7FEFF 		bl	chThdSleep
  93 0016 42F2D811 		movw	r1, #8664
  94 001a 084B     		ldr	r3, .L12
  95 001c 0094     		str	r4, [sp]
  96 001e 8022     		movs	r2, #128
  97 0020 0748     		ldr	r0, .L12+4
  98 0022 FFF7FEFF 		bl	chThdCreateStatic
  99 0026 074B     		ldr	r3, .L12+8
 100 0028 0246     		mov	r2, r0
 101 002a 4FF0FF30 		mov	r0, #-1
 102 002e 1A60     		str	r2, [r3]
 103 0030 FFF7FEFF 		bl	chThdSleep
 104 0034 2046     		mov	r0, r4
 105 0036 02B0     		add	sp, sp, #8
 106              		@ sp needed
 107 0038 10BD     		pop	{r4, pc}
 108              	.L13:
 109 003a 00BF     		.align	2
 110              	.L12:
 111 003c 00000000 		.word	thd_ap
 112 0040 00000000 		.word	wa_thd_ap
 113 0044 00000000 		.word	.LANCHOR0
 114              		.size	main, .-main
ARM GAS  /tmp/ccLdQz3C.s 			page 3


 115              		.section	.text.pprz_terminate_autopilot_threads,"ax",%progbits
 116              		.align	1
 117              		.p2align 4,,15
 118              		.global	pprz_terminate_autopilot_threads
 119              		.syntax unified
 120              		.thumb
 121              		.thumb_func
 122              		.fpu fpv4-sp-d16
 123              		.type	pprz_terminate_autopilot_threads, %function
 124              	pprz_terminate_autopilot_threads:
 125              		@ args = 0, pretend = 0, frame = 0
 126              		@ frame_needed = 0, uses_anonymous_args = 0
 127 0000 10B5     		push	{r4, lr}
 128 0002 054C     		ldr	r4, .L20
 129 0004 2068     		ldr	r0, [r4]
 130 0006 30B1     		cbz	r0, .L14
 131 0008 FFF7FEFF 		bl	chThdTerminate
 132 000c 2068     		ldr	r0, [r4]
 133 000e FFF7FEFF 		bl	chThdWait
 134 0012 0023     		movs	r3, #0
 135 0014 2360     		str	r3, [r4]
 136              	.L14:
 137 0016 10BD     		pop	{r4, pc}
 138              	.L21:
 139              		.align	2
 140              	.L20:
 141 0018 00000000 		.word	.LANCHOR0
 142              		.size	pprz_terminate_autopilot_threads, .-pprz_terminate_autopilot_threads
 143              		.global	wa_thd_ap
 144              		.section	.bss.apThdPtr,"aw",%nobits
 145              		.align	2
 146              		.set	.LANCHOR0,. + 0
 147              		.type	apThdPtr, %object
 148              		.size	apThdPtr, 4
 149              	apThdPtr:
 150 0000 00000000 		.space	4
 151              		.section	.bss.wa_thd_ap,"aw",%nobits
 152              		.align	3
 153              		.type	wa_thd_ap, %object
 154              		.size	wa_thd_ap, 8664
 155              	wa_thd_ap:
 156 0000 00000000 		.space	8664
 156      00000000 
 156      00000000 
 156      00000000 
 156      00000000 
 157              		.ident	"GCC: (15:10.3-2021.07-4) 10.3.1 20210621 (release)"
ARM GAS  /tmp/ccLdQz3C.s 			page 4

