ARM GAS  /tmp/cce0qbfU.s 			page 1


   1              		.cpu cortex-m4
   2              		.eabi_attribute 27, 1
   3              		.eabi_attribute 20, 1
   4              		.eabi_attribute 21, 1
   5              		.eabi_attribute 23, 3
   6              		.eabi_attribute 24, 1
   7              		.eabi_attribute 25, 1
   8              		.eabi_attribute 26, 1
   9              		.eabi_attribute 30, 2
  10              		.eabi_attribute 34, 1
  11              		.eabi_attribute 18, 4
  12              		.file	"navigation.c"
  13              		.text
  14              		.section	.text.FP_RANGE_FORCEFIELD_cb,"ax",%progbits
  15              		.align	1
  16              		.p2align 4,,15
  17              		.arch armv7e-m
  18              		.syntax unified
  19              		.thumb
  20              		.thumb_func
  21              		.fpu fpv4-sp-d16
  22              		.type	FP_RANGE_FORCEFIELD_cb, %function
  23              	FP_RANGE_FORCEFIELD_cb:
  24              		@ args = 0, pretend = 0, frame = 0
  25              		@ frame_needed = 0, uses_anonymous_args = 0
  26              		@ link register save eliminated.
  27 0000 0248     		ldr	r0, .L3
  28 0002 034B     		ldr	r3, .L3+4
  29 0004 0160     		str	r1, [r0]	@ float
  30 0006 1A60     		str	r2, [r3]	@ float
  31 0008 7047     		bx	lr
  32              	.L4:
  33 000a 00BF     		.align	2
  34              	.L3:
  35 000c 00000000 		.word	.LANCHOR0
  36 0010 00000000 		.word	.LANCHOR1
  37              		.size	FP_RANGE_FORCEFIELD_cb, .-FP_RANGE_FORCEFIELD_cb
  38              		.section	.text.empty_stage_init,"ax",%progbits
  39              		.align	1
  40              		.p2align 4,,15
  41              		.syntax unified
  42              		.thumb
  43              		.thumb_func
  44              		.fpu fpv4-sp-d16
  45              		.type	empty_stage_init, %function
  46              	empty_stage_init:
  47              		@ args = 0, pretend = 0, frame = 0
  48              		@ frame_needed = 0, uses_anonymous_args = 0
  49              		@ link register save eliminated.
  50 0000 7047     		bx	lr
  51              		.size	empty_stage_init, .-empty_stage_init
  52 0002 00BF     		.section	.text.empty_goto,"ax",%progbits
  53              		.align	1
  54              		.p2align 4,,15
  55              		.syntax unified
  56              		.thumb
  57              		.thumb_func
ARM GAS  /tmp/cce0qbfU.s 			page 2


  58              		.fpu fpv4-sp-d16
  59              		.type	empty_goto, %function
  60              	empty_goto:
  61              		@ args = 0, pretend = 0, frame = 0
  62              		@ frame_needed = 0, uses_anonymous_args = 0
  63              		@ link register save eliminated.
  64 0000 7047     		bx	lr
  65              		.size	empty_goto, .-empty_goto
  66 0002 00BF     		.section	.text.empty_route,"ax",%progbits
  67              		.align	1
  68              		.p2align 4,,15
  69              		.syntax unified
  70              		.thumb
  71              		.thumb_func
  72              		.fpu fpv4-sp-d16
  73              		.type	empty_route, %function
  74              	empty_route:
  75              		@ args = 0, pretend = 0, frame = 0
  76              		@ frame_needed = 0, uses_anonymous_args = 0
  77              		@ link register save eliminated.
  78 0000 7047     		bx	lr
  79              		.size	empty_route, .-empty_route
  80 0002 00BF     		.section	.text.empty_approaching,"ax",%progbits
  81              		.align	1
  82              		.p2align 4,,15
  83              		.syntax unified
  84              		.thumb
  85              		.thumb_func
  86              		.fpu fpv4-sp-d16
  87              		.type	empty_approaching, %function
  88              	empty_approaching:
  89              		@ args = 0, pretend = 0, frame = 0
  90              		@ frame_needed = 0, uses_anonymous_args = 0
  91              		@ link register save eliminated.
  92 0000 0120     		movs	r0, #1
  93 0002 7047     		bx	lr
  94              		.size	empty_approaching, .-empty_approaching
  95              		.section	.text.empty_circle,"ax",%progbits
  96              		.align	1
  97              		.p2align 4,,15
  98              		.syntax unified
  99              		.thumb
 100              		.thumb_func
 101              		.fpu fpv4-sp-d16
 102              		.type	empty_circle, %function
 103              	empty_circle:
 104              		@ args = 0, pretend = 0, frame = 0
 105              		@ frame_needed = 0, uses_anonymous_args = 0
 106              		@ link register save eliminated.
 107 0000 7047     		bx	lr
 108              		.size	empty_circle, .-empty_circle
 109 0002 00BF     		.section	.text.empty_oval,"ax",%progbits
 110              		.align	1
 111              		.p2align 4,,15
 112              		.syntax unified
 113              		.thumb
 114              		.thumb_func
ARM GAS  /tmp/cce0qbfU.s 			page 3


 115              		.fpu fpv4-sp-d16
 116              		.type	empty_oval, %function
 117              	empty_oval:
 118              		@ args = 0, pretend = 0, frame = 0
 119              		@ frame_needed = 0, uses_anonymous_args = 0
 120              		@ link register save eliminated.
 121 0000 7047     		bx	lr
 122              		.size	empty_oval, .-empty_oval
 123              		.global	__aeabi_f2d
 124              		.global	__aeabi_dcmpgt
 125              		.global	__aeabi_dsub
 126              		.global	__aeabi_d2f
 127              		.global	__aeabi_dcmplt
 128              		.global	__aeabi_dadd
 129 0002 00BF     		.section	.text.obstacle_detection_cb,"ax",%progbits
 130              		.align	1
 131              		.p2align 4,,15
 132              		.syntax unified
 133              		.thumb
 134              		.thumb_func
 135              		.fpu fpv4-sp-d16
 136              		.type	obstacle_detection_cb, %function
 137              	obstacle_detection_cb:
 138              		@ args = 0, pretend = 0, frame = 0
 139              		@ frame_needed = 0, uses_anonymous_args = 0
 140 0000 2DE9F047 		push	{r4, r5, r6, r7, r8, r9, r10, lr}
 141 0004 1046     		mov	r0, r2	@ float
 142 0006 2DED028B 		vpush.64	{d8}
 143 000a 9A46     		mov	r10, r3	@ float
 144 000c 08EE102A 		vmov	s16, r2
 145 0010 FFF7FEFF 		bl	__aeabi_f2d
 146 0014 4EA3     		adr	r3, .L31
 147 0016 D3E90023 		ldrd	r2, [r3]
 148 001a 0446     		mov	r4, r0
 149 001c 0D46     		mov	r5, r1
 150 001e FFF7FEFF 		bl	__aeabi_dcmpgt
 151 0022 D0B1     		cbz	r0, .L12
 152 0024 0FF23019 		adr	r9, .L31+8
 153 0028 D9E90089 		ldrd	r8, [r9]
 154 002c 48A7     		adr	r7, .L31
 155 002e D7E90067 		ldrd	r6, [r7]
 156              	.L14:
 157 0032 4246     		mov	r2, r8
 158 0034 4B46     		mov	r3, r9
 159 0036 2046     		mov	r0, r4
 160 0038 2946     		mov	r1, r5
 161 003a FFF7FEFF 		bl	__aeabi_dsub
 162 003e FFF7FEFF 		bl	__aeabi_d2f
 163 0042 08EE100A 		vmov	s16, r0
 164 0046 FFF7FEFF 		bl	__aeabi_f2d
 165 004a 3246     		mov	r2, r6
 166 004c 3B46     		mov	r3, r7
 167 004e 0446     		mov	r4, r0
 168 0050 0D46     		mov	r5, r1
 169 0052 FFF7FEFF 		bl	__aeabi_dcmpgt
 170 0056 0028     		cmp	r0, #0
 171 0058 EBD1     		bne	.L14
ARM GAS  /tmp/cce0qbfU.s 			page 4


 172              	.L12:
 173 005a 41A3     		adr	r3, .L31+16
 174 005c D3E90023 		ldrd	r2, [r3]
 175 0060 2046     		mov	r0, r4
 176 0062 2946     		mov	r1, r5
 177 0064 FFF7FEFF 		bl	__aeabi_dcmplt
 178 0068 D0B1     		cbz	r0, .L15
 179 006a 0FF2EC09 		adr	r9, .L31+8
 180 006e D9E90089 		ldrd	r8, [r9]
 181 0072 3BA7     		adr	r7, .L31+16
 182 0074 D7E90067 		ldrd	r6, [r7]
 183              	.L17:
 184 0078 4246     		mov	r2, r8
 185 007a 4B46     		mov	r3, r9
 186 007c 2046     		mov	r0, r4
 187 007e 2946     		mov	r1, r5
 188 0080 FFF7FEFF 		bl	__aeabi_dadd
 189 0084 FFF7FEFF 		bl	__aeabi_d2f
 190 0088 08EE100A 		vmov	s16, r0
 191 008c FFF7FEFF 		bl	__aeabi_f2d
 192 0090 3246     		mov	r2, r6
 193 0092 3B46     		mov	r3, r7
 194 0094 0446     		mov	r4, r0
 195 0096 0D46     		mov	r5, r1
 196 0098 FFF7FEFF 		bl	__aeabi_dcmplt
 197 009c 0028     		cmp	r0, #0
 198 009e EBD1     		bne	.L17
 199              	.L15:
 200 00a0 F0EEC87A 		vabs.f32	s15, s16
 201 00a4 17EE900A 		vmov	r0, s15
 202 00a8 FFF7FEFF 		bl	__aeabi_f2d
 203 00ac 2EA3     		adr	r3, .L31+24
 204 00ae D3E90023 		ldrd	r2, [r3]
 205 00b2 FFF7FEFF 		bl	__aeabi_dcmplt
 206 00b6 0028     		cmp	r0, #0
 207 00b8 44D0     		beq	.L11
 208 00ba 5046     		mov	r0, r10	@ float
 209 00bc FFF7FEFF 		bl	__aeabi_f2d
 210 00c0 23A3     		adr	r3, .L31
 211 00c2 D3E90023 		ldrd	r2, [r3]
 212 00c6 0446     		mov	r4, r0
 213 00c8 0D46     		mov	r5, r1
 214 00ca FFF7FEFF 		bl	__aeabi_dcmpgt
 215 00ce C0B1     		cbz	r0, .L20
 216 00d0 0FF28409 		adr	r9, .L31+8
 217 00d4 D9E90089 		ldrd	r8, [r9]
 218 00d8 1DA7     		adr	r7, .L31
 219 00da D7E90067 		ldrd	r6, [r7]
 220              	.L22:
 221 00de 4246     		mov	r2, r8
 222 00e0 4B46     		mov	r3, r9
 223 00e2 2046     		mov	r0, r4
 224 00e4 2946     		mov	r1, r5
 225 00e6 FFF7FEFF 		bl	__aeabi_dsub
 226 00ea FFF7FEFF 		bl	__aeabi_d2f
 227 00ee FFF7FEFF 		bl	__aeabi_f2d
 228 00f2 3246     		mov	r2, r6
ARM GAS  /tmp/cce0qbfU.s 			page 5


 229 00f4 3B46     		mov	r3, r7
 230 00f6 0446     		mov	r4, r0
 231 00f8 0D46     		mov	r5, r1
 232 00fa FFF7FEFF 		bl	__aeabi_dcmpgt
 233 00fe 0028     		cmp	r0, #0
 234 0100 EDD1     		bne	.L22
 235              	.L20:
 236 0102 17A3     		adr	r3, .L31+16
 237 0104 D3E90023 		ldrd	r2, [r3]
 238 0108 2046     		mov	r0, r4
 239 010a 2946     		mov	r1, r5
 240 010c FFF7FEFF 		bl	__aeabi_dcmplt
 241 0110 C0B1     		cbz	r0, .L11
 242 0112 0FF24409 		adr	r9, .L31+8
 243 0116 D9E90089 		ldrd	r8, [r9]
 244 011a 11A7     		adr	r7, .L31+16
 245 011c D7E90067 		ldrd	r6, [r7]
 246              	.L24:
 247 0120 4246     		mov	r2, r8
 248 0122 4B46     		mov	r3, r9
 249 0124 2046     		mov	r0, r4
 250 0126 2946     		mov	r1, r5
 251 0128 FFF7FEFF 		bl	__aeabi_dadd
 252 012c FFF7FEFF 		bl	__aeabi_d2f
 253 0130 FFF7FEFF 		bl	__aeabi_f2d
 254 0134 3246     		mov	r2, r6
 255 0136 3B46     		mov	r3, r7
 256 0138 0446     		mov	r4, r0
 257 013a 0D46     		mov	r5, r1
 258 013c FFF7FEFF 		bl	__aeabi_dcmplt
 259 0140 0028     		cmp	r0, #0
 260 0142 EDD1     		bne	.L24
 261              	.L11:
 262 0144 BDEC028B 		vldm	sp!, {d8}
 263 0148 BDE8F087 		pop	{r4, r5, r6, r7, r8, r9, r10, pc}
 264              	.L32:
 265 014c AFF30080 		.align	3
 266              	.L31:
 267 0150 182D4454 		.word	1413754136
 268 0154 FB210940 		.word	1074340347
 269 0158 182D4454 		.word	1413754136
 270 015c FB211940 		.word	1075388923
 271 0160 182D4454 		.word	1413754136
 272 0164 FB2109C0 		.word	-1073143301
 273 0168 728A8EE4 		.word	-460420494
 274 016c F21F923F 		.word	1066541042
 275              		.size	obstacle_detection_cb, .-obstacle_detection_cb
 276              		.section	.text.empty_oval_init,"ax",%progbits
 277              		.align	1
 278              		.p2align 4,,15
 279              		.syntax unified
 280              		.thumb
 281              		.thumb_func
 282              		.fpu fpv4-sp-d16
 283              		.type	empty_oval_init, %function
 284              	empty_oval_init:
 285              		@ args = 0, pretend = 0, frame = 0
ARM GAS  /tmp/cce0qbfU.s 			page 6


 286              		@ frame_needed = 0, uses_anonymous_args = 0
 287              		@ link register save eliminated.
 288 0000 7047     		bx	lr
 289              		.size	empty_oval_init, .-empty_oval_init
 290 0002 00BF     		.section	.text.nav_init,"ax",%progbits
 291              		.align	1
 292              		.p2align 4,,15
 293              		.global	nav_init
 294              		.syntax unified
 295              		.thumb
 296              		.thumb_func
 297              		.fpu fpv4-sp-d16
 298              		.type	nav_init, %function
 299              	nav_init:
 300              		@ args = 0, pretend = 0, frame = 0
 301              		@ frame_needed = 0, uses_anonymous_args = 0
 302 0000 38B5     		push	{r3, r4, r5, lr}
 303 0002 FFF7FEFF 		bl	waypoints_init
 304 0006 3649     		ldr	r1, .L38
 305 0008 364B     		ldr	r3, .L38+4
 306 000a D1F838C0 		ldr	ip, [r1, #56]	@ float
 307 000e C86B     		ldr	r0, [r1, #60]	@ float
 308 0010 354C     		ldr	r4, .L38+8
 309 0012 096C     		ldr	r1, [r1, #64]	@ float
 310 0014 D960     		str	r1, [r3, #12]	@ float
 311 0016 9961     		str	r1, [r3, #24]	@ float
 312 0018 0021     		movs	r1, #0
 313 001a 2170     		strb	r1, [r4]
 314 001c 334D     		ldr	r5, .L38+12
 315 001e C3F804C0 		str	ip, [r3, #4]	@ float
 316 0022 4FF40074 		mov	r4, #512
 317 0026 0022     		movs	r2, #0
 318 0028 C3F810C0 		str	ip, [r3, #16]	@ float
 319 002c 9860     		str	r0, [r3, #8]	@ float
 320 002e DFF804C1 		ldr	ip, .L38+84
 321 0032 5861     		str	r0, [r3, #20]	@ float
 322 0034 1C80     		strh	r4, [r3]	@ movhi
 323 0036 4FF07E50 		mov	r0, #1065353216
 324 003a 2D4C     		ldr	r4, .L38+16
 325 003c 2970     		strb	r1, [r5]
 326 003e 5864     		str	r0, [r3, #68]	@ float
 327 0040 DA61     		str	r2, [r3, #28]	@ float
 328 0042 1A62     		str	r2, [r3, #32]	@ float
 329 0044 5A62     		str	r2, [r3, #36]	@ float
 330 0046 9A62     		str	r2, [r3, #40]	@ float
 331 0048 DA62     		str	r2, [r3, #44]	@ float
 332 004a 1A63     		str	r2, [r3, #48]	@ float
 333 004c 9A64     		str	r2, [r3, #72]	@ float
 334 004e DA64     		str	r2, [r3, #76]	@ float
 335 0050 1A65     		str	r2, [r3, #80]	@ float
 336 0052 5A65     		str	r2, [r3, #84]	@ float
 337 0054 9A65     		str	r2, [r3, #88]	@ float
 338 0056 DA65     		str	r2, [r3, #92]	@ float
 339 0058 9A63     		str	r2, [r3, #56]	@ float
 340 005a DA63     		str	r2, [r3, #60]	@ float
 341 005c 1A64     		str	r2, [r3, #64]	@ float
 342 005e 5A66     		str	r2, [r3, #100]	@ float
ARM GAS  /tmp/cce0qbfU.s 			page 7


 343 0060 9970     		strb	r1, [r3, #2]
 344 0062 5963     		str	r1, [r3, #52]
 345 0064 1C66     		str	r4, [r3, #96]	@ float
 346 0066 C3F868C0 		str	ip, [r3, #104]	@ float
 347 006a 83F87410 		strb	r1, [r3, #116]
 348 006e 2149     		ldr	r1, .L38+20
 349 0070 9967     		str	r1, [r3, #120]	@ float
 350 0072 2149     		ldr	r1, .L38+24
 351 0074 214C     		ldr	r4, .L38+28
 352 0076 0C60     		str	r4, [r1]	@ float
 353 0078 214C     		ldr	r4, .L38+32
 354 007a C3F88040 		str	r4, [r3, #128]	@ float
 355 007e 214C     		ldr	r4, .L38+36
 356 0080 2148     		ldr	r0, .L38+40
 357 0082 C3F88840 		str	r4, [r3, #136]
 358 0086 214C     		ldr	r4, .L38+44
 359 0088 1A67     		str	r2, [r3, #112]	@ float
 360 008a C3F88C40 		str	r4, [r3, #140]
 361 008e 4FF07C52 		mov	r2, #1056964608
 362 0092 1F4C     		ldr	r4, .L38+48
 363 0094 416C     		ldr	r1, [r0, #68]
 364 0096 DA67     		str	r2, [r3, #124]	@ float
 365 0098 C3F89040 		str	r4, [r3, #144]
 366 009c 1D4A     		ldr	r2, .L38+52
 367 009e 1E4C     		ldr	r4, .L38+56
 368 00a0 C3F89440 		str	r4, [r3, #148]
 369 00a4 1D4C     		ldr	r4, .L38+60
 370 00a6 1E4D     		ldr	r5, .L38+64
 371 00a8 C3F89840 		str	r4, [r3, #152]
 372 00ac 9142     		cmp	r1, r2
 373 00ae 1D4C     		ldr	r4, .L38+68
 374 00b0 C3F86CC0 		str	ip, [r3, #108]	@ float
 375 00b4 C3F88450 		str	r5, [r3, #132]
 376 00b8 C3F89C40 		str	r4, [r3, #156]
 377 00bc 05D0     		beq	.L35
 378 00be 1A4B     		ldr	r3, .L38+72
 379 00c0 4264     		str	r2, [r0, #68]
 380 00c2 C2E90131 		strd	r3, r1, [r2, #4]
 381 00c6 FF24     		movs	r4, #255
 382 00c8 1470     		strb	r4, [r2]
 383              	.L35:
 384 00ca 026D     		ldr	r2, [r0, #80]
 385 00cc 174B     		ldr	r3, .L38+76
 386 00ce 9A42     		cmp	r2, r3
 387 00d0 05D0     		beq	.L34
 388 00d2 1749     		ldr	r1, .L38+80
 389 00d4 0365     		str	r3, [r0, #80]
 390 00d6 C3E90112 		strd	r1, r2, [r3, #4]
 391 00da FF24     		movs	r4, #255
 392 00dc 1C70     		strb	r4, [r3]
 393              	.L34:
 394 00de 38BD     		pop	{r3, r4, r5, pc}
 395              	.L39:
 396              		.align	2
 397              	.L38:
 398 00e0 00000000 		.word	waypoints
 399 00e4 00000000 		.word	.LANCHOR2
ARM GAS  /tmp/cce0qbfU.s 			page 8


 400 00e8 00000000 		.word	nav_stage
 401 00ec 00000000 		.word	nav_block
 402 00f0 0000A040 		.word	1084227584
 403 00f4 00001044 		.word	1141899264
 404 00f8 00000000 		.word	.LANCHOR3
 405 00fc CD4C1243 		.word	1125272781
 406 0100 CDCC4CBF 		.word	-1085485875
 407 0104 00000000 		.word	empty_goto
 408 0108 00000000 		.word	abi_queues
 409 010c 00000000 		.word	empty_route
 410 0110 00000000 		.word	empty_approaching
 411 0114 00000000 		.word	.LANCHOR4
 412 0118 00000000 		.word	empty_circle
 413 011c 00000000 		.word	empty_oval_init
 414 0120 00000000 		.word	empty_stage_init
 415 0124 00000000 		.word	empty_oval
 416 0128 00000000 		.word	obstacle_detection_cb
 417 012c 00000000 		.word	.LANCHOR5
 418 0130 00000000 		.word	FP_RANGE_FORCEFIELD_cb
 419 0134 9A99993E 		.word	1050253722
 420              		.size	nav_init, .-nav_init
 421              		.section	.text.nav_parse_BLOCK,"ax",%progbits
 422              		.align	1
 423              		.p2align 4,,15
 424              		.global	nav_parse_BLOCK
 425              		.syntax unified
 426              		.thumb
 427              		.thumb_func
 428              		.fpu fpv4-sp-d16
 429              		.type	nav_parse_BLOCK, %function
 430              	nav_parse_BLOCK:
 431              		@ args = 0, pretend = 0, frame = 0
 432              		@ frame_needed = 0, uses_anonymous_args = 0
 433              		@ link register save eliminated.
 434 0000 4379     		ldrb	r3, [r0, #5]	@ zero_extendqisi2
 435 0002 1F2B     		cmp	r3, #31
 436 0004 00D0     		beq	.L42
 437 0006 7047     		bx	lr
 438              	.L42:
 439 0008 0079     		ldrb	r0, [r0, #4]	@ zero_extendqisi2
 440 000a FFF7FEBF 		b	nav_goto_block
 441              		.size	nav_parse_BLOCK, .-nav_parse_BLOCK
 442 000e 00BF     		.section	.text.nav_parse_MOVE_WP,"ax",%progbits
 443              		.align	1
 444              		.p2align 4,,15
 445              		.global	nav_parse_MOVE_WP
 446              		.syntax unified
 447              		.thumb
 448              		.thumb_func
 449              		.fpu fpv4-sp-d16
 450              		.type	nav_parse_MOVE_WP, %function
 451              	nav_parse_MOVE_WP:
 452              		@ args = 0, pretend = 0, frame = 16
 453              		@ frame_needed = 0, uses_anonymous_args = 0
 454 0000 4379     		ldrb	r3, [r0, #5]	@ zero_extendqisi2
 455 0002 1F2B     		cmp	r3, #31
 456 0004 24D1     		bne	.L51
ARM GAS  /tmp/cce0qbfU.s 			page 9


 457 0006 134B     		ldr	r3, .L55
 458 0008 93F85C20 		ldrb	r2, [r3, #92]	@ zero_extendqisi2
 459 000c C2B1     		cbz	r2, .L54
 460              	.L45:
 461 000e 1A88     		ldrh	r2, [r3]
 462 0010 02F0C602 		and	r2, r2, #198
 463 0014 E2B1     		cbz	r2, .L51
 464 0016 10B5     		push	{r4, lr}
 465 0018 D0F80E20 		ldr	r2, [r0, #14]	@ unaligned
 466 001c 9C6D     		ldr	r4, [r3, #88]
 467 001e 196B     		ldr	r1, [r3, #48]
 468 0020 84B0     		sub	sp, sp, #16
 469 0022 131B     		subs	r3, r2, r4
 470 0024 D0F80640 		ldr	r4, [r0, #6]	@ unaligned
 471 0028 D0F80A20 		ldr	r2, [r0, #10]	@ unaligned
 472 002c 0079     		ldrb	r0, [r0, #4]	@ zero_extendqisi2
 473 002e 0B44     		add	r3, r3, r1
 474 0030 01A9     		add	r1, sp, #4
 475 0032 CDE90142 		strd	r4, r2, [sp, #4]
 476 0036 0393     		str	r3, [sp, #12]
 477 0038 FFF7FEFF 		bl	waypoint_move_lla
 478 003c 04B0     		add	sp, sp, #16
 479              		@ sp needed
 480 003e 10BD     		pop	{r4, pc}
 481              	.L54:
 482 0040 93F8E420 		ldrb	r2, [r3, #228]	@ zero_extendqisi2
 483 0044 002A     		cmp	r2, #0
 484 0046 E2D1     		bne	.L45
 485 0048 93F8F820 		ldrb	r2, [r3, #248]	@ zero_extendqisi2
 486 004c 002A     		cmp	r2, #0
 487 004e DED1     		bne	.L45
 488              	.L51:
 489 0050 7047     		bx	lr
 490              	.L56:
 491 0052 00BF     		.align	2
 492              	.L55:
 493 0054 00000000 		.word	state
 494              		.size	nav_parse_MOVE_WP, .-nav_parse_MOVE_WP
 495              		.section	.text.nav_run,"ax",%progbits
 496              		.align	1
 497              		.p2align 4,,15
 498              		.global	nav_run
 499              		.syntax unified
 500              		.thumb
 501              		.thumb_func
 502              		.fpu fpv4-sp-d16
 503              		.type	nav_run, %function
 504              	nav_run:
 505              		@ args = 0, pretend = 0, frame = 0
 506              		@ frame_needed = 0, uses_anonymous_args = 0
 507              		@ link register save eliminated.
 508 0000 104B     		ldr	r3, .L61
 509 0002 114A     		ldr	r2, .L61+4
 510 0004 93ED1A7A 		vldr.32	s14, [r3, #104]
 511 0008 D2ED007A 		vldr.32	s15, [r2]
 512 000c DFED0F6A 		vldr.32	s13, .L61+8
 513 0010 5868     		ldr	r0, [r3, #4]	@ float
ARM GAS  /tmp/cce0qbfU.s 			page 10


 514 0012 9968     		ldr	r1, [r3, #8]	@ float
 515 0014 1861     		str	r0, [r3, #16]	@ float
 516 0016 77EE677A 		vsub.f32	s15, s14, s15
 517 001a 5961     		str	r1, [r3, #20]	@ float
 518 001c F0EEE77A 		vabs.f32	s15, s15
 519 0020 F4EEE67A 		vcmpe.f32	s15, s13
 520 0024 F1EE10FA 		vmrs	APSR_nzcv, FPSCR
 521 0028 0BDD     		ble	.L57
 522 002a 0948     		ldr	r0, .L61+12
 523 002c 0949     		ldr	r1, .L61+16
 524 002e D0ED387A 		vldr.32	s15, [r0, #224]
 525 0032 83ED1B7A 		vstr.32	s14, [r3, #108]
 526 0036 77EE877A 		vadd.f32	s15, s15, s14
 527 003a 82ED007A 		vstr.32	s14, [r2]
 528 003e C1ED007A 		vstr.32	s15, [r1]
 529              	.L57:
 530 0042 7047     		bx	lr
 531              	.L62:
 532              		.align	2
 533              	.L61:
 534 0044 00000000 		.word	.LANCHOR2
 535 0048 00000000 		.word	.LANCHOR6
 536 004c CDCC4C3E 		.word	1045220557
 537 0050 00000000 		.word	state
 538 0054 00000000 		.word	.LANCHOR3
 539              		.size	nav_run, .-nav_run
 540              		.section	.text.nav_check_wp_time,"ax",%progbits
 541              		.align	1
 542              		.p2align 4,,15
 543              		.global	nav_check_wp_time
 544              		.syntax unified
 545              		.thumb
 546              		.thumb_func
 547              		.fpu fpv4-sp-d16
 548              		.type	nav_check_wp_time, %function
 549              	nav_check_wp_time:
 550              		@ args = 0, pretend = 0, frame = 0
 551              		@ frame_needed = 0, uses_anonymous_args = 0
 552 0000 2DE9F041 		push	{r4, r5, r6, r7, r8, lr}
 553 0004 2DED028B 		vpush.64	{d8}
 554 0008 D0ED008A 		vldr.32	s17, [r0]
 555 000c 414D     		ldr	r5, .L86
 556 000e 90ED018A 		vldr.32	s16, [r0, #4]
 557 0012 D0ED027A 		vldr.32	s15, [r0, #8]
 558 0016 B0EE687A 		vmov.f32	s14, s17
 559 001a BEEECC7A 		vcvt.s32.f32	s14, s14, #8
 560 001e 0F46     		mov	r7, r1
 561 0020 17EE103A 		vmov	r3, s14	@ int
 562 0024 2968     		ldr	r1, [r5]
 563 0026 B0EE487A 		vmov.f32	s14, s16
 564 002a BEEECC7A 		vcvt.s32.f32	s14, s14, #8
 565 002e 8B42     		cmp	r3, r1
 566 0030 17EE102A 		vmov	r2, s14	@ int
 567 0034 FEEECC7A 		vcvt.s32.f32	s15, s15, #8
 568 0038 0446     		mov	r4, r0
 569 003a 4DD0     		beq	.L83
 570              	.L64:
ARM GAS  /tmp/cce0qbfU.s 			page 11


 571 003c DFF8E480 		ldr	r8, .L86+16
 572 0040 354E     		ldr	r6, .L86+4
 573 0042 C5ED027A 		vstr.32	s15, [r5, #8]	@ int
 574 0046 C5E90032 		strd	r3, r2, [r5]
 575 004a 0023     		movs	r3, #0
 576 004c 88F80030 		strb	r3, [r8]
 577 0050 3388     		ldrh	r3, [r6]
 578 0052 1A06     		lsls	r2, r3, #24
 579 0054 49D5     		bpl	.L84
 580              	.L66:
 581 0056 D6ED427A 		vldr.32	s15, [r6, #264]
 582 005a 78EEE78A 		vsub.f32	s17, s17, s15
 583              	.L67:
 584 005e D6ED437A 		vldr.32	s15, [r6, #268]
 585 0062 38EE678A 		vsub.f32	s16, s16, s15
 586 0066 28EE088A 		vmul.f32	s16, s16, s16
 587 006a A8EEA88A 		vfma.f32	s16, s17, s17
 588 006e B5EE408A 		vcmp.f32	s16, #0
 589 0072 F1EE10FA 		vmrs	APSR_nzcv, FPSCR
 590 0076 46D4     		bmi	.L79
 591 0078 F1EEC87A 		vsqrt.f32	s15, s16
 592              	.L70:
 593 007c B0EE087A 		vmov.f32	s14, #3.0e+0
 594 0080 F4EEC77A 		vcmpe.f32	s15, s14
 595 0084 F1EE10FA 		vmrs	APSR_nzcv, FPSCR
 596 0088 14D5     		bpl	.L80
 597 008a 98F80000 		ldrb	r0, [r8]	@ zero_extendqisi2
 598 008e C0B1     		cbz	r0, .L85
 599 0090 224B     		ldr	r3, .L86+8
 600 0092 234A     		ldr	r2, .L86+12
 601 0094 5B88     		ldrh	r3, [r3, #2]
 602 0096 1288     		ldrh	r2, [r2]
 603 0098 9B1A     		subs	r3, r3, r2
 604 009a 9BB2     		uxth	r3, r3
 605 009c BB42     		cmp	r3, r7
 606 009e 98BF     		it	ls
 607 00a0 0020     		movls	r0, #0
 608 00a2 0AD9     		bls	.L81
 609 00a4 BDEC028B 		vldm	sp!, {d8}
 610 00a8 0023     		movs	r3, #0
 611 00aa C5E90033 		strd	r3, r3, [r5]
 612 00ae AB60     		str	r3, [r5, #8]
 613 00b0 BDE8F081 		pop	{r4, r5, r6, r7, r8, pc}
 614              	.L80:
 615 00b4 0020     		movs	r0, #0
 616 00b6 88F80000 		strb	r0, [r8]
 617              	.L81:
 618 00ba BDEC028B 		vldm	sp!, {d8}
 619 00be BDE8F081 		pop	{r4, r5, r6, r7, r8, pc}
 620              	.L85:
 621 00c2 BDEC028B 		vldm	sp!, {d8}
 622 00c6 154A     		ldr	r2, .L86+8
 623 00c8 154B     		ldr	r3, .L86+12
 624 00ca 5288     		ldrh	r2, [r2, #2]
 625 00cc 1A80     		strh	r2, [r3]	@ movhi
 626 00ce 0121     		movs	r1, #1
 627 00d0 88F80010 		strb	r1, [r8]
ARM GAS  /tmp/cce0qbfU.s 			page 12


 628 00d4 BDE8F081 		pop	{r4, r5, r6, r7, r8, pc}
 629              	.L83:
 630 00d8 6968     		ldr	r1, [r5, #4]
 631 00da 8A42     		cmp	r2, r1
 632 00dc AED1     		bne	.L64
 633 00de 0E4E     		ldr	r6, .L86+4
 634 00e0 DFF84080 		ldr	r8, .L86+16
 635 00e4 3388     		ldrh	r3, [r6]
 636 00e6 1A06     		lsls	r2, r3, #24
 637 00e8 B5D4     		bmi	.L66
 638              	.L84:
 639 00ea FFF7FEFF 		bl	stateCalcPositionEnu_f
 640 00ee 3388     		ldrh	r3, [r6]
 641 00f0 D6ED427A 		vldr.32	s15, [r6, #264]
 642 00f4 94ED018A 		vldr.32	s16, [r4, #4]
 643 00f8 1B06     		lsls	r3, r3, #24
 644 00fa 78EEE78A 		vsub.f32	s17, s17, s15
 645 00fe AED4     		bmi	.L67
 646 0100 FFF7FEFF 		bl	stateCalcPositionEnu_f
 647 0104 ABE7     		b	.L67
 648              	.L79:
 649 0106 18EE100A 		vmov	r0, s16
 650 010a FFF7FEFF 		bl	sqrtf
 651 010e 07EE900A 		vmov	s15, r0
 652 0112 B3E7     		b	.L70
 653              	.L87:
 654              		.align	2
 655              	.L86:
 656 0114 00000000 		.word	.LANCHOR7
 657 0118 00000000 		.word	state
 658 011c 00000000 		.word	autopilot
 659 0120 00000000 		.word	.LANCHOR9
 660 0124 00000000 		.word	.LANCHOR8
 661              		.size	nav_check_wp_time, .-nav_check_wp_time
 662              		.section	.text.nav_reset_reference,"ax",%progbits
 663              		.align	1
 664              		.p2align 4,,15
 665              		.global	nav_reset_reference
 666              		.syntax unified
 667              		.thumb
 668              		.thumb_func
 669              		.fpu fpv4-sp-d16
 670              		.type	nav_reset_reference, %function
 671              	nav_reset_reference:
 672              		@ args = 0, pretend = 0, frame = 0
 673              		@ frame_needed = 0, uses_anonymous_args = 0
 674 0000 08B5     		push	{r3, lr}
 675 0002 FFF7FEFF 		bl	ins_reset_local_origin
 676 0006 BDE80840 		pop	{r3, lr}
 677 000a FFF7FEBF 		b	waypoints_localize_all
 678              		.size	nav_reset_reference, .-nav_reset_reference
 679 000e 00BF     		.section	.text.nav_reset_alt,"ax",%progbits
 680              		.align	1
 681              		.p2align 4,,15
 682              		.global	nav_reset_alt
 683              		.syntax unified
 684              		.thumb
ARM GAS  /tmp/cce0qbfU.s 			page 13


 685              		.thumb_func
 686              		.fpu fpv4-sp-d16
 687              		.type	nav_reset_alt, %function
 688              	nav_reset_alt:
 689              		@ args = 0, pretend = 0, frame = 0
 690              		@ frame_needed = 0, uses_anonymous_args = 0
 691 0000 08B5     		push	{r3, lr}
 692 0002 FFF7FEFF 		bl	ins_reset_altitude_ref
 693 0006 BDE80840 		pop	{r3, lr}
 694 000a FFF7FEBF 		b	waypoints_localize_all
 695              		.size	nav_reset_alt, .-nav_reset_alt
 696 000e 00BF     		.section	.text.nav_init_stage,"ax",%progbits
 697              		.align	1
 698              		.p2align 4,,15
 699              		.global	nav_init_stage
 700              		.syntax unified
 701              		.thumb
 702              		.thumb_func
 703              		.fpu fpv4-sp-d16
 704              		.type	nav_init_stage, %function
 705              	nav_init_stage:
 706              		@ args = 0, pretend = 0, frame = 0
 707              		@ frame_needed = 0, uses_anonymous_args = 0
 708              		@ link register save eliminated.
 709 0000 044B     		ldr	r3, .L94
 710 0002 054A     		ldr	r2, .L94+4
 711 0004 D3F88430 		ldr	r3, [r3, #132]
 712 0008 0021     		movs	r1, #0
 713 000a 1180     		strh	r1, [r2]	@ movhi
 714 000c 03B1     		cbz	r3, .L92
 715 000e 1847     		bx	r3	@ indirect register sibling call
 716              	.L92:
 717 0010 7047     		bx	lr
 718              	.L95:
 719 0012 00BF     		.align	2
 720              	.L94:
 721 0014 00000000 		.word	.LANCHOR2
 722 0018 00000000 		.word	stage_time
 723              		.size	nav_init_stage, .-nav_init_stage
 724              		.section	.text.nav_detect_ground,"ax",%progbits
 725              		.align	1
 726              		.p2align 4,,15
 727              		.global	nav_detect_ground
 728              		.syntax unified
 729              		.thumb
 730              		.thumb_func
 731              		.fpu fpv4-sp-d16
 732              		.type	nav_detect_ground, %function
 733              	nav_detect_ground:
 734              		@ args = 0, pretend = 0, frame = 0
 735              		@ frame_needed = 0, uses_anonymous_args = 0
 736              		@ link register save eliminated.
 737 0000 024B     		ldr	r3, .L101
 738 0002 187B     		ldrb	r0, [r3, #12]	@ zero_extendqisi2
 739 0004 08B1     		cbz	r0, .L97
 740 0006 0022     		movs	r2, #0
 741 0008 1A73     		strb	r2, [r3, #12]
ARM GAS  /tmp/cce0qbfU.s 			page 14


 742              	.L97:
 743 000a 7047     		bx	lr
 744              	.L102:
 745              		.align	2
 746              	.L101:
 747 000c 00000000 		.word	autopilot
 748              		.size	nav_detect_ground, .-nav_detect_ground
 749              		.section	.text.nav_is_in_flight,"ax",%progbits
 750              		.align	1
 751              		.p2align 4,,15
 752              		.global	nav_is_in_flight
 753              		.syntax unified
 754              		.thumb
 755              		.thumb_func
 756              		.fpu fpv4-sp-d16
 757              		.type	nav_is_in_flight, %function
 758              	nav_is_in_flight:
 759              		@ args = 0, pretend = 0, frame = 0
 760              		@ frame_needed = 0, uses_anonymous_args = 0
 761              		@ link register save eliminated.
 762 0000 FFF7FEBF 		b	autopilot_in_flight
 763              		.size	nav_is_in_flight, .-nav_is_in_flight
 764              		.section	.text.nav_glide_points,"ax",%progbits
 765              		.align	1
 766              		.p2align 4,,15
 767              		.global	nav_glide_points
 768              		.syntax unified
 769              		.thumb
 770              		.thumb_func
 771              		.fpu fpv4-sp-d16
 772              		.type	nav_glide_points, %function
 773              	nav_glide_points:
 774              		@ args = 0, pretend = 0, frame = 0
 775              		@ frame_needed = 0, uses_anonymous_args = 0
 776 0000 70B5     		push	{r4, r5, r6, lr}
 777 0002 274E     		ldr	r6, .L115
 778 0004 D0ED007A 		vldr.32	s15, [r0]
 779 0008 3388     		ldrh	r3, [r6]
 780 000a D0ED016A 		vldr.32	s13, [r0, #4]
 781 000e 2DED048B 		vpush.64	{d8, d9}
 782 0012 D1ED008A 		vldr.32	s17, [r1]
 783 0016 91ED018A 		vldr.32	s16, [r1, #4]
 784 001a 1A06     		lsls	r2, r3, #24
 785 001c 78EEE78A 		vsub.f32	s17, s17, s15
 786 0020 38EE668A 		vsub.f32	s16, s16, s13
 787 0024 0446     		mov	r4, r0
 788 0026 0D46     		mov	r5, r1
 789 0028 2AD5     		bpl	.L114
 790 002a 96ED429A 		vldr.32	s18, [r6, #264]
 791 002e 39EE679A 		vsub.f32	s18, s18, s15
 792              	.L107:
 793 0032 96ED437A 		vldr.32	s14, [r6, #268]
 794 0036 1B4B     		ldr	r3, .L115+4
 795 0038 68EE087A 		vmul.f32	s15, s16, s16
 796 003c 37EE667A 		vsub.f32	s14, s14, s13
 797 0040 E8EEA87A 		vfma.f32	s15, s17, s17
 798 0044 0222     		movs	r2, #2
ARM GAS  /tmp/cce0qbfU.s 			page 15


 799 0046 5A70     		strb	r2, [r3, #1]
 800 0048 28EE078A 		vmul.f32	s16, s16, s14
 801 004c 9FED167A 		vldr.32	s14, .L115+8
 802 0050 A8EE898A 		vfma.f32	s16, s17, s18
 803 0054 F4EEC77A 		vcmpe.f32	s15, s14
 804 0058 F1EE10FA 		vmrs	APSR_nzcv, FPSCR
 805 005c D8BF     		it	le
 806 005e F0EE477A 		vmovle.f32	s15, s14
 807 0062 C8EE276A 		vdiv.f32	s13, s16, s15
 808 0066 BDEC048B 		vldm	sp!, {d8-d9}
 809 006a D4ED027A 		vldr.32	s15, [r4, #8]
 810 006e 95ED027A 		vldr.32	s14, [r5, #8]
 811 0072 37EE677A 		vsub.f32	s14, s14, s15
 812 0076 E7EE267A 		vfma.f32	s15, s14, s13
 813 007a C3ED1A7A 		vstr.32	s15, [r3, #104]
 814 007e 70BD     		pop	{r4, r5, r6, pc}
 815              	.L114:
 816 0080 FFF7FEFF 		bl	stateCalcPositionEnu_f
 817 0084 3388     		ldrh	r3, [r6]
 818 0086 96ED429A 		vldr.32	s18, [r6, #264]
 819 008a D4ED007A 		vldr.32	s15, [r4]
 820 008e 1B06     		lsls	r3, r3, #24
 821 0090 39EE679A 		vsub.f32	s18, s18, s15
 822 0094 01D4     		bmi	.L113
 823 0096 FFF7FEFF 		bl	stateCalcPositionEnu_f
 824              	.L113:
 825 009a D4ED016A 		vldr.32	s13, [r4, #4]
 826 009e C8E7     		b	.L107
 827              	.L116:
 828              		.align	2
 829              	.L115:
 830 00a0 00000000 		.word	state
 831 00a4 00000000 		.word	.LANCHOR2
 832 00a8 CDCCCC3D 		.word	1036831949
 833              		.size	nav_glide_points, .-nav_glide_points
 834              		.section	.text.nav_home,"ax",%progbits
 835              		.align	1
 836              		.p2align 4,,15
 837              		.global	nav_home
 838              		.syntax unified
 839              		.thumb
 840              		.thumb_func
 841              		.fpu fpv4-sp-d16
 842              		.type	nav_home, %function
 843              	nav_home:
 844              		@ args = 0, pretend = 0, frame = 0
 845              		@ frame_needed = 0, uses_anonymous_args = 0
 846 0000 1A4B     		ldr	r3, .L122
 847 0002 10B5     		push	{r4, lr}
 848 0004 1A4C     		ldr	r4, .L122+4
 849 0006 D86B     		ldr	r0, [r3, #60]	@ float
 850 0008 196C     		ldr	r1, [r3, #64]	@ float
 851 000a D3F838C0 		ldr	ip, [r3, #56]	@ float
 852 000e A060     		str	r0, [r4, #8]	@ float
 853 0010 4FF40072 		mov	r2, #512
 854 0014 0023     		movs	r3, #0
 855 0016 0120     		movs	r0, #1
ARM GAS  /tmp/cce0qbfU.s 			page 16


 856 0018 E160     		str	r1, [r4, #12]	@ float
 857 001a 2280     		strh	r2, [r4]	@ movhi
 858 001c A370     		strb	r3, [r4, #2]
 859 001e C4F804C0 		str	ip, [r4, #4]	@ float
 860 0022 FFF7FEFF 		bl	waypoint_get_alt
 861 0026 134B     		ldr	r3, .L122+8
 862 0028 94ED1A7A 		vldr.32	s14, [r4, #104]
 863 002c D3ED007A 		vldr.32	s15, [r3]
 864 0030 DFED116A 		vldr.32	s13, .L122+12
 865 0034 6168     		ldr	r1, [r4, #4]	@ float
 866 0036 A268     		ldr	r2, [r4, #8]	@ float
 867 0038 E066     		str	r0, [r4, #108]	@ float
 868 003a 77EE677A 		vsub.f32	s15, s14, s15
 869 003e 2161     		str	r1, [r4, #16]	@ float
 870 0040 F0EEE77A 		vabs.f32	s15, s15
 871 0044 F4EEE67A 		vcmpe.f32	s15, s13
 872 0048 F1EE10FA 		vmrs	APSR_nzcv, FPSCR
 873 004c 6261     		str	r2, [r4, #20]	@ float
 874 004e 0BDD     		ble	.L117
 875 0050 0A49     		ldr	r1, .L122+16
 876 0052 0B4A     		ldr	r2, .L122+20
 877 0054 D1ED387A 		vldr.32	s15, [r1, #224]
 878 0058 84ED1B7A 		vstr.32	s14, [r4, #108]
 879 005c 77EE877A 		vadd.f32	s15, s15, s14
 880 0060 83ED007A 		vstr.32	s14, [r3]
 881 0064 C2ED007A 		vstr.32	s15, [r2]
 882              	.L117:
 883 0068 10BD     		pop	{r4, pc}
 884              	.L123:
 885 006a 00BF     		.align	2
 886              	.L122:
 887 006c 00000000 		.word	waypoints
 888 0070 00000000 		.word	.LANCHOR2
 889 0074 00000000 		.word	.LANCHOR6
 890 0078 CDCC4C3E 		.word	1045220557
 891 007c 00000000 		.word	state
 892 0080 00000000 		.word	.LANCHOR3
 893              		.size	nav_home, .-nav_home
 894              		.global	__aeabi_dmul
 895              		.global	__aeabi_i2d
 896              		.global	__aeabi_ddiv
 897              		.global	__aeabi_d2uiz
 898              		.section	.text.nav_periodic_task,"ax",%progbits
 899              		.align	1
 900              		.p2align 4,,15
 901              		.global	nav_periodic_task
 902              		.syntax unified
 903              		.thumb
 904              		.thumb_func
 905              		.fpu fpv4-sp-d16
 906              		.type	nav_periodic_task, %function
 907              	nav_periodic_task:
 908              		@ args = 0, pretend = 0, frame = 0
 909              		@ frame_needed = 0, uses_anonymous_args = 0
 910 0000 AB4A     		ldr	r2, .L301+24
 911 0002 2DE9F041 		push	{r4, r5, r6, r7, r8, lr}
 912 0006 1388     		ldrh	r3, [r2]
ARM GAS  /tmp/cce0qbfU.s 			page 17


 913 0008 0133     		adds	r3, r3, #1
 914 000a 9BB2     		uxth	r3, r3
 915 000c 132B     		cmp	r3, #19
 916 000e 82B0     		sub	sp, sp, #8
 917 0010 14D8     		bhi	.L125
 918 0012 1380     		strh	r3, [r2]	@ movhi
 919              	.L126:
 920 0014 A74E     		ldr	r6, .L301+28
 921 0016 3078     		ldrb	r0, [r6]	@ zero_extendqisi2
 922 0018 0C28     		cmp	r0, #12
 923 001a 00F29083 		bhi	.L127
 924 001e DFE810F0 		tbh	[pc, r0, lsl #1]
 925              	.L129:
 926 0022 2600     		.2byte	(.L141-.L129)/2
 927 0024 3400     		.2byte	(.L140-.L129)/2
 928 0026 4400     		.2byte	(.L139-.L129)/2
 929 0028 5500     		.2byte	(.L138-.L129)/2
 930 002a 7A00     		.2byte	(.L137-.L129)/2
 931 002c 9C01     		.2byte	(.L136-.L129)/2
 932 002e 5B01     		.2byte	(.L135-.L129)/2
 933 0030 6D01     		.2byte	(.L134-.L129)/2
 934 0032 9100     		.2byte	(.L133-.L129)/2
 935 0034 B700     		.2byte	(.L132-.L129)/2
 936 0036 E500     		.2byte	(.L131-.L129)/2
 937 0038 2301     		.2byte	(.L130-.L129)/2
 938 003a 1800     		.2byte	(.L128-.L129)/2
 939              		.p2align 1
 940              	.L125:
 941 003c 9E4E     		ldr	r6, .L301+32
 942 003e 9F48     		ldr	r0, .L301+36
 943 0040 3188     		ldrh	r1, [r6]
 944 0042 0388     		ldrh	r3, [r0]
 945 0044 0024     		movs	r4, #0
 946 0046 1480     		strh	r4, [r2]	@ movhi
 947 0048 0133     		adds	r3, r3, #1
 948 004a 4A1C     		adds	r2, r1, #1
 949 004c 3280     		strh	r2, [r6]	@ movhi
 950 004e 0380     		strh	r3, [r0]	@ movhi
 951 0050 E0E7     		b	.L126
 952              	.L128:
 953 0052 9B4B     		ldr	r3, .L301+40
 954 0054 9B4C     		ldr	r4, .L301+44
 955 0056 1A78     		ldrb	r2, [r3]	@ zero_extendqisi2
 956 0058 002A     		cmp	r2, #0
 957 005a 00F09881 		beq	.L291
 958 005e 0122     		movs	r2, #1
 959 0060 0D20     		movs	r0, #13
 960 0062 1A70     		strb	r2, [r3]
 961 0064 FFF7FEFF 		bl	nav_goto_block
 962              	.L286:
 963 0068 94ED1A7A 		vldr.32	s14, [r4, #104]
 964 006c 54E1     		b	.L142
 965              	.L141:
 966 006e 944D     		ldr	r5, .L301+40
 967 0070 2B78     		ldrb	r3, [r5]	@ zero_extendqisi2
 968 0072 062B     		cmp	r3, #6
 969 0074 00F26783 		bhi	.L143
ARM GAS  /tmp/cce0qbfU.s 			page 18


 970 0078 DFE813F0 		tbh	[pc, r3, lsl #1]
 971              	.L145:
 972 007c C402     		.2byte	(.L150-.L145)/2
 973 007e A802     		.2byte	(.L149-.L145)/2
 974 0080 D802     		.2byte	(.L148-.L145)/2
 975 0082 7402     		.2byte	(.L147-.L145)/2
 976 0084 6502     		.2byte	(.L146-.L145)/2
 977 0086 3102     		.2byte	(.L144-.L145)/2
 978 0088 3102     		.2byte	(.L144-.L145)/2
 979              		.p2align 1
 980              	.L140:
 981 008a 8D4D     		ldr	r5, .L301+40
 982 008c 2C78     		ldrb	r4, [r5]	@ zero_extendqisi2
 983 008e 002C     		cmp	r4, #0
 984 0090 00F0F981 		beq	.L162
 985 0094 012C     		cmp	r4, #1
 986 0096 00F06C81 		beq	.L292
 987 009a 8A4C     		ldr	r4, .L301+44
 988 009c 0220     		movs	r0, #2
 989 009e 2870     		strb	r0, [r5]
 990 00a0 FFF7FEFF 		bl	nav_goto_block
 991 00a4 94ED1A7A 		vldr.32	s14, [r4, #104]
 992 00a8 36E1     		b	.L142
 993              	.L139:
 994 00aa 854D     		ldr	r5, .L301+40
 995 00ac 2B78     		ldrb	r3, [r5]	@ zero_extendqisi2
 996 00ae 002B     		cmp	r3, #0
 997 00b0 00F0D681 		beq	.L166
 998 00b4 012B     		cmp	r3, #1
 999 00b6 834C     		ldr	r4, .L301+44
 1000 00b8 00F05C81 		beq	.L167
 1001 00bc 0223     		movs	r3, #2
 1002 00be 0320     		movs	r0, #3
 1003 00c0 2B70     		strb	r3, [r5]
 1004 00c2 FFF7FEFF 		bl	nav_goto_block
 1005 00c6 94ED1A7A 		vldr.32	s14, [r4, #104]
 1006 00ca 25E1     		b	.L142
 1007              	.L138:
 1008 00cc 7E4C     		ldr	r4, .L301+48
 1009 00ce 2388     		ldrh	r3, [r4]
 1010 00d0 1A06     		lsls	r2, r3, #24
 1011 00d2 40F1E081 		bpl	.L293
 1012              	.L170:
 1013 00d6 D4F81001 		ldr	r0, [r4, #272]	@ float
 1014 00da FFF7FEFF 		bl	__aeabi_f2d
 1015 00de 6EA3     		adr	r3, .L301
 1016 00e0 D3E90023 		ldrd	r2, [r3]
 1017 00e4 FFF7FEFF 		bl	__aeabi_dcmpgt
 1018 00e8 0028     		cmp	r0, #0
 1019 00ea 40F00583 		bne	.L294
 1020 00ee 744D     		ldr	r5, .L301+40
 1021 00f0 2F78     		ldrb	r7, [r5]	@ zero_extendqisi2
 1022 00f2 002F     		cmp	r7, #0
 1023 00f4 00F0FF81 		beq	.L173
 1024 00f8 012F     		cmp	r7, #1
 1025 00fa 40F09281 		bne	.L276
 1026 00fe 714C     		ldr	r4, .L301+44
ARM GAS  /tmp/cce0qbfU.s 			page 19


 1027              	.L174:
 1028 0100 0123     		movs	r3, #1
 1029 0102 0220     		movs	r0, #2
 1030 0104 2B70     		strb	r3, [r5]
 1031 0106 FFF7FEFF 		bl	waypoint_get_enu_f
 1032 010a 10B1     		cbz	r0, .L176
 1033 010c D4F88830 		ldr	r3, [r4, #136]
 1034 0110 9847     		blx	r3
 1035              	.L176:
 1036 0112 E36F     		ldr	r3, [r4, #124]	@ float
 1037 0114 61E0     		b	.L287
 1038              	.L137:
 1039 0116 6A4B     		ldr	r3, .L301+40
 1040 0118 1A78     		ldrb	r2, [r3]	@ zero_extendqisi2
 1041 011a 002A     		cmp	r2, #0
 1042 011c 40F07881 		bne	.L177
 1043 0120 0220     		movs	r0, #2
 1044 0122 FFF7FEFF 		bl	waypoint_get_enu_f
 1045 0126 674C     		ldr	r4, .L301+44
 1046 0128 10B1     		cbz	r0, .L178
 1047 012a D4F88830 		ldr	r3, [r4, #136]
 1048 012e 9847     		blx	r3
 1049              	.L178:
 1050 0130 0220     		movs	r0, #2
 1051 0132 0023     		movs	r3, #0
 1052 0134 E363     		str	r3, [r4, #60]	@ float
 1053 0136 6070     		strb	r0, [r4, #1]
 1054 0138 FFF7FEFF 		bl	waypoint_get_alt
 1055 013c 07EE100A 		vmov	s14, r0
 1056 0140 A066     		str	r0, [r4, #104]	@ float
 1057 0142 E9E0     		b	.L142
 1058              	.L133:
 1059 0144 5E4D     		ldr	r5, .L301+40
 1060 0146 2E78     		ldrb	r6, [r5]	@ zero_extendqisi2
 1061 0148 002E     		cmp	r6, #0
 1062 014a 40F05881 		bne	.L187
 1063 014e 0320     		movs	r0, #3
 1064 0150 FFF7FEFF 		bl	waypoint_get_enu_f
 1065 0154 5B4C     		ldr	r4, .L301+44
 1066 0156 0028     		cmp	r0, #0
 1067 0158 00F07882 		beq	.L191
 1068 015c D4F89030 		ldr	r3, [r4, #144]
 1069 0160 3146     		mov	r1, r6
 1070 0162 0022     		movs	r2, #0
 1071 0164 9847     		blx	r3
 1072 0166 0028     		cmp	r0, #0
 1073 0168 40F07082 		bne	.L191
 1074 016c 0320     		movs	r0, #3
 1075 016e FFF7FEFF 		bl	waypoint_get_enu_f
 1076 0172 10B1     		cbz	r0, .L193
 1077 0174 D4F88830 		ldr	r3, [r4, #136]
 1078 0178 9847     		blx	r3
 1079              	.L193:
 1080 017a 0022     		movs	r2, #0
 1081 017c 0223     		movs	r3, #2
 1082 017e 0320     		movs	r0, #3
 1083 0180 E263     		str	r2, [r4, #60]	@ float
ARM GAS  /tmp/cce0qbfU.s 			page 20


 1084 0182 6370     		strb	r3, [r4, #1]
 1085 0184 FFF7FEFF 		bl	waypoint_get_alt
 1086 0188 07EE100A 		vmov	s14, r0
 1087 018c A066     		str	r0, [r4, #104]	@ float
 1088 018e C3E0     		b	.L142
 1089              	.L132:
 1090 0190 4D4C     		ldr	r4, .L301+48
 1091 0192 2388     		ldrh	r3, [r4]
 1092 0194 1B06     		lsls	r3, r3, #24
 1093 0196 40F18F81 		bpl	.L295
 1094 019a D4F81001 		ldr	r0, [r4, #272]	@ float
 1095 019e FFF7FEFF 		bl	__aeabi_f2d
 1096 01a2 3FA3     		adr	r3, .L301+8
 1097 01a4 D3E90023 		ldrd	r2, [r3]
 1098 01a8 FFF7FEFF 		bl	__aeabi_dcmplt
 1099 01ac 0028     		cmp	r0, #0
 1100 01ae 40F06682 		bne	.L214
 1101              	.L215:
 1102 01b2 FFF7FEFF 		bl	autopilot_in_flight
 1103 01b6 0028     		cmp	r0, #0
 1104 01b8 00F05A82 		beq	.L288
 1105              	.L197:
 1106 01bc 404B     		ldr	r3, .L301+40
 1107 01be 1A78     		ldrb	r2, [r3]	@ zero_extendqisi2
 1108 01c0 002A     		cmp	r2, #0
 1109 01c2 40F03882 		bne	.L198
 1110 01c6 0320     		movs	r0, #3
 1111 01c8 FFF7FEFF 		bl	waypoint_get_enu_f
 1112 01cc 3D4C     		ldr	r4, .L301+44
 1113 01ce 10B1     		cbz	r0, .L199
 1114 01d0 D4F88830 		ldr	r3, [r4, #136]
 1115 01d4 9847     		blx	r3
 1116              	.L199:
 1117 01d6 D4F88030 		ldr	r3, [r4, #128]	@ float
 1118              	.L287:
 1119 01da 94ED1A7A 		vldr.32	s14, [r4, #104]
 1120 01de 6366     		str	r3, [r4, #100]	@ float
 1121 01e0 0021     		movs	r1, #0
 1122 01e2 0122     		movs	r2, #1
 1123 01e4 E163     		str	r1, [r4, #60]	@ float
 1124 01e6 6270     		strb	r2, [r4, #1]
 1125 01e8 6362     		str	r3, [r4, #36]	@ float
 1126 01ea 95E0     		b	.L142
 1127              	.L131:
 1128 01ec 374B     		ldr	r3, .L301+52
 1129 01ee 586A     		ldr	r0, [r3, #36]
 1130 01f0 B0F5707F 		cmp	r0, #960
 1131 01f4 C0F23C82 		blt	.L288
 1132 01f8 314D     		ldr	r5, .L301+40
 1133 01fa 2F78     		ldrb	r7, [r5]	@ zero_extendqisi2
 1134 01fc 002F     		cmp	r7, #0
 1135 01fe 00F08A81 		beq	.L201
 1136 0202 012F     		cmp	r7, #1
 1137 0204 40F01881 		bne	.L283
 1138 0208 2B4E     		ldr	r6, .L301+32
 1139 020a 2E4C     		ldr	r4, .L301+44
 1140 020c DFF8C480 		ldr	r8, .L301+60
ARM GAS  /tmp/cce0qbfU.s 			page 21


 1141              	.L202:
 1142 0210 0123     		movs	r3, #1
 1143 0212 0320     		movs	r0, #3
 1144 0214 2B70     		strb	r3, [r5]
 1145 0216 FFF7FEFF 		bl	waypoint_get_enu_f
 1146 021a 10B1     		cbz	r0, .L204
 1147 021c D4F88830 		ldr	r3, [r4, #136]
 1148 0220 9847     		blx	r3
 1149              	.L204:
 1150 0222 0023     		movs	r3, #0
 1151 0224 0022     		movs	r2, #0
 1152 0226 6370     		strb	r3, [r4, #1]
 1153 0228 E263     		str	r2, [r4, #60]	@ float
 1154 022a D8F80000 		ldr	r0, [r8]	@ float
 1155 022e FFF7FEFF 		bl	__aeabi_f2d
 1156 0232 0246     		mov	r2, r0
 1157 0234 3088     		ldrh	r0, [r6]
 1158 0236 0F46     		mov	r7, r1
 1159 0238 1646     		mov	r6, r2
 1160 023a FFF7FEFF 		bl	__aeabi_i2d
 1161 023e 1AA3     		adr	r3, .L301+16
 1162 0240 D3E90023 		ldrd	r2, [r3]
 1163 0244 FFF7FEFF 		bl	__aeabi_dmul
 1164 0248 0246     		mov	r2, r0
 1165 024a 0B46     		mov	r3, r1
 1166 024c 3046     		mov	r0, r6
 1167 024e 3946     		mov	r1, r7
 1168 0250 FFF7FEFF 		bl	__aeabi_dsub
 1169 0254 1E4B     		ldr	r3, .L301+56
 1170 0256 0022     		movs	r2, #0
 1171 0258 FFF7FEFF 		bl	__aeabi_dmul
 1172 025c FFF7FEFF 		bl	__aeabi_d2uiz
 1173 0260 94ED1A7A 		vldr.32	s14, [r4, #104]
 1174 0264 6063     		str	r0, [r4, #52]
 1175 0266 57E0     		b	.L142
 1176              	.L130:
 1177 0268 154D     		ldr	r5, .L301+40
 1178 026a 2C78     		ldrb	r4, [r5]	@ zero_extendqisi2
 1179 026c 002C     		cmp	r4, #0
 1180 026e 00F03182 		beq	.L205
 1181 0272 013C     		subs	r4, r4, #1
 1182 0274 012C     		cmp	r4, #1
 1183 0276 134C     		ldr	r4, .L301+44
 1184 0278 00F22482 		bhi	.L206
 1185 027c 0E4E     		ldr	r6, .L301+32
 1186 027e D4F88430 		ldr	r3, [r4, #132]
 1187              	.L207:
 1188 0282 0222     		movs	r2, #2
 1189 0284 2A70     		strb	r2, [r5]
 1190 0286 0022     		movs	r2, #0
 1191 0288 3280     		strh	r2, [r6]	@ movhi
 1192 028a 002B     		cmp	r3, #0
 1193 028c 3FF4ECAE 		beq	.L286
 1194              	.L210:
 1195 0290 9847     		blx	r3
 1196 0292 94ED1A7A 		vldr.32	s14, [r4, #104]
 1197 0296 3FE0     		b	.L142
ARM GAS  /tmp/cce0qbfU.s 			page 22


 1198              	.L302:
 1199              		.align	3
 1200              	.L301:
 1201 0298 33333333 		.word	858993459
 1202 029c 3333E33F 		.word	1071854387
 1203 02a0 33333333 		.word	858993459
 1204 02a4 3333D33F 		.word	1070805811
 1205 02a8 9A999999 		.word	-1717986918
 1206 02ac 9999B93F 		.word	1069128089
 1207 02b0 00000000 		.word	.LANCHOR10
 1208 02b4 00000000 		.word	nav_block
 1209 02b8 00000000 		.word	stage_time
 1210 02bc 00000000 		.word	block_time
 1211 02c0 00000000 		.word	nav_stage
 1212 02c4 00000000 		.word	.LANCHOR2
 1213 02c8 00000000 		.word	state
 1214 02cc 00000000 		.word	guidance_v
 1215 02d0 00C0C240 		.word	1086504960
 1216 02d4 00000000 		.word	.LANCHOR13
 1217              	.L135:
 1218 02d8 B14D     		ldr	r5, .L303+24
 1219 02da 2F78     		ldrb	r7, [r5]	@ zero_extendqisi2
 1220 02dc 012F     		cmp	r7, #1
 1221 02de 00F0D581 		beq	.L180
 1222 02e2 17F0FD0F 		tst	r7, #253
 1223 02e6 AF4C     		ldr	r4, .L303+28
 1224 02e8 00F0AF80 		beq	.L296
 1225 02ec 0323     		movs	r3, #3
 1226 02ee 0720     		movs	r0, #7
 1227 02f0 2B70     		strb	r3, [r5]
 1228 02f2 FFF7FEFF 		bl	nav_goto_block
 1229 02f6 94ED1A7A 		vldr.32	s14, [r4, #104]
 1230 02fa 0DE0     		b	.L142
 1231              	.L134:
 1232 02fc A84D     		ldr	r5, .L303+24
 1233 02fe A94C     		ldr	r4, .L303+28
 1234 0300 2F78     		ldrb	r7, [r5]	@ zero_extendqisi2
 1235 0302 002F     		cmp	r7, #0
 1236 0304 00F0CA80 		beq	.L278
 1237              	.L185:
 1238 0308 0130     		adds	r0, r0, #1
 1239 030a 0123     		movs	r3, #1
 1240 030c C0B2     		uxtb	r0, r0
 1241 030e 2B70     		strb	r3, [r5]
 1242 0310 FFF7FEFF 		bl	nav_goto_block
 1243 0314 94ED1A7A 		vldr.32	s14, [r4, #104]
 1244              	.L142:
 1245 0318 A34B     		ldr	r3, .L303+32
 1246 031a DFEDA46A 		vldr.32	s13, .L303+36
 1247 031e D3ED007A 		vldr.32	s15, [r3]
 1248 0322 6168     		ldr	r1, [r4, #4]	@ float
 1249 0324 A268     		ldr	r2, [r4, #8]	@ float
 1250 0326 2161     		str	r1, [r4, #16]	@ float
 1251 0328 77EE677A 		vsub.f32	s15, s14, s15
 1252 032c 6261     		str	r2, [r4, #20]	@ float
 1253 032e F0EEE77A 		vabs.f32	s15, s15
 1254 0332 F4EEE67A 		vcmpe.f32	s15, s13
ARM GAS  /tmp/cce0qbfU.s 			page 23


 1255 0336 F1EE10FA 		vmrs	APSR_nzcv, FPSCR
 1256 033a 0BDD     		ble	.L124
 1257 033c 9C49     		ldr	r1, .L303+40
 1258 033e 9D4A     		ldr	r2, .L303+44
 1259 0340 D1ED387A 		vldr.32	s15, [r1, #224]
 1260 0344 84ED1B7A 		vstr.32	s14, [r4, #108]
 1261 0348 77EE877A 		vadd.f32	s15, s15, s14
 1262 034c 83ED007A 		vstr.32	s14, [r3]
 1263 0350 C2ED007A 		vstr.32	s15, [r2]
 1264              	.L124:
 1265 0354 02B0     		add	sp, sp, #8
 1266              		@ sp needed
 1267 0356 BDE8F081 		pop	{r4, r5, r6, r7, r8, pc}
 1268              	.L136:
 1269 035a 914B     		ldr	r3, .L303+24
 1270 035c 1A78     		ldrb	r2, [r3]	@ zero_extendqisi2
 1271 035e DAB1     		cbz	r2, .L297
 1272 0360 904C     		ldr	r4, .L303+28
 1273 0362 0122     		movs	r2, #1
 1274 0364 0620     		movs	r0, #6
 1275 0366 1A70     		strb	r2, [r3]
 1276 0368 FFF7FEFF 		bl	nav_goto_block
 1277 036c 94ED1A7A 		vldr.32	s14, [r4, #104]
 1278 0370 D2E7     		b	.L142
 1279              	.L292:
 1280 0372 8C4C     		ldr	r4, .L303+28
 1281              	.L167:
 1282 0374 94ED1A7A 		vldr.32	s14, [r4, #104]
 1283 0378 0121     		movs	r1, #1
 1284 037a 0022     		movs	r2, #0
 1285 037c 0323     		movs	r3, #3
 1286 037e 2970     		strb	r1, [r5]
 1287 0380 0021     		movs	r1, #0
 1288 0382 A263     		str	r2, [r4, #56]	@ float
 1289 0384 E263     		str	r2, [r4, #60]	@ float
 1290 0386 2380     		strh	r3, [r4]	@ movhi
 1291 0388 A370     		strb	r3, [r4, #2]
 1292 038a 6163     		str	r1, [r4, #52]
 1293 038c C4E7     		b	.L142
 1294              	.L291:
 1295 038e FFF7FEFF 		bl	nav_home
 1296 0392 94ED1A7A 		vldr.32	s14, [r4, #104]
 1297 0396 BFE7     		b	.L142
 1298              	.L297:
 1299 0398 874B     		ldr	r3, .L303+48
 1300 039a 824C     		ldr	r4, .L303+28
 1301 039c 1868     		ldr	r0, [r3]	@ float
 1302 039e FFF7FEFF 		bl	__aeabi_f2d
 1303 03a2 79A3     		adr	r3, .L303
 1304 03a4 D3E90023 		ldrd	r2, [r3]
 1305 03a8 FFF7FEFF 		bl	__aeabi_dmul
 1306 03ac 78A3     		adr	r3, .L303+8
 1307 03ae D3E90023 		ldrd	r2, [r3]
 1308 03b2 FFF7FEFF 		bl	__aeabi_dmul
 1309 03b6 FFF7FEFF 		bl	__aeabi_d2f
 1310 03ba 804B     		ldr	r3, .L303+52
 1311 03bc A063     		str	r0, [r4, #56]	@ float
ARM GAS  /tmp/cce0qbfU.s 			page 24


 1312 03be 1868     		ldr	r0, [r3]	@ float
 1313 03c0 FFF7FEFF 		bl	__aeabi_f2d
 1314 03c4 70A3     		adr	r3, .L303
 1315 03c6 D3E90023 		ldrd	r2, [r3]
 1316 03ca FFF7FEFF 		bl	__aeabi_dmul
 1317 03ce 01F10047 		add	r7, r1, #-2147483648
 1318 03d2 6FA3     		adr	r3, .L303+8
 1319 03d4 D3E90023 		ldrd	r2, [r3]
 1320 03d8 3946     		mov	r1, r7
 1321 03da FFF7FEFF 		bl	__aeabi_dmul
 1322 03de FFF7FEFF 		bl	__aeabi_d2f
 1323 03e2 40F20322 		movw	r2, #515
 1324 03e6 0146     		mov	r1, r0	@ float
 1325 03e8 0323     		movs	r3, #3
 1326 03ea 0220     		movs	r0, #2
 1327 03ec 2280     		strh	r2, [r4]	@ movhi
 1328 03ee E163     		str	r1, [r4, #60]	@ float
 1329 03f0 A370     		strb	r3, [r4, #2]
 1330 03f2 FFF7FEFF 		bl	waypoint_get_alt
 1331 03f6 07EE100A 		vmov	s14, r0
 1332 03fa A066     		str	r0, [r4, #104]	@ float
 1333 03fc 8CE7     		b	.L142
 1334              	.L187:
 1335 03fe 694C     		ldr	r4, .L303+28
 1336 0400 0123     		movs	r3, #1
 1337 0402 0920     		movs	r0, #9
 1338 0404 2B70     		strb	r3, [r5]
 1339 0406 FFF7FEFF 		bl	nav_goto_block
 1340 040a 94ED1A7A 		vldr.32	s14, [r4, #104]
 1341 040e 83E7     		b	.L142
 1342              	.L177:
 1343 0410 644C     		ldr	r4, .L303+28
 1344 0412 0122     		movs	r2, #1
 1345 0414 0520     		movs	r0, #5
 1346 0416 1A70     		strb	r2, [r3]
 1347 0418 FFF7FEFF 		bl	nav_goto_block
 1348 041c 94ED1A7A 		vldr.32	s14, [r4, #104]
 1349 0420 7AE7     		b	.L142
 1350              	.L276:
 1351 0422 3078     		ldrb	r0, [r6]	@ zero_extendqisi2
 1352 0424 5F4C     		ldr	r4, .L303+28
 1353 0426 0130     		adds	r0, r0, #1
 1354 0428 0223     		movs	r3, #2
 1355 042a C0B2     		uxtb	r0, r0
 1356 042c 2B70     		strb	r3, [r5]
 1357 042e FFF7FEFF 		bl	nav_goto_block
 1358 0432 94ED1A7A 		vldr.32	s14, [r4, #104]
 1359 0436 6FE7     		b	.L142
 1360              	.L283:
 1361 0438 5A4C     		ldr	r4, .L303+28
 1362 043a 0223     		movs	r3, #2
 1363 043c 0B20     		movs	r0, #11
 1364 043e 2B70     		strb	r3, [r5]
 1365 0440 FFF7FEFF 		bl	nav_goto_block
 1366 0444 94ED1A7A 		vldr.32	s14, [r4, #104]
 1367 0448 66E7     		b	.L142
 1368              	.L296:
ARM GAS  /tmp/cce0qbfU.s 			page 25


 1369 044a 5D4E     		ldr	r6, .L303+56
 1370 044c D4F88430 		ldr	r3, [r4, #132]
 1371              	.L182:
 1372 0450 0122     		movs	r2, #1
 1373 0452 2A70     		strb	r2, [r5]
 1374 0454 0022     		movs	r2, #0
 1375 0456 3280     		strh	r2, [r6]	@ movhi
 1376 0458 002B     		cmp	r3, #0
 1377 045a 7FF419AF 		bne	.L210
 1378 045e 03E6     		b	.L286
 1379              	.L166:
 1380 0460 FFF7FEFF 		bl	autopilot_get_mode
 1381 0464 0D28     		cmp	r0, #13
 1382 0466 00F05E81 		beq	.L298
 1383              	.L169:
 1384 046a 2B78     		ldrb	r3, [r5]	@ zero_extendqisi2
 1385 046c 4D4C     		ldr	r4, .L303+28
 1386 046e 544A     		ldr	r2, .L303+56
 1387 0470 0133     		adds	r3, r3, #1
 1388 0472 2B70     		strb	r3, [r5]
 1389 0474 D4F88430 		ldr	r3, [r4, #132]
 1390 0478 0021     		movs	r1, #0
 1391 047a 1180     		strh	r1, [r2]	@ movhi
 1392 047c 002B     		cmp	r3, #0
 1393 047e 3FF479AF 		beq	.L167
 1394 0482 9847     		blx	r3
 1395 0484 76E7     		b	.L167
 1396              	.L162:
 1397 0486 FFF7FEFF 		bl	autopilot_get_mode
 1398 048a 0D28     		cmp	r0, #13
 1399 048c EDD1     		bne	.L169
 1400 048e 2046     		mov	r0, r4
 1401 0490 FFF7FEFF 		bl	autopilot_set_motors_on
 1402 0494 E9E7     		b	.L169
 1403              	.L293:
 1404 0496 FFF7FEFF 		bl	stateCalcPositionEnu_f
 1405 049a 1CE6     		b	.L170
 1406              	.L278:
 1407 049c 0320     		movs	r0, #3
 1408 049e FFF7FEFF 		bl	waypoint_set_here_2d
 1409 04a2 2B78     		ldrb	r3, [r5]	@ zero_extendqisi2
 1410 04a4 0133     		adds	r3, r3, #1
 1411 04a6 2B70     		strb	r3, [r5]
 1412 04a8 454B     		ldr	r3, .L303+56
 1413 04aa 1F80     		strh	r7, [r3]	@ movhi
 1414 04ac D4F88430 		ldr	r3, [r4, #132]
 1415 04b0 03B1     		cbz	r3, .L285
 1416 04b2 9847     		blx	r3
 1417              	.L285:
 1418 04b4 3078     		ldrb	r0, [r6]	@ zero_extendqisi2
 1419 04b6 27E7     		b	.L185
 1420              	.L295:
 1421 04b8 FFF7FEFF 		bl	stateCalcPositionEnu_f
 1422 04bc D4F81001 		ldr	r0, [r4, #272]	@ float
 1423 04c0 FFF7FEFF 		bl	__aeabi_f2d
 1424 04c4 34A3     		adr	r3, .L303+16
 1425 04c6 D3E90023 		ldrd	r2, [r3]
ARM GAS  /tmp/cce0qbfU.s 			page 26


 1426 04ca FFF7FEFF 		bl	__aeabi_dcmplt
 1427 04ce 0028     		cmp	r0, #0
 1428 04d0 40F0D580 		bne	.L214
 1429 04d4 3378     		ldrb	r3, [r6]	@ zero_extendqisi2
 1430 04d6 0B2B     		cmp	r3, #11
 1431 04d8 3FF470AE 		beq	.L197
 1432 04dc 69E6     		b	.L215
 1433              	.L144:
 1434 04de 314C     		ldr	r4, .L303+28
 1435 04e0 374E     		ldr	r6, .L303+56
 1436 04e2 D4F88430 		ldr	r3, [r4, #132]
 1437              	.L151:
 1438 04e6 0622     		movs	r2, #6
 1439 04e8 2A70     		strb	r2, [r5]
 1440 04ea 0022     		movs	r2, #0
 1441 04ec 3280     		strh	r2, [r6]	@ movhi
 1442 04ee 002B     		cmp	r3, #0
 1443 04f0 7FF4CEAE 		bne	.L210
 1444 04f4 B8E5     		b	.L286
 1445              	.L173:
 1446 04f6 0220     		movs	r0, #2
 1447 04f8 FFF7FEFF 		bl	waypoint_set_here_2d
 1448 04fc 2B78     		ldrb	r3, [r5]	@ zero_extendqisi2
 1449 04fe 294C     		ldr	r4, .L303+28
 1450 0500 2F4A     		ldr	r2, .L303+56
 1451 0502 0133     		adds	r3, r3, #1
 1452 0504 2B70     		strb	r3, [r5]
 1453 0506 D4F88430 		ldr	r3, [r4, #132]
 1454 050a 1780     		strh	r7, [r2]	@ movhi
 1455 050c 002B     		cmp	r3, #0
 1456 050e 3FF4F7AD 		beq	.L174
 1457 0512 9847     		blx	r3
 1458 0514 F4E5     		b	.L174
 1459              	.L201:
 1460 0516 FFF7FEFF 		bl	__aeabi_i2d
 1461 051a 2A4B     		ldr	r3, .L303+60
 1462 051c 214C     		ldr	r4, .L303+28
 1463 051e DFF8A880 		ldr	r8, .L303+64
 1464 0522 274E     		ldr	r6, .L303+56
 1465 0524 0022     		movs	r2, #0
 1466 0526 FFF7FEFF 		bl	__aeabi_ddiv
 1467 052a FFF7FEFF 		bl	__aeabi_d2f
 1468 052e 0123     		movs	r3, #1
 1469 0530 2B70     		strb	r3, [r5]
 1470 0532 D4F88430 		ldr	r3, [r4, #132]
 1471 0536 3780     		strh	r7, [r6]	@ movhi
 1472 0538 C8F80000 		str	r0, [r8]	@ float
 1473 053c 002B     		cmp	r3, #0
 1474 053e 3FF467AE 		beq	.L202
 1475 0542 9847     		blx	r3
 1476 0544 64E6     		b	.L202
 1477              	.L146:
 1478 0546 174C     		ldr	r4, .L303+28
 1479 0548 1D4E     		ldr	r6, .L303+56
 1480 054a D4F88430 		ldr	r3, [r4, #132]
 1481              	.L152:
 1482 054e 0522     		movs	r2, #5
ARM GAS  /tmp/cce0qbfU.s 			page 27


 1483 0550 2A70     		strb	r2, [r5]
 1484 0552 0022     		movs	r2, #0
 1485 0554 3280     		strh	r2, [r6]	@ movhi
 1486 0556 002B     		cmp	r3, #0
 1487 0558 00F0DB80 		beq	.L160
 1488 055c 9847     		blx	r3
 1489 055e D4F88430 		ldr	r3, [r4, #132]
 1490 0562 C0E7     		b	.L151
 1491              	.L147:
 1492 0564 0F4C     		ldr	r4, .L303+28
 1493 0566 164E     		ldr	r6, .L303+56
 1494 0568 D4F88430 		ldr	r3, [r4, #132]
 1495              	.L153:
 1496 056c 124A     		ldr	r2, .L303+48
 1497 056e 0021     		movs	r1, #0
 1498 0570 1160     		str	r1, [r2]	@ float
 1499 0572 0422     		movs	r2, #4
 1500 0574 2A70     		strb	r2, [r5]
 1501 0576 0022     		movs	r2, #0
 1502 0578 3280     		strh	r2, [r6]	@ movhi
 1503 057a 002B     		cmp	r3, #0
 1504 057c 00F0C980 		beq	.L160
 1505 0580 9847     		blx	r3
 1506 0582 D4F88430 		ldr	r3, [r4, #132]
 1507 0586 E2E7     		b	.L152
 1508              	.L304:
 1509              		.align	3
 1510              	.L303:
 1511 0588 F8C1631A 		.word	442745336
 1512 058c DCA54C40 		.word	1078765020
 1513 0590 399D52A2 		.word	-1571644103
 1514 0594 46DF913F 		.word	1066524486
 1515 0598 33333333 		.word	858993459
 1516 059c 3333D33F 		.word	1070805811
 1517 05a0 00000000 		.word	nav_stage
 1518 05a4 00000000 		.word	.LANCHOR2
 1519 05a8 00000000 		.word	.LANCHOR6
 1520 05ac CDCC4C3E 		.word	1045220557
 1521 05b0 00000000 		.word	state
 1522 05b4 00000000 		.word	.LANCHOR3
 1523 05b8 00000000 		.word	.LANCHOR1
 1524 05bc 00000000 		.word	.LANCHOR0
 1525 05c0 00000000 		.word	stage_time
 1526 05c4 00C0C240 		.word	1086504960
 1527 05c8 00000000 		.word	.LANCHOR13
 1528              	.L149:
 1529 05cc 624C     		ldr	r4, .L305
 1530 05ce 634E     		ldr	r6, .L305+4
 1531 05d0 D4F88430 		ldr	r3, [r4, #132]
 1532              	.L155:
 1533 05d4 0222     		movs	r2, #2
 1534 05d6 2A70     		strb	r2, [r5]
 1535 05d8 0022     		movs	r2, #0
 1536 05da 3280     		strh	r2, [r6]	@ movhi
 1537 05dc 002B     		cmp	r3, #0
 1538 05de 00F09280 		beq	.L157
 1539 05e2 9847     		blx	r3
ARM GAS  /tmp/cce0qbfU.s 			page 28


 1540 05e4 D4F88430 		ldr	r3, [r4, #132]
 1541              	.L154:
 1542 05e8 5D4A     		ldr	r2, .L305+8
 1543 05ea 0021     		movs	r1, #0
 1544 05ec 1160     		str	r1, [r2]	@ float
 1545 05ee 0322     		movs	r2, #3
 1546 05f0 2A70     		strb	r2, [r5]
 1547 05f2 0022     		movs	r2, #0
 1548 05f4 3280     		strh	r2, [r6]	@ movhi
 1549 05f6 002B     		cmp	r3, #0
 1550 05f8 00F08880 		beq	.L158
 1551 05fc 9847     		blx	r3
 1552 05fe D4F88430 		ldr	r3, [r4, #132]
 1553 0602 B3E7     		b	.L153
 1554              	.L150:
 1555 0604 FFF7FEFF 		bl	autopilot_get_mode
 1556 0608 0D28     		cmp	r0, #13
 1557 060a 00F09480 		beq	.L299
 1558              	.L156:
 1559 060e 2B78     		ldrb	r3, [r5]	@ zero_extendqisi2
 1560 0610 514C     		ldr	r4, .L305
 1561 0612 524E     		ldr	r6, .L305+4
 1562 0614 0133     		adds	r3, r3, #1
 1563 0616 2B70     		strb	r3, [r5]
 1564 0618 D4F88430 		ldr	r3, [r4, #132]
 1565 061c 0022     		movs	r2, #0
 1566 061e 3280     		strh	r2, [r6]	@ movhi
 1567 0620 002B     		cmp	r3, #0
 1568 0622 70D0     		beq	.L157
 1569 0624 9847     		blx	r3
 1570 0626 D4F88430 		ldr	r3, [r4, #132]
 1571 062a D3E7     		b	.L155
 1572              	.L148:
 1573 062c 4A4C     		ldr	r4, .L305
 1574 062e 4B4E     		ldr	r6, .L305+4
 1575 0630 D4F88430 		ldr	r3, [r4, #132]
 1576 0634 D8E7     		b	.L154
 1577              	.L198:
 1578 0636 3078     		ldrb	r0, [r6]	@ zero_extendqisi2
 1579 0638 474C     		ldr	r4, .L305
 1580 063a 0130     		adds	r0, r0, #1
 1581 063c 0122     		movs	r2, #1
 1582 063e C0B2     		uxtb	r0, r0
 1583 0640 1A70     		strb	r2, [r3]
 1584 0642 FFF7FEFF 		bl	nav_goto_block
 1585 0646 94ED1A7A 		vldr.32	s14, [r4, #104]
 1586 064a 65E6     		b	.L142
 1587              	.L191:
 1588 064c 454A     		ldr	r2, .L305+12
 1589 064e 2B78     		ldrb	r3, [r5]	@ zero_extendqisi2
 1590 0650 0321     		movs	r1, #3
 1591 0652 1170     		strb	r1, [r2]
 1592 0654 4149     		ldr	r1, .L305+4
 1593 0656 D4F88420 		ldr	r2, [r4, #132]
 1594 065a 0133     		adds	r3, r3, #1
 1595 065c 0020     		movs	r0, #0
 1596 065e 0880     		strh	r0, [r1]	@ movhi
ARM GAS  /tmp/cce0qbfU.s 			page 29


 1597 0660 2B70     		strb	r3, [r5]
 1598 0662 002A     		cmp	r2, #0
 1599 0664 3FF400AD 		beq	.L286
 1600 0668 9047     		blx	r2
 1601 066a 94ED1A7A 		vldr.32	s14, [r4, #104]
 1602 066e 53E6     		b	.L142
 1603              	.L288:
 1604 0670 394C     		ldr	r4, .L305
 1605 0672 0B20     		movs	r0, #11
 1606 0674 FFF7FEFF 		bl	nav_goto_block
 1607 0678 94ED1A7A 		vldr.32	s14, [r4, #104]
 1608 067c 4CE6     		b	.L142
 1609              	.L214:
 1610 067e 364C     		ldr	r4, .L305
 1611 0680 0A20     		movs	r0, #10
 1612 0682 FFF7FEFF 		bl	nav_goto_block
 1613 0686 94ED1A7A 		vldr.32	s14, [r4, #104]
 1614 068a 45E6     		b	.L142
 1615              	.L180:
 1616 068c 364B     		ldr	r3, .L305+16
 1617 068e 3748     		ldr	r0, .L305+20
 1618 0690 1B68     		ldr	r3, [r3]	@ float
 1619 0692 374A     		ldr	r2, .L305+24
 1620 0694 3249     		ldr	r1, .L305+8
 1621 0696 0068     		ldr	r0, [r0]	@ float
 1622 0698 1268     		ldr	r2, [r2]	@ float
 1623 069a 0968     		ldr	r1, [r1]	@ float
 1624 069c 0090     		str	r0, [sp]	@ float
 1625 069e 83F00043 		eor	r3, r3, #-2147483648
 1626 06a2 2220     		movs	r0, #34
 1627 06a4 FFF7FEFF 		bl	autopilot_guided_update
 1628 06a8 2B78     		ldrb	r3, [r5]	@ zero_extendqisi2
 1629 06aa 2B4C     		ldr	r4, .L305
 1630 06ac 2B4E     		ldr	r6, .L305+4
 1631 06ae 0133     		adds	r3, r3, #1
 1632 06b0 2B70     		strb	r3, [r5]
 1633 06b2 D4F88430 		ldr	r3, [r4, #132]
 1634 06b6 0022     		movs	r2, #0
 1635 06b8 3280     		strh	r2, [r6]	@ movhi
 1636 06ba 7BB3     		cbz	r3, .L184
 1637 06bc 9847     		blx	r3
 1638 06be D4F88430 		ldr	r3, [r4, #132]
 1639 06c2 C5E6     		b	.L182
 1640              	.L206:
 1641 06c4 0323     		movs	r3, #3
 1642 06c6 0C20     		movs	r0, #12
 1643 06c8 2B70     		strb	r3, [r5]
 1644 06ca FFF7FEFF 		bl	nav_goto_block
 1645 06ce 94ED1A7A 		vldr.32	s14, [r4, #104]
 1646 06d2 21E6     		b	.L142
 1647              	.L205:
 1648 06d4 FFF7FEFF 		bl	autopilot_get_mode
 1649 06d8 0D28     		cmp	r0, #13
 1650 06da 28D0     		beq	.L300
 1651              	.L208:
 1652 06dc 2B78     		ldrb	r3, [r5]	@ zero_extendqisi2
 1653 06de 1E4C     		ldr	r4, .L305
ARM GAS  /tmp/cce0qbfU.s 			page 30


 1654 06e0 1E4E     		ldr	r6, .L305+4
 1655 06e2 0133     		adds	r3, r3, #1
 1656 06e4 2B70     		strb	r3, [r5]
 1657 06e6 D4F88430 		ldr	r3, [r4, #132]
 1658 06ea 0022     		movs	r2, #0
 1659 06ec 3280     		strh	r2, [r6]	@ movhi
 1660 06ee BBB1     		cbz	r3, .L209
 1661 06f0 9847     		blx	r3
 1662 06f2 D4F88430 		ldr	r3, [r4, #132]
 1663 06f6 C4E5     		b	.L207
 1664              	.L294:
 1665 06f8 174C     		ldr	r4, .L305
 1666 06fa 0420     		movs	r0, #4
 1667 06fc FFF7FEFF 		bl	nav_goto_block
 1668 0700 94ED1A7A 		vldr.32	s14, [r4, #104]
 1669 0704 08E6     		b	.L142
 1670              	.L157:
 1671 0706 164B     		ldr	r3, .L305+8
 1672 0708 0022     		movs	r2, #0
 1673 070a 1A60     		str	r2, [r3]	@ float
 1674              	.L158:
 1675 070c 184B     		ldr	r3, .L305+24
 1676 070e 0022     		movs	r2, #0
 1677 0710 1A60     		str	r2, [r3]	@ float
 1678              	.L160:
 1679 0712 0622     		movs	r2, #6
 1680 0714 0023     		movs	r3, #0
 1681 0716 2A70     		strb	r2, [r5]
 1682 0718 3380     		strh	r3, [r6]	@ movhi
 1683 071a A5E4     		b	.L286
 1684              	.L184:
 1685 071c 2F70     		strb	r7, [r5]
 1686 071e A3E4     		b	.L286
 1687              	.L209:
 1688 0720 0223     		movs	r3, #2
 1689 0722 2B70     		strb	r3, [r5]
 1690 0724 A0E4     		b	.L286
 1691              	.L298:
 1692 0726 0120     		movs	r0, #1
 1693 0728 FFF7FEFF 		bl	autopilot_set_motors_on
 1694 072c 9DE6     		b	.L169
 1695              	.L300:
 1696 072e 2046     		mov	r0, r4
 1697 0730 FFF7FEFF 		bl	autopilot_set_motors_on
 1698 0734 D2E7     		b	.L208
 1699              	.L299:
 1700 0736 0020     		movs	r0, #0
 1701 0738 FFF7FEFF 		bl	autopilot_set_motors_on
 1702 073c 67E7     		b	.L156
 1703              	.L127:
 1704 073e 064C     		ldr	r4, .L305
 1705 0740 94ED1A7A 		vldr.32	s14, [r4, #104]
 1706 0744 E8E5     		b	.L142
 1707              	.L143:
 1708 0746 044C     		ldr	r4, .L305
 1709 0748 0723     		movs	r3, #7
 1710 074a 0120     		movs	r0, #1
ARM GAS  /tmp/cce0qbfU.s 			page 31


 1711 074c 2B70     		strb	r3, [r5]
 1712 074e FFF7FEFF 		bl	nav_goto_block
 1713 0752 94ED1A7A 		vldr.32	s14, [r4, #104]
 1714 0756 DFE5     		b	.L142
 1715              	.L306:
 1716              		.align	2
 1717              	.L305:
 1718 0758 00000000 		.word	.LANCHOR2
 1719 075c 00000000 		.word	stage_time
 1720 0760 00000000 		.word	.LANCHOR0
 1721 0764 00000000 		.word	last_wp
 1722 0768 00000000 		.word	.LANCHOR11
 1723 076c 00000000 		.word	.LANCHOR12
 1724 0770 00000000 		.word	.LANCHOR1
 1725              		.size	nav_periodic_task, .-nav_periodic_task
 1726              		.section	.text.get_dist2_to_point,"ax",%progbits
 1727              		.align	1
 1728              		.p2align 4,,15
 1729              		.global	get_dist2_to_point
 1730              		.syntax unified
 1731              		.thumb
 1732              		.thumb_func
 1733              		.fpu fpv4-sp-d16
 1734              		.type	get_dist2_to_point, %function
 1735              	get_dist2_to_point:
 1736              		@ args = 0, pretend = 0, frame = 0
 1737              		@ frame_needed = 0, uses_anonymous_args = 0
 1738 0000 38B5     		push	{r3, r4, r5, lr}
 1739 0002 0D4D     		ldr	r5, .L311
 1740 0004 2B88     		ldrh	r3, [r5]
 1741 0006 1B06     		lsls	r3, r3, #24
 1742 0008 0446     		mov	r4, r0
 1743 000a 12D5     		bpl	.L310
 1744              	.L308:
 1745 000c D4ED017A 		vldr.32	s15, [r4, #4]
 1746 0010 95ED436A 		vldr.32	s12, [r5, #268]
 1747 0014 94ED007A 		vldr.32	s14, [r4]
 1748 0018 D5ED426A 		vldr.32	s13, [r5, #264]
 1749 001c 77EEC67A 		vsub.f32	s15, s15, s12
 1750 0020 37EE667A 		vsub.f32	s14, s14, s13
 1751 0024 67EEA77A 		vmul.f32	s15, s15, s15
 1752 0028 E7EE077A 		vfma.f32	s15, s14, s14
 1753 002c 17EE900A 		vmov	r0, s15
 1754 0030 38BD     		pop	{r3, r4, r5, pc}
 1755              	.L310:
 1756 0032 FFF7FEFF 		bl	stateCalcPositionEnu_f
 1757 0036 E9E7     		b	.L308
 1758              	.L312:
 1759              		.align	2
 1760              	.L311:
 1761 0038 00000000 		.word	state
 1762              		.size	get_dist2_to_point, .-get_dist2_to_point
 1763              		.section	.text.get_dist2_to_waypoint,"ax",%progbits
 1764              		.align	1
 1765              		.p2align 4,,15
 1766              		.global	get_dist2_to_waypoint
 1767              		.syntax unified
ARM GAS  /tmp/cce0qbfU.s 			page 32


 1768              		.thumb
 1769              		.thumb_func
 1770              		.fpu fpv4-sp-d16
 1771              		.type	get_dist2_to_waypoint, %function
 1772              	get_dist2_to_waypoint:
 1773              		@ args = 0, pretend = 0, frame = 0
 1774              		@ frame_needed = 0, uses_anonymous_args = 0
 1775 0000 38B5     		push	{r3, r4, r5, lr}
 1776 0002 104D     		ldr	r5, .L317
 1777 0004 2B88     		ldrh	r3, [r5]
 1778 0006 1B06     		lsls	r3, r3, #24
 1779 0008 0446     		mov	r4, r0
 1780 000a 17D5     		bpl	.L316
 1781              	.L314:
 1782 000c 0E48     		ldr	r0, .L317+4
 1783 000e 95ED436A 		vldr.32	s12, [r5, #268]
 1784 0012 D5ED426A 		vldr.32	s13, [r5, #264]
 1785 0016 04EB8404 		add	r4, r4, r4, lsl #2
 1786 001a 00EBC404 		add	r4, r0, r4, lsl #3
 1787 001e D4ED057A 		vldr.32	s15, [r4, #20]
 1788 0022 94ED047A 		vldr.32	s14, [r4, #16]
 1789 0026 77EEC67A 		vsub.f32	s15, s15, s12
 1790 002a 37EE667A 		vsub.f32	s14, s14, s13
 1791 002e 67EEA77A 		vmul.f32	s15, s15, s15
 1792 0032 E7EE077A 		vfma.f32	s15, s14, s14
 1793 0036 17EE900A 		vmov	r0, s15
 1794 003a 38BD     		pop	{r3, r4, r5, pc}
 1795              	.L316:
 1796 003c FFF7FEFF 		bl	stateCalcPositionEnu_f
 1797 0040 E4E7     		b	.L314
 1798              	.L318:
 1799 0042 00BF     		.align	2
 1800              	.L317:
 1801 0044 00000000 		.word	state
 1802 0048 00000000 		.word	waypoints
 1803              		.size	get_dist2_to_waypoint, .-get_dist2_to_waypoint
 1804              		.section	.text.compute_dist2_to_home,"ax",%progbits
 1805              		.align	1
 1806              		.p2align 4,,15
 1807              		.global	compute_dist2_to_home
 1808              		.syntax unified
 1809              		.thumb
 1810              		.thumb_func
 1811              		.fpu fpv4-sp-d16
 1812              		.type	compute_dist2_to_home, %function
 1813              	compute_dist2_to_home:
 1814              		@ args = 0, pretend = 0, frame = 0
 1815              		@ frame_needed = 0, uses_anonymous_args = 0
 1816 0000 10B5     		push	{r4, lr}
 1817 0002 134C     		ldr	r4, .L323
 1818 0004 2388     		ldrh	r3, [r4]
 1819 0006 1B06     		lsls	r3, r3, #24
 1820 0008 1FD5     		bpl	.L322
 1821              	.L320:
 1822 000a 124B     		ldr	r3, .L323+4
 1823 000c 94ED436A 		vldr.32	s12, [r4, #268]
 1824 0010 D3ED0F7A 		vldr.32	s15, [r3, #60]
ARM GAS  /tmp/cce0qbfU.s 			page 33


 1825 0014 93ED0E7A 		vldr.32	s14, [r3, #56]
 1826 0018 D4ED426A 		vldr.32	s13, [r4, #264]
 1827 001c 0E4B     		ldr	r3, .L323+8
 1828 001e 77EEC67A 		vsub.f32	s15, s15, s12
 1829 0022 37EE667A 		vsub.f32	s14, s14, s13
 1830 0026 67EEA77A 		vmul.f32	s15, s15, s15
 1831 002a DFED0C6A 		vldr.32	s13, .L323+12
 1832 002e E7EE077A 		vfma.f32	s15, s14, s14
 1833 0032 F4EEE67A 		vcmpe.f32	s15, s13
 1834 0036 F1EE10FA 		vmrs	APSR_nzcv, FPSCR
 1835 003a CCBF     		ite	gt
 1836 003c 0122     		movgt	r2, #1
 1837 003e 0022     		movle	r2, #0
 1838 0040 C3ED1C7A 		vstr.32	s15, [r3, #112]
 1839 0044 83F87420 		strb	r2, [r3, #116]
 1840 0048 10BD     		pop	{r4, pc}
 1841              	.L322:
 1842 004a FFF7FEFF 		bl	stateCalcPositionEnu_f
 1843 004e DCE7     		b	.L320
 1844              	.L324:
 1845              		.align	2
 1846              	.L323:
 1847 0050 00000000 		.word	state
 1848 0054 00000000 		.word	waypoints
 1849 0058 00000000 		.word	.LANCHOR2
 1850 005c 0000C843 		.word	1137180672
 1851              		.size	compute_dist2_to_home, .-compute_dist2_to_home
 1852              		.global	__aeabi_dcmpge
 1853              		.section	.text.nav_set_heading_rad,"ax",%progbits
 1854              		.align	1
 1855              		.p2align 4,,15
 1856              		.global	nav_set_heading_rad
 1857              		.syntax unified
 1858              		.thumb
 1859              		.thumb_func
 1860              		.fpu fpv4-sp-d16
 1861              		.type	nav_set_heading_rad, %function
 1862              	nav_set_heading_rad:
 1863              		@ args = 0, pretend = 0, frame = 0
 1864              		@ frame_needed = 0, uses_anonymous_args = 0
 1865 0000 07EE900A 		vmov	s15, r0
 1866 0004 2DE9F843 		push	{r3, r4, r5, r6, r7, r8, r9, lr}
 1867 0008 F5EEC07A 		vcmpe.f32	s15, #0
 1868 000c 224F     		ldr	r7, .L335+8
 1869 000e F1EE10FA 		vmrs	APSR_nzcv, FPSCR
 1870 0012 3864     		str	r0, [r7, #64]	@ float
 1871 0014 14D5     		bpl	.L326
 1872 0016 1EA5     		adr	r5, .L335
 1873 0018 D5E90045 		ldrd	r4, [r5]
 1874              	.L328:
 1875 001c 17EE900A 		vmov	r0, s15
 1876 0020 FFF7FEFF 		bl	__aeabi_f2d
 1877 0024 2246     		mov	r2, r4
 1878 0026 2B46     		mov	r3, r5
 1879 0028 FFF7FEFF 		bl	__aeabi_dadd
 1880 002c FFF7FEFF 		bl	__aeabi_d2f
 1881 0030 07EE900A 		vmov	s15, r0
ARM GAS  /tmp/cce0qbfU.s 			page 34


 1882 0034 F5EEC07A 		vcmpe.f32	s15, #0
 1883 0038 F1EE10FA 		vmrs	APSR_nzcv, FPSCR
 1884 003c EED4     		bmi	.L328
 1885 003e 3864     		str	r0, [r7, #64]	@ float
 1886              	.L326:
 1887 0040 17EE900A 		vmov	r0, s15
 1888 0044 FFF7FEFF 		bl	__aeabi_f2d
 1889 0048 11A3     		adr	r3, .L335
 1890 004a D3E90023 		ldrd	r2, [r3]
 1891 004e 0446     		mov	r4, r0
 1892 0050 0D46     		mov	r5, r1
 1893 0052 FFF7FEFF 		bl	__aeabi_dcmpge
 1894 0056 B8B1     		cbz	r0, .L325
 1895 0058 0FF23409 		adr	r9, .L335
 1896 005c D9E90089 		ldrd	r8, [r9]
 1897              	.L331:
 1898 0060 4246     		mov	r2, r8
 1899 0062 4B46     		mov	r3, r9
 1900 0064 2046     		mov	r0, r4
 1901 0066 2946     		mov	r1, r5
 1902 0068 FFF7FEFF 		bl	__aeabi_dsub
 1903 006c FFF7FEFF 		bl	__aeabi_d2f
 1904 0070 0646     		mov	r6, r0	@ float
 1905 0072 FFF7FEFF 		bl	__aeabi_f2d
 1906 0076 4246     		mov	r2, r8
 1907 0078 4B46     		mov	r3, r9
 1908 007a 0446     		mov	r4, r0
 1909 007c 0D46     		mov	r5, r1
 1910 007e FFF7FEFF 		bl	__aeabi_dcmpge
 1911 0082 0028     		cmp	r0, #0
 1912 0084 ECD1     		bne	.L331
 1913 0086 3E64     		str	r6, [r7, #64]	@ float
 1914              	.L325:
 1915 0088 BDE8F883 		pop	{r3, r4, r5, r6, r7, r8, r9, pc}
 1916              	.L336:
 1917 008c AFF30080 		.align	3
 1918              	.L335:
 1919 0090 182D4454 		.word	1413754136
 1920 0094 FB211940 		.word	1075388923
 1921 0098 00000000 		.word	.LANCHOR2
 1922              		.size	nav_set_heading_rad, .-nav_set_heading_rad
 1923              		.section	.text.nav_set_heading_deg,"ax",%progbits
 1924              		.align	1
 1925              		.p2align 4,,15
 1926              		.global	nav_set_heading_deg
 1927              		.syntax unified
 1928              		.thumb
 1929              		.thumb_func
 1930              		.fpu fpv4-sp-d16
 1931              		.type	nav_set_heading_deg, %function
 1932              	nav_set_heading_deg:
 1933              		@ args = 0, pretend = 0, frame = 0
 1934              		@ frame_needed = 0, uses_anonymous_args = 0
 1935 0000 2DE9F843 		push	{r3, r4, r5, r6, r7, r8, r9, lr}
 1936 0004 FFF7FEFF 		bl	__aeabi_f2d
 1937 0008 28A3     		adr	r3, .L347+12
 1938 000a D3E90023 		ldrd	r2, [r3]
ARM GAS  /tmp/cce0qbfU.s 			page 35


 1939 000e FFF7FEFF 		bl	__aeabi_dmul
 1940 0012 FFF7FEFF 		bl	__aeabi_d2f
 1941 0016 07EE900A 		vmov	s15, r0
 1942 001a 234F     		ldr	r7, .L347+8
 1943 001c F5EEC07A 		vcmpe.f32	s15, #0
 1944 0020 F1EE10FA 		vmrs	APSR_nzcv, FPSCR
 1945 0024 3864     		str	r0, [r7, #64]	@ float
 1946 0026 14D5     		bpl	.L338
 1947 0028 1DA5     		adr	r5, .L347
 1948 002a D5E90045 		ldrd	r4, [r5]
 1949              	.L340:
 1950 002e 17EE900A 		vmov	r0, s15
 1951 0032 FFF7FEFF 		bl	__aeabi_f2d
 1952 0036 2246     		mov	r2, r4
 1953 0038 2B46     		mov	r3, r5
 1954 003a FFF7FEFF 		bl	__aeabi_dadd
 1955 003e FFF7FEFF 		bl	__aeabi_d2f
 1956 0042 07EE900A 		vmov	s15, r0
 1957 0046 F5EEC07A 		vcmpe.f32	s15, #0
 1958 004a F1EE10FA 		vmrs	APSR_nzcv, FPSCR
 1959 004e EED4     		bmi	.L340
 1960 0050 3864     		str	r0, [r7, #64]	@ float
 1961              	.L338:
 1962 0052 17EE900A 		vmov	r0, s15
 1963 0056 FFF7FEFF 		bl	__aeabi_f2d
 1964 005a 11A3     		adr	r3, .L347
 1965 005c D3E90023 		ldrd	r2, [r3]
 1966 0060 0446     		mov	r4, r0
 1967 0062 0D46     		mov	r5, r1
 1968 0064 FFF7FEFF 		bl	__aeabi_dcmpge
 1969 0068 B8B1     		cbz	r0, .L337
 1970 006a 0FF23409 		adr	r9, .L347
 1971 006e D9E90089 		ldrd	r8, [r9]
 1972              	.L343:
 1973 0072 4246     		mov	r2, r8
 1974 0074 4B46     		mov	r3, r9
 1975 0076 2046     		mov	r0, r4
 1976 0078 2946     		mov	r1, r5
 1977 007a FFF7FEFF 		bl	__aeabi_dsub
 1978 007e FFF7FEFF 		bl	__aeabi_d2f
 1979 0082 0646     		mov	r6, r0	@ float
 1980 0084 FFF7FEFF 		bl	__aeabi_f2d
 1981 0088 4246     		mov	r2, r8
 1982 008a 4B46     		mov	r3, r9
 1983 008c 0446     		mov	r4, r0
 1984 008e 0D46     		mov	r5, r1
 1985 0090 FFF7FEFF 		bl	__aeabi_dcmpge
 1986 0094 0028     		cmp	r0, #0
 1987 0096 ECD1     		bne	.L343
 1988 0098 3E64     		str	r6, [r7, #64]	@ float
 1989              	.L337:
 1990 009a BDE8F883 		pop	{r3, r4, r5, r6, r7, r8, r9, pc}
 1991              	.L348:
 1992 009e 00BF     		.align	3
 1993              	.L347:
 1994 00a0 182D4454 		.word	1413754136
 1995 00a4 FB211940 		.word	1075388923
ARM GAS  /tmp/cce0qbfU.s 			page 36


 1996 00a8 00000000 		.word	.LANCHOR2
 1997 00ac 399D52A2 		.word	-1571644103
 1998 00b0 46DF913F 		.word	1066524486
 1999              		.size	nav_set_heading_deg, .-nav_set_heading_deg
 2000              		.section	.text.nav_set_heading_towards,"ax",%progbits
 2001              		.align	1
 2002              		.p2align 4,,15
 2003              		.global	nav_set_heading_towards
 2004              		.syntax unified
 2005              		.thumb
 2006              		.thumb_func
 2007              		.fpu fpv4-sp-d16
 2008              		.type	nav_set_heading_towards, %function
 2009              	nav_set_heading_towards:
 2010              		@ args = 0, pretend = 0, frame = 0
 2011              		@ frame_needed = 0, uses_anonymous_args = 0
 2012 0000 10B5     		push	{r4, lr}
 2013 0002 1B4C     		ldr	r4, .L358
 2014 0004 2388     		ldrh	r3, [r4]
 2015 0006 1A06     		lsls	r2, r3, #24
 2016 0008 2DED028B 		vpush.64	{d8}
 2017 000c 08EE100A 		vmov	s16, r0
 2018 0010 08EE901A 		vmov	s17, r1
 2019 0014 15D5     		bpl	.L356
 2020 0016 D4ED427A 		vldr.32	s15, [r4, #264]
 2021 001a 38EE678A 		vsub.f32	s16, s16, s15
 2022              	.L351:
 2023 001e D4ED437A 		vldr.32	s15, [r4, #268]
 2024 0022 78EEE77A 		vsub.f32	s15, s17, s15
 2025 0026 F5EE006A 		vmov.f32	s13, #2.5e-1
 2026 002a 27EEA77A 		vmul.f32	s14, s15, s15
 2027 002e A8EE087A 		vfma.f32	s14, s16, s16
 2028 0032 B4EEE67A 		vcmpe.f32	s14, s13
 2029 0036 F1EE10FA 		vmrs	APSR_nzcv, FPSCR
 2030 003a 0EDC     		bgt	.L357
 2031 003c BDEC028B 		vldm	sp!, {d8}
 2032 0040 10BD     		pop	{r4, pc}
 2033              	.L356:
 2034 0042 FFF7FEFF 		bl	stateCalcPositionEnu_f
 2035 0046 2388     		ldrh	r3, [r4]
 2036 0048 D4ED427A 		vldr.32	s15, [r4, #264]
 2037 004c 1B06     		lsls	r3, r3, #24
 2038 004e 38EE678A 		vsub.f32	s16, s16, s15
 2039 0052 E4D4     		bmi	.L351
 2040 0054 FFF7FEFF 		bl	stateCalcPositionEnu_f
 2041 0058 E1E7     		b	.L351
 2042              	.L357:
 2043 005a 18EE100A 		vmov	r0, s16
 2044 005e 17EE901A 		vmov	r1, s15
 2045 0062 FFF7FEFF 		bl	atan2f
 2046 0066 BDEC028B 		vldm	sp!, {d8}
 2047 006a 024B     		ldr	r3, .L358+4
 2048 006c 1864     		str	r0, [r3, #64]	@ float
 2049 006e 10BD     		pop	{r4, pc}
 2050              	.L359:
 2051              		.align	2
 2052              	.L358:
ARM GAS  /tmp/cce0qbfU.s 			page 37


 2053 0070 00000000 		.word	state
 2054 0074 00000000 		.word	.LANCHOR2
 2055              		.size	nav_set_heading_towards, .-nav_set_heading_towards
 2056              		.section	.text.nav_set_heading_towards_waypoint,"ax",%progbits
 2057              		.align	1
 2058              		.p2align 4,,15
 2059              		.global	nav_set_heading_towards_waypoint
 2060              		.syntax unified
 2061              		.thumb
 2062              		.thumb_func
 2063              		.fpu fpv4-sp-d16
 2064              		.type	nav_set_heading_towards_waypoint, %function
 2065              	nav_set_heading_towards_waypoint:
 2066              		@ args = 0, pretend = 0, frame = 0
 2067              		@ frame_needed = 0, uses_anonymous_args = 0
 2068 0000 38B5     		push	{r3, r4, r5, lr}
 2069 0002 0546     		mov	r5, r0
 2070 0004 FFF7FEFF 		bl	waypoint_get_x
 2071 0008 0446     		mov	r4, r0	@ float
 2072 000a 2846     		mov	r0, r5
 2073 000c FFF7FEFF 		bl	waypoint_get_y
 2074 0010 0146     		mov	r1, r0	@ float
 2075 0012 2046     		mov	r0, r4	@ float
 2076 0014 BDE83840 		pop	{r3, r4, r5, lr}
 2077 0018 FFF7FEBF 		b	nav_set_heading_towards
 2078              		.size	nav_set_heading_towards_waypoint, .-nav_set_heading_towards_waypoint
 2079              		.section	.text.nav_set_heading_towards_target,"ax",%progbits
 2080              		.align	1
 2081              		.p2align 4,,15
 2082              		.global	nav_set_heading_towards_target
 2083              		.syntax unified
 2084              		.thumb
 2085              		.thumb_func
 2086              		.fpu fpv4-sp-d16
 2087              		.type	nav_set_heading_towards_target, %function
 2088              	nav_set_heading_towards_target:
 2089              		@ args = 0, pretend = 0, frame = 0
 2090              		@ frame_needed = 0, uses_anonymous_args = 0
 2091              		@ link register save eliminated.
 2092 0000 024B     		ldr	r3, .L363
 2093 0002 9968     		ldr	r1, [r3, #8]	@ float
 2094 0004 5868     		ldr	r0, [r3, #4]	@ float
 2095 0006 FFF7FEBF 		b	nav_set_heading_towards
 2096              	.L364:
 2097 000a 00BF     		.align	2
 2098              	.L363:
 2099 000c 00000000 		.word	.LANCHOR2
 2100              		.size	nav_set_heading_towards_target, .-nav_set_heading_towards_target
 2101              		.section	.text.nav_set_heading_current,"ax",%progbits
 2102              		.align	1
 2103              		.p2align 4,,15
 2104              		.global	nav_set_heading_current
 2105              		.syntax unified
 2106              		.thumb
 2107              		.thumb_func
 2108              		.fpu fpv4-sp-d16
 2109              		.type	nav_set_heading_current, %function
ARM GAS  /tmp/cce0qbfU.s 			page 38


 2110              	nav_set_heading_current:
 2111              		@ args = 0, pretend = 0, frame = 0
 2112              		@ frame_needed = 0, uses_anonymous_args = 0
 2113 0000 10B5     		push	{r4, lr}
 2114 0002 094C     		ldr	r4, .L369
 2115 0004 94F8B031 		ldrb	r3, [r4, #432]	@ zero_extendqisi2
 2116 0008 DB06     		lsls	r3, r3, #27
 2117 000a 04D5     		bpl	.L368
 2118 000c 074B     		ldr	r3, .L369+4
 2119 000e D4F80C22 		ldr	r2, [r4, #524]	@ float
 2120 0012 1A64     		str	r2, [r3, #64]	@ float
 2121 0014 10BD     		pop	{r4, pc}
 2122              	.L368:
 2123 0016 04F5D870 		add	r0, r4, #432
 2124 001a FFF7FEFF 		bl	orientationCalcEulers_f
 2125 001e 034B     		ldr	r3, .L369+4
 2126 0020 D4F80C22 		ldr	r2, [r4, #524]	@ float
 2127 0024 1A64     		str	r2, [r3, #64]	@ float
 2128 0026 10BD     		pop	{r4, pc}
 2129              	.L370:
 2130              		.align	2
 2131              	.L369:
 2132 0028 00000000 		.word	state
 2133 002c 00000000 		.word	.LANCHOR2
 2134              		.size	nav_set_heading_current, .-nav_set_heading_current
 2135              		.section	.text.nav_set_failsafe,"ax",%progbits
 2136              		.align	1
 2137              		.p2align 4,,15
 2138              		.global	nav_set_failsafe
 2139              		.syntax unified
 2140              		.thumb
 2141              		.thumb_func
 2142              		.fpu fpv4-sp-d16
 2143              		.type	nav_set_failsafe, %function
 2144              	nav_set_failsafe:
 2145              		@ args = 0, pretend = 0, frame = 0
 2146              		@ frame_needed = 0, uses_anonymous_args = 0
 2147              		@ link register save eliminated.
 2148 0000 0120     		movs	r0, #1
 2149 0002 FFF7FEBF 		b	autopilot_set_mode
 2150              		.size	nav_set_failsafe, .-nav_set_failsafe
 2151 0006 00BF     		.section	.text.nav_register_stage_init,"ax",%progbits
 2152              		.align	1
 2153              		.p2align 4,,15
 2154              		.global	nav_register_stage_init
 2155              		.syntax unified
 2156              		.thumb
 2157              		.thumb_func
 2158              		.fpu fpv4-sp-d16
 2159              		.type	nav_register_stage_init, %function
 2160              	nav_register_stage_init:
 2161              		@ args = 0, pretend = 0, frame = 0
 2162              		@ frame_needed = 0, uses_anonymous_args = 0
 2163              		@ link register save eliminated.
 2164 0000 014B     		ldr	r3, .L373
 2165 0002 C3F88400 		str	r0, [r3, #132]
 2166 0006 7047     		bx	lr
ARM GAS  /tmp/cce0qbfU.s 			page 39


 2167              	.L374:
 2168              		.align	2
 2169              	.L373:
 2170 0008 00000000 		.word	.LANCHOR2
 2171              		.size	nav_register_stage_init, .-nav_register_stage_init
 2172              		.section	.text.nav_register_goto_wp,"ax",%progbits
 2173              		.align	1
 2174              		.p2align 4,,15
 2175              		.global	nav_register_goto_wp
 2176              		.syntax unified
 2177              		.thumb
 2178              		.thumb_func
 2179              		.fpu fpv4-sp-d16
 2180              		.type	nav_register_goto_wp, %function
 2181              	nav_register_goto_wp:
 2182              		@ args = 0, pretend = 0, frame = 0
 2183              		@ frame_needed = 0, uses_anonymous_args = 0
 2184              		@ link register save eliminated.
 2185 0000 024B     		ldr	r3, .L376
 2186 0002 C3E92201 		strd	r0, r1, [r3, #136]
 2187 0006 C3F89020 		str	r2, [r3, #144]
 2188 000a 7047     		bx	lr
 2189              	.L377:
 2190              		.align	2
 2191              	.L376:
 2192 000c 00000000 		.word	.LANCHOR2
 2193              		.size	nav_register_goto_wp, .-nav_register_goto_wp
 2194              		.section	.text.nav_register_circle,"ax",%progbits
 2195              		.align	1
 2196              		.p2align 4,,15
 2197              		.global	nav_register_circle
 2198              		.syntax unified
 2199              		.thumb
 2200              		.thumb_func
 2201              		.fpu fpv4-sp-d16
 2202              		.type	nav_register_circle, %function
 2203              	nav_register_circle:
 2204              		@ args = 0, pretend = 0, frame = 0
 2205              		@ frame_needed = 0, uses_anonymous_args = 0
 2206              		@ link register save eliminated.
 2207 0000 014B     		ldr	r3, .L379
 2208 0002 C3F89400 		str	r0, [r3, #148]
 2209 0006 7047     		bx	lr
 2210              	.L380:
 2211              		.align	2
 2212              	.L379:
 2213 0008 00000000 		.word	.LANCHOR2
 2214              		.size	nav_register_circle, .-nav_register_circle
 2215              		.section	.text.nav_register_oval,"ax",%progbits
 2216              		.align	1
 2217              		.p2align 4,,15
 2218              		.global	nav_register_oval
 2219              		.syntax unified
 2220              		.thumb
 2221              		.thumb_func
 2222              		.fpu fpv4-sp-d16
 2223              		.type	nav_register_oval, %function
ARM GAS  /tmp/cce0qbfU.s 			page 40


 2224              	nav_register_oval:
 2225              		@ args = 0, pretend = 0, frame = 0
 2226              		@ frame_needed = 0, uses_anonymous_args = 0
 2227              		@ link register save eliminated.
 2228 0000 014B     		ldr	r3, .L382
 2229 0002 C3E92601 		strd	r0, r1, [r3, #152]
 2230 0006 7047     		bx	lr
 2231              	.L383:
 2232              		.align	2
 2233              	.L382:
 2234 0008 00000000 		.word	.LANCHOR2
 2235              		.size	nav_register_oval, .-nav_register_oval
 2236              		.global	flight_altitude
 2237              		.global	max_dist2_from_home
 2238              		.global	max_dist_from_home
 2239              		.global	nav
 2240              		.global	nominal_alt
 2241              		.global	desired_heading
 2242              		.global	fp_throttle
 2243              		.section	.bss.FP_OBSTACLE_DETECTION_ev,"aw",%nobits
 2244              		.align	2
 2245              		.set	.LANCHOR4,. + 0
 2246              		.type	FP_OBSTACLE_DETECTION_ev, %object
 2247              		.size	FP_OBSTACLE_DETECTION_ev, 12
 2248              	FP_OBSTACLE_DETECTION_ev:
 2249 0000 00000000 		.space	12
 2249      00000000 
 2249      00000000 
 2250              		.section	.bss.FP_RANGE_FORCEFIELD_ev,"aw",%nobits
 2251              		.align	2
 2252              		.set	.LANCHOR5,. + 0
 2253              		.type	FP_RANGE_FORCEFIELD_ev, %object
 2254              		.size	FP_RANGE_FORCEFIELD_ev, 12
 2255              	FP_RANGE_FORCEFIELD_ev:
 2256 0000 00000000 		.space	12
 2256      00000000 
 2256      00000000 
 2257              		.section	.bss.desired_heading,"aw",%nobits
 2258              		.align	2
 2259              		.set	.LANCHOR12,. + 0
 2260              		.type	desired_heading, %object
 2261              		.size	desired_heading, 4
 2262              	desired_heading:
 2263 0000 00000000 		.space	4
 2264              		.section	.bss.flight_altitude,"aw",%nobits
 2265              		.align	2
 2266              		.set	.LANCHOR3,. + 0
 2267              		.type	flight_altitude, %object
 2268              		.size	flight_altitude, 4
 2269              	flight_altitude:
 2270 0000 00000000 		.space	4
 2271              		.section	.bss.last_alt.4,"aw",%nobits
 2272              		.align	2
 2273              		.set	.LANCHOR6,. + 0
 2274              		.type	last_alt.4, %object
 2275              		.size	last_alt.4, 4
 2276              	last_alt.4:
ARM GAS  /tmp/cce0qbfU.s 			page 41


 2277 0000 00000000 		.space	4
 2278              		.section	.bss.nav,"aw",%nobits
 2279              		.align	2
 2280              		.set	.LANCHOR2,. + 0
 2281              		.type	nav, %object
 2282              		.size	nav, 160
 2283              	nav:
 2284 0000 00000000 		.space	160
 2284      00000000 
 2284      00000000 
 2284      00000000 
 2284      00000000 
 2285              		.section	.bss.prescaler.0,"aw",%nobits
 2286              		.align	1
 2287              		.set	.LANCHOR10,. + 0
 2288              		.type	prescaler.0, %object
 2289              		.size	prescaler.0, 2
 2290              	prescaler.0:
 2291 0000 0000     		.space	2
 2292              		.section	.bss.vel_body_x_FF,"aw",%nobits
 2293              		.align	2
 2294              		.set	.LANCHOR0,. + 0
 2295              		.type	vel_body_x_FF, %object
 2296              		.size	vel_body_x_FF, 4
 2297              	vel_body_x_FF:
 2298 0000 00000000 		.space	4
 2299              		.section	.bss.vel_body_y_FF,"aw",%nobits
 2300              		.align	2
 2301              		.set	.LANCHOR1,. + 0
 2302              		.type	vel_body_y_FF, %object
 2303              		.size	vel_body_y_FF, 4
 2304              	vel_body_y_FF:
 2305 0000 00000000 		.space	4
 2306              		.section	.bss.wp_entry_time.1,"aw",%nobits
 2307              		.align	1
 2308              		.set	.LANCHOR9,. + 0
 2309              		.type	wp_entry_time.1, %object
 2310              		.size	wp_entry_time.1, 2
 2311              	wp_entry_time.1:
 2312 0000 0000     		.space	2
 2313              		.section	.bss.wp_last.3,"aw",%nobits
 2314              		.align	2
 2315              		.set	.LANCHOR7,. + 0
 2316              		.type	wp_last.3, %object
 2317              		.size	wp_last.3, 12
 2318              	wp_last.3:
 2319 0000 00000000 		.space	12
 2319      00000000 
 2319      00000000 
 2320              		.section	.bss.wp_reached.2,"aw",%nobits
 2321              		.set	.LANCHOR8,. + 0
 2322              		.type	wp_reached.2, %object
 2323              		.size	wp_reached.2, 1
 2324              	wp_reached.2:
 2325 0000 00       		.space	1
 2326              		.section	.data.fp_throttle,"aw"
 2327              		.align	2
ARM GAS  /tmp/cce0qbfU.s 			page 42


 2328              		.set	.LANCHOR13,. + 0
 2329              		.type	fp_throttle, %object
 2330              		.size	fp_throttle, 4
 2331              	fp_throttle:
 2332 0000 CDCCCC3D 		.word	1036831949
 2333              		.section	.data.nominal_alt,"aw"
 2334              		.align	2
 2335              		.set	.LANCHOR11,. + 0
 2336              		.type	nominal_alt, %object
 2337              		.size	nominal_alt, 4
 2338              	nominal_alt:
 2339 0000 00001343 		.word	1125318656
 2340              		.section	.rodata.max_dist2_from_home,"a"
 2341              		.align	2
 2342              		.type	max_dist2_from_home, %object
 2343              		.size	max_dist2_from_home, 4
 2344              	max_dist2_from_home:
 2345 0000 0000C843 		.word	1137180672
 2346              		.section	.rodata.max_dist_from_home,"a"
 2347              		.align	2
 2348              		.type	max_dist_from_home, %object
 2349              		.size	max_dist_from_home, 4
 2350              	max_dist_from_home:
 2351 0000 0000A041 		.word	1101004800
 2352              		.ident	"GCC: (15:10.3-2021.07-4) 10.3.1 20210621 (release)"
ARM GAS  /tmp/cce0qbfU.s 			page 43

