ARM GAS  /tmp/ccqqT7mb.s 			page 1


   1              		.cpu cortex-m4
   2              		.eabi_attribute 27, 1
   3              		.eabi_attribute 20, 1
   4              		.eabi_attribute 21, 1
   5              		.eabi_attribute 23, 3
   6              		.eabi_attribute 24, 1
   7              		.eabi_attribute 25, 1
   8              		.eabi_attribute 26, 1
   9              		.eabi_attribute 30, 2
  10              		.eabi_attribute 34, 1
  11              		.eabi_attribute 18, 4
  12              		.file	"settings.c"
  13              		.text
  14              		.section	.rodata.pprzlink_msg_v2_send_DL_VALUE.constprop.0.str1.4,"aMS",%progbits,1
  15              		.align	2
  16              	.LC0:
  17 0000 444C5F56 		.ascii	"DL_VALUE\000"
  17      414C5545 
  17      00
  18              		.section	.text.pprzlink_msg_v2_send_DL_VALUE.constprop.0,"ax",%progbits
  19              		.align	1
  20              		.p2align 4,,15
  21              		.arch armv7e-m
  22              		.syntax unified
  23              		.thumb
  24              		.thumb_func
  25              		.fpu fpv4-sp-d16
  26              		.type	pprzlink_msg_v2_send_DL_VALUE.constprop.0, %function
  27              	pprzlink_msg_v2_send_DL_VALUE.constprop.0:
  28              		@ args = 0, pretend = 0, frame = 8
  29              		@ frame_needed = 0, uses_anonymous_args = 0
  30 0000 2DE9F043 		push	{r4, r5, r6, r7, r8, r9, lr}
  31 0004 4368     		ldr	r3, [r0, #4]
  32 0006 85B0     		sub	sp, sp, #20
  33 0008 0025     		movs	r5, #0
  34 000a 0446     		mov	r4, r0
  35 000c 1B68     		ldr	r3, [r3]
  36 000e 0395     		str	r5, [sp, #12]
  37 0010 8846     		mov	r8, r1
  38 0012 0921     		movs	r1, #9
  39 0014 1746     		mov	r7, r2
  40 0016 9847     		blx	r3
  41 0018 6368     		ldr	r3, [r4, #4]
  42 001a 0646     		mov	r6, r0
  43 001c 82B2     		uxth	r2, r0
  44 001e 5B68     		ldr	r3, [r3, #4]
  45 0020 03A9     		add	r1, sp, #12
  46 0022 2046     		mov	r0, r4
  47 0024 9847     		blx	r3
  48 0026 0028     		cmp	r0, #0
  49 0028 55D0     		beq	.L2
  50 002a 6368     		ldr	r3, [r4, #4]
  51 002c 3146     		mov	r1, r6
  52 002e 2046     		mov	r0, r4
  53 0030 DB69     		ldr	r3, [r3, #28]
  54 0032 9847     		blx	r3
  55 0034 6368     		ldr	r3, [r4, #4]
ARM GAS  /tmp/ccqqT7mb.s 			page 2


  56 0036 0399     		ldr	r1, [sp, #12]
  57 0038 1B69     		ldr	r3, [r3, #16]
  58 003a 2046     		mov	r0, r4
  59 003c 0922     		movs	r2, #9
  60 003e 9847     		blx	r3
  61 0040 0126     		movs	r6, #1
  62 0042 6368     		ldr	r3, [r4, #4]
  63 0044 0196     		str	r6, [sp, #4]
  64 0046 0094     		str	r4, [sp]
  65 0048 D3F80890 		ldr	r9, [r3, #8]
  66 004c 0399     		ldr	r1, [sp, #12]
  67 004e 2B46     		mov	r3, r5
  68 0050 2046     		mov	r0, r4
  69 0052 0222     		movs	r2, #2
  70 0054 C847     		blx	r9
  71 0056 0195     		str	r5, [sp, #4]
  72 0058 6368     		ldr	r3, [r4, #4]
  73 005a 6278     		ldrb	r2, [r4, #1]	@ zero_extendqisi2
  74 005c 0092     		str	r2, [sp]
  75 005e D3F80C90 		ldr	r9, [r3, #12]
  76 0062 0399     		ldr	r1, [sp, #12]
  77 0064 2B46     		mov	r3, r5
  78 0066 2046     		mov	r0, r4
  79 0068 0222     		movs	r2, #2
  80 006a C847     		blx	r9
  81 006c 0195     		str	r5, [sp, #4]
  82 006e A378     		ldrb	r3, [r4, #2]	@ zero_extendqisi2
  83 0070 0399     		ldr	r1, [sp, #12]
  84 0072 1B01     		lsls	r3, r3, #4
  85 0074 3343     		orrs	r3, r3, r6
  86 0076 DBB2     		uxtb	r3, r3
  87 0078 0093     		str	r3, [sp]
  88 007a 6368     		ldr	r3, [r4, #4]
  89 007c 2046     		mov	r0, r4
  90 007e D3F80C90 		ldr	r9, [r3, #12]
  91 0082 0222     		movs	r2, #2
  92 0084 2B46     		mov	r3, r5
  93 0086 C847     		blx	r9
  94 0088 164A     		ldr	r2, .L6
  95 008a 6368     		ldr	r3, [r4, #4]
  96 008c 0192     		str	r2, [sp, #4]
  97 008e 1F22     		movs	r2, #31
  98 0090 0092     		str	r2, [sp]
  99 0092 D3F80C90 		ldr	r9, [r3, #12]
 100 0096 0399     		ldr	r1, [sp, #12]
 101 0098 2B46     		mov	r3, r5
 102 009a 2046     		mov	r0, r4
 103 009c 0222     		movs	r2, #2
 104 009e C847     		blx	r9
 105 00a0 CDE90086 		strd	r8, r6, [sp]
 106 00a4 6168     		ldr	r1, [r4, #4]
 107 00a6 2B46     		mov	r3, r5
 108 00a8 8E68     		ldr	r6, [r1, #8]
 109 00aa 0399     		ldr	r1, [sp, #12]
 110 00ac 2046     		mov	r0, r4
 111 00ae 0222     		movs	r2, #2
 112 00b0 B047     		blx	r6
ARM GAS  /tmp/ccqqT7mb.s 			page 3


 113 00b2 0422     		movs	r2, #4
 114 00b4 6368     		ldr	r3, [r4, #4]
 115 00b6 0399     		ldr	r1, [sp, #12]
 116 00b8 CDE90072 		strd	r7, r2, [sp]
 117 00bc 2046     		mov	r0, r4
 118 00be 9E68     		ldr	r6, [r3, #8]
 119 00c0 0A22     		movs	r2, #10
 120 00c2 2B46     		mov	r3, r5
 121 00c4 B047     		blx	r6
 122 00c6 6368     		ldr	r3, [r4, #4]
 123 00c8 0399     		ldr	r1, [sp, #12]
 124 00ca 5B69     		ldr	r3, [r3, #20]
 125 00cc 2046     		mov	r0, r4
 126 00ce 9847     		blx	r3
 127 00d0 05B0     		add	sp, sp, #20
 128              		@ sp needed
 129 00d2 BDE8F083 		pop	{r4, r5, r6, r7, r8, r9, pc}
 130              	.L2:
 131 00d6 6368     		ldr	r3, [r4, #4]
 132 00d8 2046     		mov	r0, r4
 133 00da 9B69     		ldr	r3, [r3, #24]
 134 00dc 9847     		blx	r3
 135 00de 05B0     		add	sp, sp, #20
 136              		@ sp needed
 137 00e0 BDE8F083 		pop	{r4, r5, r6, r7, r8, r9, pc}
 138              	.L7:
 139              		.align	2
 140              	.L6:
 141 00e4 00000000 		.word	.LC0
 142              		.size	pprzlink_msg_v2_send_DL_VALUE.constprop.0, .-pprzlink_msg_v2_send_DL_VALUE.constprop.0
 143              		.section	.text.settings_init,"ax",%progbits
 144              		.align	1
 145              		.p2align 4,,15
 146              		.global	settings_init
 147              		.syntax unified
 148              		.thumb
 149              		.thumb_func
 150              		.fpu fpv4-sp-d16
 151              		.type	settings_init, %function
 152              	settings_init:
 153              		@ args = 0, pretend = 0, frame = 0
 154              		@ frame_needed = 0, uses_anonymous_args = 0
 155              		@ link register save eliminated.
 156 0000 7047     		bx	lr
 157              		.size	settings_init, .-settings_init
 158 0002 00BF     		.section	.text.settings_store,"ax",%progbits
 159              		.align	1
 160              		.p2align 4,,15
 161              		.global	settings_store
 162              		.syntax unified
 163              		.thumb
 164              		.thumb_func
 165              		.fpu fpv4-sp-d16
 166              		.type	settings_store, %function
 167              	settings_store:
 168              		@ args = 0, pretend = 0, frame = 0
 169              		@ frame_needed = 0, uses_anonymous_args = 0
ARM GAS  /tmp/ccqqT7mb.s 			page 4


 170              		@ link register save eliminated.
 171 0000 024B     		ldr	r3, .L10
 172 0002 0022     		movs	r2, #0
 173 0004 1A70     		strb	r2, [r3]
 174 0006 4FF0FF30 		mov	r0, #-1
 175 000a 7047     		bx	lr
 176              	.L11:
 177              		.align	2
 178              	.L10:
 179 000c 00000000 		.word	.LANCHOR0
 180              		.size	settings_store, .-settings_store
 181              		.section	.text.settings_clear,"ax",%progbits
 182              		.align	1
 183              		.p2align 4,,15
 184              		.global	settings_clear
 185              		.syntax unified
 186              		.thumb
 187              		.thumb_func
 188              		.fpu fpv4-sp-d16
 189              		.type	settings_clear, %function
 190              	settings_clear:
 191              		@ args = 0, pretend = 0, frame = 0
 192              		@ frame_needed = 0, uses_anonymous_args = 0
 193              		@ link register save eliminated.
 194 0000 024B     		ldr	r3, .L13
 195 0002 0022     		movs	r2, #0
 196 0004 1A70     		strb	r2, [r3]
 197 0006 4FF0FF30 		mov	r0, #-1
 198 000a 7047     		bx	lr
 199              	.L14:
 200              		.align	2
 201              	.L13:
 202 000c 00000000 		.word	.LANCHOR1
 203              		.size	settings_clear, .-settings_clear
 204              		.section	.text.settings_parse_msg_SETTING,"ax",%progbits
 205              		.align	1
 206              		.p2align 4,,15
 207              		.global	settings_parse_msg_SETTING
 208              		.syntax unified
 209              		.thumb
 210              		.thumb_func
 211              		.fpu fpv4-sp-d16
 212              		.type	settings_parse_msg_SETTING, %function
 213              	settings_parse_msg_SETTING:
 214              		@ args = 0, pretend = 0, frame = 32
 215              		@ frame_needed = 0, uses_anonymous_args = 0
 216 0000 5379     		ldrb	r3, [r2, #5]	@ zero_extendqisi2
 217 0002 1F2B     		cmp	r3, #31
 218 0004 54D1     		bne	.L91
 219 0006 F0B5     		push	{r4, r5, r6, r7, lr}
 220 0008 89B0     		sub	sp, sp, #36
 221 000a 1379     		ldrb	r3, [r2, #4]	@ zero_extendqisi2
 222 000c 1678     		ldrb	r6, [r2]	@ zero_extendqisi2
 223 000e 8DF80F30 		strb	r3, [sp, #15]
 224 0012 0546     		mov	r5, r0
 225 0014 D2F80600 		ldr	r0, [r2, #6]	@ unaligned
 226 0018 0490     		str	r0, [sp, #16]	@ float
ARM GAS  /tmp/ccqqT7mb.s 			page 5


 227 001a 0C46     		mov	r4, r1
 228 001c 452B     		cmp	r3, #69
 229 001e 50D8     		bhi	.L18
 230 0020 DFE813F0 		tbh	[pc, r3, lsl #1]
 231              	.L20:
 232 0024 4700     		.2byte	(.L89-.L20)/2
 233 0026 AB02     		.2byte	(.L88-.L20)/2
 234 0028 A802     		.2byte	(.L87-.L20)/2
 235 002a 9F02     		.2byte	(.L86-.L20)/2
 236 002c 9602     		.2byte	(.L85-.L20)/2
 237 002e 8202     		.2byte	(.L84-.L20)/2
 238 0030 7702     		.2byte	(.L83-.L20)/2
 239 0032 6C02     		.2byte	(.L82-.L20)/2
 240 0034 5F02     		.2byte	(.L81-.L20)/2
 241 0036 5C02     		.2byte	(.L80-.L20)/2
 242 0038 5902     		.2byte	(.L79-.L20)/2
 243 003a 5602     		.2byte	(.L78-.L20)/2
 244 003c 5202     		.2byte	(.L77-.L20)/2
 245 003e 4902     		.2byte	(.L76-.L20)/2
 246 0040 4602     		.2byte	(.L75-.L20)/2
 247 0042 4302     		.2byte	(.L74-.L20)/2
 248 0044 3602     		.2byte	(.L73-.L20)/2
 249 0046 2902     		.2byte	(.L72-.L20)/2
 250 0048 1C02     		.2byte	(.L71-.L20)/2
 251 004a 0F02     		.2byte	(.L70-.L20)/2
 252 004c 0C02     		.2byte	(.L69-.L20)/2
 253 004e 0602     		.2byte	(.L68-.L20)/2
 254 0050 0002     		.2byte	(.L67-.L20)/2
 255 0052 FA01     		.2byte	(.L66-.L20)/2
 256 0054 EE01     		.2byte	(.L65-.L20)/2
 257 0056 E401     		.2byte	(.L64-.L20)/2
 258 0058 DA01     		.2byte	(.L63-.L20)/2
 259 005a D001     		.2byte	(.L62-.L20)/2
 260 005c AB01     		.2byte	(.L61-.L20)/2
 261 005e A501     		.2byte	(.L60-.L20)/2
 262 0060 9F01     		.2byte	(.L59-.L20)/2
 263 0062 9901     		.2byte	(.L58-.L20)/2
 264 0064 9301     		.2byte	(.L57-.L20)/2
 265 0066 8B01     		.2byte	(.L56-.L20)/2
 266 0068 8301     		.2byte	(.L55-.L20)/2
 267 006a 8001     		.2byte	(.L54-.L20)/2
 268 006c 7801     		.2byte	(.L53-.L20)/2
 269 006e 6B01     		.2byte	(.L52-.L20)/2
 270 0070 6301     		.2byte	(.L51-.L20)/2
 271 0072 5B01     		.2byte	(.L50-.L20)/2
 272 0074 4B01     		.2byte	(.L49-.L20)/2
 273 0076 4301     		.2byte	(.L48-.L20)/2
 274 0078 3B01     		.2byte	(.L47-.L20)/2
 275 007a 3301     		.2byte	(.L46-.L20)/2
 276 007c 2B01     		.2byte	(.L45-.L20)/2
 277 007e 1B01     		.2byte	(.L44-.L20)/2
 278 0080 0E01     		.2byte	(.L43-.L20)/2
 279 0082 0101     		.2byte	(.L42-.L20)/2
 280 0084 FD00     		.2byte	(.L41-.L20)/2
 281 0086 F900     		.2byte	(.L40-.L20)/2
 282 0088 F500     		.2byte	(.L39-.L20)/2
 283 008a F100     		.2byte	(.L38-.L20)/2
ARM GAS  /tmp/ccqqT7mb.s 			page 6


 284 008c E900     		.2byte	(.L37-.L20)/2
 285 008e E100     		.2byte	(.L36-.L20)/2
 286 0090 D900     		.2byte	(.L35-.L20)/2
 287 0092 D100     		.2byte	(.L34-.L20)/2
 288 0094 C900     		.2byte	(.L33-.L20)/2
 289 0096 C100     		.2byte	(.L32-.L20)/2
 290 0098 B900     		.2byte	(.L31-.L20)/2
 291 009a B100     		.2byte	(.L30-.L20)/2
 292 009c A900     		.2byte	(.L29-.L20)/2
 293 009e A100     		.2byte	(.L28-.L20)/2
 294 00a0 9900     		.2byte	(.L27-.L20)/2
 295 00a2 9100     		.2byte	(.L26-.L20)/2
 296 00a4 8900     		.2byte	(.L25-.L20)/2
 297 00a6 8100     		.2byte	(.L24-.L20)/2
 298 00a8 7900     		.2byte	(.L23-.L20)/2
 299 00aa 7100     		.2byte	(.L22-.L20)/2
 300 00ac 6900     		.2byte	(.L21-.L20)/2
 301 00ae 6100     		.2byte	(.L19-.L20)/2
 302              		.p2align 1
 303              	.L91:
 304 00b0 7047     		bx	lr
 305              	.L89:
 306 00b2 07EE900A 		vmov	s15, r0
 307 00b6 FCEEE77A 		vcvt.u32.f32	s15, s15
 308 00ba B94B     		ldr	r3, .L94
 309 00bc 17EE900A 		vmov	r0, s15	@ int
 310 00c0 1870     		strb	r0, [r3]
 311              	.L18:
 312 00c2 1F20     		movs	r0, #31
 313 00c4 0023     		movs	r3, #0
 314 00c6 8DF81400 		strb	r0, [sp, #20]
 315 00ca 04AA     		add	r2, sp, #16
 316 00cc 0DF10F01 		add	r1, sp, #15
 317 00d0 05A8     		add	r0, sp, #20
 318 00d2 CDE90645 		strd	r4, r5, [sp, #24]
 319 00d6 8DF81560 		strb	r6, [sp, #21]
 320 00da 8DF81630 		strb	r3, [sp, #22]
 321 00de FFF7FEFF 		bl	pprzlink_msg_v2_send_DL_VALUE.constprop.0
 322 00e2 09B0     		add	sp, sp, #36
 323              		@ sp needed
 324 00e4 F0BD     		pop	{r4, r5, r6, r7, pc}
 325              	.L19:
 326 00e6 AF4F     		ldr	r7, .L94+4
 327 00e8 0146     		mov	r1, r0	@ float
 328 00ea 3846     		mov	r0, r7
 329 00ec FFF7FEFF 		bl	attitude_ref_quat_int_set_zeta_r
 330 00f0 BB6C     		ldr	r3, [r7, #72]	@ float
 331 00f2 0493     		str	r3, [sp, #16]	@ float
 332 00f4 E5E7     		b	.L18
 333              	.L21:
 334 00f6 AB4F     		ldr	r7, .L94+4
 335 00f8 0146     		mov	r1, r0	@ float
 336 00fa 3846     		mov	r0, r7
 337 00fc FFF7FEFF 		bl	attitude_ref_quat_int_set_omega_r
 338 0100 FB6B     		ldr	r3, [r7, #60]	@ float
 339 0102 0493     		str	r3, [sp, #16]	@ float
 340 0104 DDE7     		b	.L18
ARM GAS  /tmp/ccqqT7mb.s 			page 7


 341              	.L22:
 342 0106 A74F     		ldr	r7, .L94+4
 343 0108 0146     		mov	r1, r0	@ float
 344 010a 3846     		mov	r0, r7
 345 010c FFF7FEFF 		bl	attitude_ref_quat_int_set_zeta_q
 346 0110 7B6C     		ldr	r3, [r7, #68]	@ float
 347 0112 0493     		str	r3, [sp, #16]	@ float
 348 0114 D5E7     		b	.L18
 349              	.L23:
 350 0116 A34F     		ldr	r7, .L94+4
 351 0118 0146     		mov	r1, r0	@ float
 352 011a 3846     		mov	r0, r7
 353 011c FFF7FEFF 		bl	attitude_ref_quat_int_set_omega_q
 354 0120 BB6B     		ldr	r3, [r7, #56]	@ float
 355 0122 0493     		str	r3, [sp, #16]	@ float
 356 0124 CDE7     		b	.L18
 357              	.L24:
 358 0126 9F4F     		ldr	r7, .L94+4
 359 0128 0146     		mov	r1, r0	@ float
 360 012a 3846     		mov	r0, r7
 361 012c FFF7FEFF 		bl	attitude_ref_quat_int_set_zeta_p
 362 0130 3B6C     		ldr	r3, [r7, #64]	@ float
 363 0132 0493     		str	r3, [sp, #16]	@ float
 364 0134 C5E7     		b	.L18
 365              	.L25:
 366 0136 9B4F     		ldr	r7, .L94+4
 367 0138 0146     		mov	r1, r0	@ float
 368 013a 3846     		mov	r0, r7
 369 013c FFF7FEFF 		bl	attitude_ref_quat_int_set_omega_p
 370 0140 7B6B     		ldr	r3, [r7, #52]	@ float
 371 0142 0493     		str	r3, [sp, #16]	@ float
 372 0144 BDE7     		b	.L18
 373              	.L26:
 374 0146 07EE900A 		vmov	s15, r0
 375 014a 974B     		ldr	r3, .L94+8
 376 014c FDEEE77A 		vcvt.s32.f32	s15, s15
 377 0150 C3ED087A 		vstr.32	s15, [r3, #32]	@ int
 378 0154 B5E7     		b	.L18
 379              	.L27:
 380 0156 07EE900A 		vmov	s15, r0
 381 015a 934B     		ldr	r3, .L94+8
 382 015c FDEEE77A 		vcvt.s32.f32	s15, s15
 383 0160 C3ED0B7A 		vstr.32	s15, [r3, #44]	@ int
 384 0164 ADE7     		b	.L18
 385              	.L28:
 386 0166 07EE900A 		vmov	s15, r0
 387 016a 8F4B     		ldr	r3, .L94+8
 388 016c FDEEE77A 		vcvt.s32.f32	s15, s15
 389 0170 C3ED057A 		vstr.32	s15, [r3, #20]	@ int
 390 0174 A5E7     		b	.L18
 391              	.L29:
 392 0176 07EE900A 		vmov	s15, r0
 393 017a 8B4B     		ldr	r3, .L94+8
 394 017c FDEEE77A 		vcvt.s32.f32	s15, s15
 395 0180 C3ED027A 		vstr.32	s15, [r3, #8]	@ int
 396 0184 9DE7     		b	.L18
 397              	.L30:
ARM GAS  /tmp/ccqqT7mb.s 			page 8


 398 0186 07EE900A 		vmov	s15, r0
 399 018a 874B     		ldr	r3, .L94+8
 400 018c FDEEE77A 		vcvt.s32.f32	s15, s15
 401 0190 C3ED077A 		vstr.32	s15, [r3, #28]	@ int
 402 0194 95E7     		b	.L18
 403              	.L31:
 404 0196 07EE900A 		vmov	s15, r0
 405 019a 834B     		ldr	r3, .L94+8
 406 019c FDEEE77A 		vcvt.s32.f32	s15, s15
 407 01a0 C3ED0A7A 		vstr.32	s15, [r3, #40]	@ int
 408 01a4 8DE7     		b	.L18
 409              	.L32:
 410 01a6 07EE900A 		vmov	s15, r0
 411 01aa 7F4B     		ldr	r3, .L94+8
 412 01ac FDEEE77A 		vcvt.s32.f32	s15, s15
 413 01b0 C3ED047A 		vstr.32	s15, [r3, #16]	@ int
 414 01b4 85E7     		b	.L18
 415              	.L33:
 416 01b6 07EE900A 		vmov	s15, r0
 417 01ba 7B4B     		ldr	r3, .L94+8
 418 01bc FDEEE77A 		vcvt.s32.f32	s15, s15
 419 01c0 C3ED017A 		vstr.32	s15, [r3, #4]	@ int
 420 01c4 7DE7     		b	.L18
 421              	.L34:
 422 01c6 07EE900A 		vmov	s15, r0
 423 01ca 774B     		ldr	r3, .L94+8
 424 01cc FDEEE77A 		vcvt.s32.f32	s15, s15
 425 01d0 C3ED067A 		vstr.32	s15, [r3, #24]	@ int
 426 01d4 75E7     		b	.L18
 427              	.L35:
 428 01d6 07EE900A 		vmov	s15, r0
 429 01da 734B     		ldr	r3, .L94+8
 430 01dc FDEEE77A 		vcvt.s32.f32	s15, s15
 431 01e0 C3ED097A 		vstr.32	s15, [r3, #36]	@ int
 432 01e4 6DE7     		b	.L18
 433              	.L36:
 434 01e6 07EE900A 		vmov	s15, r0
 435 01ea 6F4B     		ldr	r3, .L94+8
 436 01ec FDEEE77A 		vcvt.s32.f32	s15, s15
 437 01f0 C3ED037A 		vstr.32	s15, [r3, #12]	@ int
 438 01f4 65E7     		b	.L18
 439              	.L37:
 440 01f6 07EE900A 		vmov	s15, r0
 441 01fa 6B4B     		ldr	r3, .L94+8
 442 01fc FDEEE77A 		vcvt.s32.f32	s15, s15
 443 0200 C3ED007A 		vstr.32	s15, [r3]	@ int
 444 0204 5DE7     		b	.L18
 445              	.L38:
 446 0206 694B     		ldr	r3, .L94+12
 447 0208 C3F89000 		str	r0, [r3, #144]	@ float
 448 020c 59E7     		b	.L18
 449              	.L39:
 450 020e 674B     		ldr	r3, .L94+12
 451 0210 C3F88C00 		str	r0, [r3, #140]	@ float
 452 0214 55E7     		b	.L18
 453              	.L40:
 454 0216 654B     		ldr	r3, .L94+12
ARM GAS  /tmp/ccqqT7mb.s 			page 9


 455 0218 C3F88800 		str	r0, [r3, #136]	@ float
 456 021c 51E7     		b	.L18
 457              	.L41:
 458 021e 634B     		ldr	r3, .L94+12
 459 0220 C3F88400 		str	r0, [r3, #132]	@ float
 460 0224 4DE7     		b	.L18
 461              	.L42:
 462 0226 07EE900A 		vmov	s15, r0
 463 022a F5EE407A 		vcmp.f32	s15, #0
 464 022e F1EE10FA 		vmrs	APSR_nzcv, FPSCR
 465 0232 5F4B     		ldr	r3, .L94+16
 466 0234 14BF     		ite	ne
 467 0236 0122     		movne	r2, #1
 468 0238 0022     		moveq	r2, #0
 469 023a 83F83420 		strb	r2, [r3, #52]
 470 023e 40E7     		b	.L18
 471              	.L43:
 472 0240 07EE900A 		vmov	s15, r0
 473 0244 F5EE407A 		vcmp.f32	s15, #0
 474 0248 F1EE10FA 		vmrs	APSR_nzcv, FPSCR
 475 024c 594B     		ldr	r3, .L94+20
 476 024e 14BF     		ite	ne
 477 0250 0122     		movne	r2, #1
 478 0252 0022     		moveq	r2, #0
 479 0254 83F82D20 		strb	r2, [r3, #45]
 480 0258 33E7     		b	.L18
 481              	.L44:
 482 025a 07EE900A 		vmov	s15, r0
 483 025e FCEEE77A 		vcvt.u32.f32	s15, s15
 484 0262 17EE900A 		vmov	r0, s15	@ int
 485 0266 FFF7FEFF 		bl	guidance_pid_set_v_igain
 486 026a 524B     		ldr	r3, .L94+20
 487 026c D3ED077A 		vldr.32	s15, [r3, #28]	@ int
 488 0270 F8EEE77A 		vcvt.f32.s32	s15, s15
 489 0274 CDED047A 		vstr.32	s15, [sp, #16]
 490 0278 23E7     		b	.L18
 491              	.L45:
 492 027a 07EE900A 		vmov	s15, r0
 493 027e 4D4B     		ldr	r3, .L94+20
 494 0280 FDEEE77A 		vcvt.s32.f32	s15, s15
 495 0284 C3ED067A 		vstr.32	s15, [r3, #24]	@ int
 496 0288 1BE7     		b	.L18
 497              	.L46:
 498 028a 07EE900A 		vmov	s15, r0
 499 028e 494B     		ldr	r3, .L94+20
 500 0290 FDEEE77A 		vcvt.s32.f32	s15, s15
 501 0294 C3ED057A 		vstr.32	s15, [r3, #20]	@ int
 502 0298 13E7     		b	.L18
 503              	.L47:
 504 029a 07EE900A 		vmov	s15, r0
 505 029e 454B     		ldr	r3, .L94+20
 506 02a0 FDEEE77A 		vcvt.s32.f32	s15, s15
 507 02a4 C3ED047A 		vstr.32	s15, [r3, #16]	@ int
 508 02a8 0BE7     		b	.L18
 509              	.L48:
 510 02aa 07EE900A 		vmov	s15, r0
 511 02ae 414B     		ldr	r3, .L94+20
ARM GAS  /tmp/ccqqT7mb.s 			page 10


 512 02b0 FDEEE77A 		vcvt.s32.f32	s15, s15
 513 02b4 C3ED037A 		vstr.32	s15, [r3, #12]	@ int
 514 02b8 03E7     		b	.L18
 515              	.L49:
 516 02ba 07EE900A 		vmov	s15, r0
 517 02be FCEEE77A 		vcvt.u32.f32	s15, s15
 518 02c2 17EE900A 		vmov	r0, s15	@ int
 519 02c6 FFF7FEFF 		bl	guidance_pid_set_h_igain
 520 02ca 3A4B     		ldr	r3, .L94+20
 521 02cc D3ED027A 		vldr.32	s15, [r3, #8]	@ int
 522 02d0 F8EEE77A 		vcvt.f32.s32	s15, s15
 523 02d4 CDED047A 		vstr.32	s15, [sp, #16]
 524 02d8 F3E6     		b	.L18
 525              	.L50:
 526 02da 07EE900A 		vmov	s15, r0
 527 02de 354B     		ldr	r3, .L94+20
 528 02e0 FDEEE77A 		vcvt.s32.f32	s15, s15
 529 02e4 C3ED017A 		vstr.32	s15, [r3, #4]	@ int
 530 02e8 EBE6     		b	.L18
 531              	.L51:
 532 02ea 07EE900A 		vmov	s15, r0
 533 02ee 314B     		ldr	r3, .L94+20
 534 02f0 FDEEE77A 		vcvt.s32.f32	s15, s15
 535 02f4 C3ED007A 		vstr.32	s15, [r3]	@ int
 536 02f8 E3E6     		b	.L18
 537              	.L52:
 538 02fa 07EE900A 		vmov	s15, r0
 539 02fe F5EE407A 		vcmp.f32	s15, #0
 540 0302 F1EE10FA 		vmrs	APSR_nzcv, FPSCR
 541 0306 2B4B     		ldr	r3, .L94+20
 542 0308 14BF     		ite	ne
 543 030a 0122     		movne	r2, #1
 544 030c 0022     		moveq	r2, #0
 545 030e 83F82C20 		strb	r2, [r3, #44]
 546 0312 D6E6     		b	.L18
 547              	.L53:
 548 0314 07EE900A 		vmov	s15, r0
 549 0318 274B     		ldr	r3, .L94+24
 550 031a FDEEE77A 		vcvt.s32.f32	s15, s15
 551 031e C3ED017A 		vstr.32	s15, [r3, #4]	@ int
 552 0322 CEE6     		b	.L18
 553              	.L54:
 554 0324 244B     		ldr	r3, .L94+24
 555 0326 9862     		str	r0, [r3, #40]	@ float
 556 0328 CBE6     		b	.L18
 557              	.L55:
 558 032a 07EE900A 		vmov	s15, r0
 559 032e 234B     		ldr	r3, .L94+28
 560 0330 FDEEE77A 		vcvt.s32.f32	s15, s15
 561 0334 C3ED027A 		vstr.32	s15, [r3, #8]	@ int
 562 0338 C3E6     		b	.L18
 563              	.L56:
 564 033a 07EE900A 		vmov	s15, r0
 565 033e 1F4B     		ldr	r3, .L94+28
 566 0340 FDEEE77A 		vcvt.s32.f32	s15, s15
 567 0344 C3ED017A 		vstr.32	s15, [r3, #4]	@ int
 568 0348 BBE6     		b	.L18
ARM GAS  /tmp/ccqqT7mb.s 			page 11


 569              	.L57:
 570 034a FFF7FEFF 		bl	gh_set_zeta
 571 034e 1C4B     		ldr	r3, .L94+32
 572 0350 9B6A     		ldr	r3, [r3, #40]	@ float
 573 0352 0493     		str	r3, [sp, #16]	@ float
 574 0354 B5E6     		b	.L18
 575              	.L58:
 576 0356 FFF7FEFF 		bl	gh_set_omega
 577 035a 194B     		ldr	r3, .L94+32
 578 035c 5B6A     		ldr	r3, [r3, #36]	@ float
 579 035e 0493     		str	r3, [sp, #16]	@ float
 580 0360 AFE6     		b	.L18
 581              	.L59:
 582 0362 FFF7FEFF 		bl	gh_set_tau
 583 0366 164B     		ldr	r3, .L94+32
 584 0368 1B6A     		ldr	r3, [r3, #32]	@ float
 585 036a 0493     		str	r3, [sp, #16]	@ float
 586 036c A9E6     		b	.L18
 587              	.L60:
 588 036e FFF7FEFF 		bl	gh_set_max_speed
 589 0372 134B     		ldr	r3, .L94+32
 590 0374 DB6A     		ldr	r3, [r3, #44]	@ float
 591 0376 0493     		str	r3, [sp, #16]	@ float
 592 0378 A3E6     		b	.L18
 593              	.L61:
 594 037a 07EE900A 		vmov	s15, r0
 595 037e F5EE407A 		vcmp.f32	s15, #0
 596 0382 F1EE10FA 		vmrs	APSR_nzcv, FPSCR
 597 0386 14BF     		ite	ne
 598 0388 0123     		movne	r3, #1
 599 038a 0023     		moveq	r3, #0
 600 038c 07EE903A 		vmov	s15, r3	@ int
 601 0390 0A4A     		ldr	r2, .L94+28
 602 0392 F8EE677A 		vcvt.f32.u32	s15, s15
 603 0396 5370     		strb	r3, [r2, #1]
 604 0398 CDED047A 		vstr.32	s15, [sp, #16]
 605 039c 91E6     		b	.L18
 606              	.L95:
 607 039e 00BF     		.align	2
 608              	.L94:
 609 03a0 00000000 		.word	telemetry_mode_Main
 610 03a4 00000000 		.word	att_ref_quat_i
 611 03a8 00000000 		.word	stabilization_gains
 612 03ac 00000000 		.word	vff
 613 03b0 00000000 		.word	ahrs_madgwick
 614 03b4 00000000 		.word	guidance_pid
 615 03b8 00000000 		.word	guidance_v
 616 03bc 00000000 		.word	guidance_h
 617 03c0 00000000 		.word	gh_ref
 618              	.L62:
 619 03c4 07EE900A 		vmov	s15, r0
 620 03c8 FCEEE77A 		vcvt.u32.f32	s15, s15
 621 03cc 6C4B     		ldr	r3, .L96
 622 03ce 17EE900A 		vmov	r0, s15	@ int
 623 03d2 83F80A09 		strb	r0, [r3, #2314]
 624 03d6 74E6     		b	.L18
 625              	.L63:
ARM GAS  /tmp/ccqqT7mb.s 			page 12


 626 03d8 07EE900A 		vmov	s15, r0
 627 03dc FCEEE77A 		vcvt.u32.f32	s15, s15
 628 03e0 674B     		ldr	r3, .L96
 629 03e2 17EE900A 		vmov	r0, s15	@ int
 630 03e6 83F80909 		strb	r0, [r3, #2313]
 631 03ea 6AE6     		b	.L18
 632              	.L64:
 633 03ec 07EE900A 		vmov	s15, r0
 634 03f0 FCEEE77A 		vcvt.u32.f32	s15, s15
 635 03f4 624B     		ldr	r3, .L96
 636 03f6 17EE900A 		vmov	r0, s15	@ int
 637 03fa 83F80809 		strb	r0, [r3, #2312]
 638 03fe 60E6     		b	.L18
 639              	.L65:
 640 0400 FFF7FEFF 		bl	imu_SetBodyToImuCurrent
 641 0404 5E4B     		ldr	r3, .L96
 642 0406 93F80B39 		ldrb	r3, [r3, #2315]	@ zero_extendqisi2
 643 040a 07EE903A 		vmov	s15, r3	@ int
 644 040e F8EE677A 		vcvt.f32.u32	s15, s15
 645 0412 CDED047A 		vstr.32	s15, [sp, #16]
 646 0416 54E6     		b	.L18
 647              	.L66:
 648 0418 FFF7FEFF 		bl	imu_SetBodyToImuPsi
 649 041c 594B     		ldr	r3, .L96+4
 650 041e 1B68     		ldr	r3, [r3]	@ float
 651 0420 0493     		str	r3, [sp, #16]	@ float
 652 0422 4EE6     		b	.L18
 653              	.L67:
 654 0424 FFF7FEFF 		bl	imu_SetBodyToImuTheta
 655 0428 574B     		ldr	r3, .L96+8
 656 042a 1B68     		ldr	r3, [r3]	@ float
 657 042c 0493     		str	r3, [sp, #16]	@ float
 658 042e 48E6     		b	.L18
 659              	.L68:
 660 0430 FFF7FEFF 		bl	imu_SetBodyToImuPhi
 661 0434 554B     		ldr	r3, .L96+12
 662 0436 1B68     		ldr	r3, [r3]	@ float
 663 0438 0493     		str	r3, [sp, #16]	@ float
 664 043a 42E6     		b	.L18
 665              	.L69:
 666 043c FFF7FEFF 		bl	electrical_avg_reset
 667 0440 3FE6     		b	.L18
 668              	.L70:
 669 0442 07EE900A 		vmov	s15, r0
 670 0446 F5EE407A 		vcmp.f32	s15, #0
 671 044a F1EE10FA 		vmrs	APSR_nzcv, FPSCR
 672 044e 504B     		ldr	r3, .L96+16
 673 0450 14BF     		ite	ne
 674 0452 0122     		movne	r2, #1
 675 0454 0022     		moveq	r2, #0
 676 0456 83F82320 		strb	r2, [r3, #35]
 677 045a 32E6     		b	.L18
 678              	.L71:
 679 045c 07EE900A 		vmov	s15, r0
 680 0460 F5EE407A 		vcmp.f32	s15, #0
 681 0464 F1EE10FA 		vmrs	APSR_nzcv, FPSCR
 682 0468 494B     		ldr	r3, .L96+16
ARM GAS  /tmp/ccqqT7mb.s 			page 13


 683 046a 14BF     		ite	ne
 684 046c 0122     		movne	r2, #1
 685 046e 0022     		moveq	r2, #0
 686 0470 83F82420 		strb	r2, [r3, #36]
 687 0474 25E6     		b	.L18
 688              	.L72:
 689 0476 07EE900A 		vmov	s15, r0
 690 047a F5EE407A 		vcmp.f32	s15, #0
 691 047e F1EE10FA 		vmrs	APSR_nzcv, FPSCR
 692 0482 434B     		ldr	r3, .L96+16
 693 0484 14BF     		ite	ne
 694 0486 0122     		movne	r2, #1
 695 0488 0022     		moveq	r2, #0
 696 048a 83F82120 		strb	r2, [r3, #33]
 697 048e 18E6     		b	.L18
 698              	.L73:
 699 0490 07EE900A 		vmov	s15, r0
 700 0494 F5EE407A 		vcmp.f32	s15, #0
 701 0498 F1EE10FA 		vmrs	APSR_nzcv, FPSCR
 702 049c 3C4B     		ldr	r3, .L96+16
 703 049e 14BF     		ite	ne
 704 04a0 0122     		movne	r2, #1
 705 04a2 0022     		moveq	r2, #0
 706 04a4 83F82220 		strb	r2, [r3, #34]
 707 04a8 0BE6     		b	.L18
 708              	.L74:
 709 04aa 394B     		ldr	r3, .L96+16
 710 04ac 5861     		str	r0, [r3, #20]	@ float
 711 04ae 08E6     		b	.L18
 712              	.L75:
 713 04b0 374B     		ldr	r3, .L96+16
 714 04b2 9861     		str	r0, [r3, #24]	@ float
 715 04b4 05E6     		b	.L18
 716              	.L76:
 717 04b6 07EE900A 		vmov	s15, r0
 718 04ba FCEEE77A 		vcvt.u32.f32	s15, s15
 719 04be 354B     		ldr	r3, .L96+20
 720 04c0 17EE900A 		vmov	r0, s15	@ int
 721 04c4 1870     		strb	r0, [r3]
 722 04c6 FCE5     		b	.L18
 723              	.L77:
 724 04c8 334B     		ldr	r3, .L96+24
 725 04ca C3F88000 		str	r0, [r3, #128]	@ float
 726 04ce F8E5     		b	.L18
 727              	.L78:
 728 04d0 314B     		ldr	r3, .L96+24
 729 04d2 D867     		str	r0, [r3, #124]	@ float
 730 04d4 F5E5     		b	.L18
 731              	.L79:
 732 04d6 304B     		ldr	r3, .L96+24
 733 04d8 1866     		str	r0, [r3, #96]	@ float
 734 04da F2E5     		b	.L18
 735              	.L80:
 736 04dc 2E4B     		ldr	r3, .L96+24
 737 04de 1864     		str	r0, [r3, #64]	@ float
 738 04e0 EFE5     		b	.L18
 739              	.L81:
ARM GAS  /tmp/ccqqT7mb.s 			page 14


 740 04e2 2E4A     		ldr	r2, .L96+28
 741 04e4 2E4B     		ldr	r3, .L96+32
 742 04e6 D2ED387A 		vldr.32	s15, [r2, #224]
 743 04ea 1860     		str	r0, [r3]	@ float
 744 04ec 07EE100A 		vmov	s14, r0
 745 04f0 294B     		ldr	r3, .L96+24
 746 04f2 77EE677A 		vsub.f32	s15, s14, s15
 747 04f6 C3ED1B7A 		vstr.32	s15, [r3, #108]
 748 04fa E2E5     		b	.L18
 749              	.L82:
 750 04fc 07EE900A 		vmov	s15, r0
 751 0500 FCEEE77A 		vcvt.u32.f32	s15, s15
 752 0504 CDED017A 		vstr.32	s15, [sp, #4]	@ int
 753 0508 9DF80400 		ldrb	r0, [sp, #4]	@ zero_extendqisi2
 754 050c FFF7FEFF 		bl	mcu_reboot
 755 0510 D7E5     		b	.L18
 756              	.L83:
 757 0512 FFF7FEFF 		bl	autopilot_SetModeHandler
 758 0516 234B     		ldr	r3, .L96+36
 759 0518 1B78     		ldrb	r3, [r3]	@ zero_extendqisi2
 760 051a 07EE903A 		vmov	s15, r3	@ int
 761 051e F8EE677A 		vcvt.f32.u32	s15, s15
 762 0522 CDED047A 		vstr.32	s15, [sp, #16]
 763 0526 CCE5     		b	.L18
 764              	.L84:
 765 0528 07EE900A 		vmov	s15, r0
 766 052c F5EE407A 		vcmp.f32	s15, #0
 767 0530 F1EE10FA 		vmrs	APSR_nzcv, FPSCR
 768 0534 14BF     		ite	ne
 769 0536 0120     		movne	r0, #1
 770 0538 0020     		moveq	r0, #0
 771 053a FFF7FEFF 		bl	autopilot_set_kill_throttle
 772 053e 194B     		ldr	r3, .L96+36
 773 0540 1B7A     		ldrb	r3, [r3, #8]	@ zero_extendqisi2
 774 0542 07EE903A 		vmov	s15, r3	@ int
 775 0546 F8EE677A 		vcvt.f32.u32	s15, s15
 776 054a CDED047A 		vstr.32	s15, [sp, #16]
 777 054e B8E5     		b	.L18
 778              	.L85:
 779 0550 07EE900A 		vmov	s15, r0
 780 0554 FCEEE77A 		vcvt.u32.f32	s15, s15
 781 0558 134B     		ldr	r3, .L96+40
 782 055a 17EE900A 		vmov	r0, s15	@ int
 783 055e 1870     		strb	r0, [r3]
 784 0560 AFE5     		b	.L18
 785              	.L86:
 786 0562 07EE900A 		vmov	s15, r0
 787 0566 FCEEE77A 		vcvt.u32.f32	s15, s15
 788 056a 104B     		ldr	r3, .L96+44
 789 056c 17EE900A 		vmov	r0, s15	@ int
 790 0570 1870     		strb	r0, [r3]
 791 0572 A6E5     		b	.L18
 792              	.L87:
 793 0574 0E4B     		ldr	r3, .L96+48
 794 0576 1860     		str	r0, [r3]	@ float
 795 0578 A3E5     		b	.L18
 796              	.L88:
ARM GAS  /tmp/ccqqT7mb.s 			page 15


 797 057a 0E4B     		ldr	r3, .L96+52
 798 057c 1860     		str	r0, [r3]	@ float
 799 057e A0E5     		b	.L18
 800              	.L97:
 801              		.align	2
 802              	.L96:
 803 0580 00000000 		.word	imu
 804 0584 E0080000 		.word	imu+2272
 805 0588 DC080000 		.word	imu+2268
 806 058c D8080000 		.word	imu+2264
 807 0590 00000000 		.word	air_data
 808 0594 00000000 		.word	multi_gps_mode
 809 0598 00000000 		.word	nav
 810 059c 00000000 		.word	state
 811 05a0 00000000 		.word	flight_altitude
 812 05a4 00000000 		.word	autopilot
 813 05a8 00000000 		.word	autopilot_mode_auto2
 814 05ac 00000000 		.word	gps_datalink_gps_datalink_periodic_check_status
 815 05b0 00000000 		.word	desired_heading
 816 05b4 00000000 		.word	nominal_alt
 817              		.size	settings_parse_msg_SETTING, .-settings_parse_msg_SETTING
 818              		.section	.text.settings_parse_msg_GET_SETTING,"ax",%progbits
 819              		.align	1
 820              		.p2align 4,,15
 821              		.global	settings_parse_msg_GET_SETTING
 822              		.syntax unified
 823              		.thumb
 824              		.thumb_func
 825              		.fpu fpv4-sp-d16
 826              		.type	settings_parse_msg_GET_SETTING, %function
 827              	settings_parse_msg_GET_SETTING:
 828              		@ args = 0, pretend = 0, frame = 24
 829              		@ frame_needed = 0, uses_anonymous_args = 0
 830 0000 5379     		ldrb	r3, [r2, #5]	@ zero_extendqisi2
 831 0002 1F2B     		cmp	r3, #31
 832 0004 00D0     		beq	.L176
 833 0006 7047     		bx	lr
 834              	.L176:
 835 0008 00B5     		push	{lr}
 836 000a 1379     		ldrb	r3, [r2, #4]	@ zero_extendqisi2
 837 000c 92F800C0 		ldrb	ip, [r2]	@ zero_extendqisi2
 838 0010 87B0     		sub	sp, sp, #28
 839 0012 8DF80730 		strb	r3, [sp, #7]
 840 0016 452B     		cmp	r3, #69
 841 0018 60D8     		bhi	.L171
 842 001a DFE813F0 		tbh	[pc, r3, lsl #1]
 843              	.L103:
 844 001e 6200     		.2byte	(.L170-.L103)/2
 845 0020 6900     		.2byte	(.L169-.L103)/2
 846 0022 6D00     		.2byte	(.L168-.L103)/2
 847 0024 7100     		.2byte	(.L167-.L103)/2
 848 0026 7800     		.2byte	(.L166-.L103)/2
 849 0028 7F00     		.2byte	(.L165-.L103)/2
 850 002a 8600     		.2byte	(.L164-.L103)/2
 851 002c 5F00     		.2byte	(.L171-.L103)/2
 852 002e 8D00     		.2byte	(.L163-.L103)/2
 853 0030 9100     		.2byte	(.L162-.L103)/2
ARM GAS  /tmp/ccqqT7mb.s 			page 16


 854 0032 9500     		.2byte	(.L161-.L103)/2
 855 0034 9900     		.2byte	(.L160-.L103)/2
 856 0036 9D00     		.2byte	(.L159-.L103)/2
 857 0038 A100     		.2byte	(.L158-.L103)/2
 858 003a A800     		.2byte	(.L157-.L103)/2
 859 003c AC00     		.2byte	(.L156-.L103)/2
 860 003e B000     		.2byte	(.L155-.L103)/2
 861 0040 B800     		.2byte	(.L154-.L103)/2
 862 0042 C000     		.2byte	(.L153-.L103)/2
 863 0044 C800     		.2byte	(.L152-.L103)/2
 864 0046 5F00     		.2byte	(.L171-.L103)/2
 865 0048 D000     		.2byte	(.L151-.L103)/2
 866 004a D400     		.2byte	(.L150-.L103)/2
 867 004c D800     		.2byte	(.L149-.L103)/2
 868 004e DC00     		.2byte	(.L148-.L103)/2
 869 0050 E400     		.2byte	(.L147-.L103)/2
 870 0052 EC00     		.2byte	(.L146-.L103)/2
 871 0054 F400     		.2byte	(.L145-.L103)/2
 872 0056 FC00     		.2byte	(.L144-.L103)/2
 873 0058 0301     		.2byte	(.L143-.L103)/2
 874 005a 0701     		.2byte	(.L142-.L103)/2
 875 005c 0B01     		.2byte	(.L141-.L103)/2
 876 005e 0F01     		.2byte	(.L140-.L103)/2
 877 0060 1301     		.2byte	(.L139-.L103)/2
 878 0062 1901     		.2byte	(.L138-.L103)/2
 879 0064 1F01     		.2byte	(.L137-.L103)/2
 880 0066 2301     		.2byte	(.L136-.L103)/2
 881 0068 2901     		.2byte	(.L135-.L103)/2
 882 006a 3101     		.2byte	(.L134-.L103)/2
 883 006c 3701     		.2byte	(.L133-.L103)/2
 884 006e 3D01     		.2byte	(.L132-.L103)/2
 885 0070 4301     		.2byte	(.L131-.L103)/2
 886 0072 4901     		.2byte	(.L130-.L103)/2
 887 0074 4F01     		.2byte	(.L129-.L103)/2
 888 0076 5501     		.2byte	(.L128-.L103)/2
 889 0078 5B01     		.2byte	(.L127-.L103)/2
 890 007a 6101     		.2byte	(.L126-.L103)/2
 891 007c 6901     		.2byte	(.L125-.L103)/2
 892 007e 7101     		.2byte	(.L124-.L103)/2
 893 0080 7501     		.2byte	(.L123-.L103)/2
 894 0082 7901     		.2byte	(.L122-.L103)/2
 895 0084 7D01     		.2byte	(.L121-.L103)/2
 896 0086 8101     		.2byte	(.L120-.L103)/2
 897 0088 8701     		.2byte	(.L119-.L103)/2
 898 008a 8D01     		.2byte	(.L118-.L103)/2
 899 008c 9301     		.2byte	(.L117-.L103)/2
 900 008e 9901     		.2byte	(.L116-.L103)/2
 901 0090 9F01     		.2byte	(.L115-.L103)/2
 902 0092 A501     		.2byte	(.L114-.L103)/2
 903 0094 AB01     		.2byte	(.L113-.L103)/2
 904 0096 B101     		.2byte	(.L112-.L103)/2
 905 0098 E501     		.2byte	(.L111-.L103)/2
 906 009a EB01     		.2byte	(.L110-.L103)/2
 907 009c F101     		.2byte	(.L109-.L103)/2
 908 009e F701     		.2byte	(.L108-.L103)/2
 909 00a0 FB01     		.2byte	(.L107-.L103)/2
 910 00a2 FF01     		.2byte	(.L106-.L103)/2
ARM GAS  /tmp/ccqqT7mb.s 			page 17


 911 00a4 0302     		.2byte	(.L105-.L103)/2
 912 00a6 0702     		.2byte	(.L104-.L103)/2
 913 00a8 4600     		.2byte	(.L102-.L103)/2
 914              		.p2align 1
 915              	.L102:
 916 00aa B84B     		ldr	r3, .L177
 917 00ac D3ED127A 		vldr.32	s15, [r3, #72]
 918              	.L101:
 919 00b0 0491     		str	r1, [sp, #16]
 920 00b2 4FF01F0E 		mov	lr, #31
 921 00b6 0023     		movs	r3, #0
 922 00b8 0590     		str	r0, [sp, #20]
 923 00ba 02AA     		add	r2, sp, #8
 924 00bc 0DF10701 		add	r1, sp, #7
 925 00c0 03A8     		add	r0, sp, #12
 926 00c2 CDED027A 		vstr.32	s15, [sp, #8]
 927 00c6 8DF80CE0 		strb	lr, [sp, #12]
 928 00ca 8DF80DC0 		strb	ip, [sp, #13]
 929 00ce 8DF80E30 		strb	r3, [sp, #14]
 930 00d2 FFF7FEFF 		bl	pprzlink_msg_v2_send_DL_VALUE.constprop.0
 931 00d6 07B0     		add	sp, sp, #28
 932              		@ sp needed
 933 00d8 5DF804FB 		ldr	pc, [sp], #4
 934              	.L171:
 935 00dc DFEDAC7A 		vldr.32	s15, .L177+4
 936 00e0 E6E7     		b	.L101
 937              	.L170:
 938 00e2 AC4B     		ldr	r3, .L177+8
 939 00e4 1B78     		ldrb	r3, [r3]	@ zero_extendqisi2
 940 00e6 07EE903A 		vmov	s15, r3	@ int
 941 00ea F8EE677A 		vcvt.f32.u32	s15, s15
 942 00ee DFE7     		b	.L101
 943              	.L169:
 944 00f0 A94B     		ldr	r3, .L177+12
 945 00f2 D3ED007A 		vldr.32	s15, [r3]
 946 00f6 DBE7     		b	.L101
 947              	.L168:
 948 00f8 A84B     		ldr	r3, .L177+16
 949 00fa D3ED007A 		vldr.32	s15, [r3]
 950 00fe D7E7     		b	.L101
 951              	.L167:
 952 0100 A74B     		ldr	r3, .L177+20
 953 0102 1B78     		ldrb	r3, [r3]	@ zero_extendqisi2
 954 0104 07EE903A 		vmov	s15, r3	@ int
 955 0108 F8EE677A 		vcvt.f32.u32	s15, s15
 956 010c D0E7     		b	.L101
 957              	.L166:
 958 010e A54B     		ldr	r3, .L177+24
 959 0110 1B78     		ldrb	r3, [r3]	@ zero_extendqisi2
 960 0112 07EE903A 		vmov	s15, r3	@ int
 961 0116 F8EE677A 		vcvt.f32.u32	s15, s15
 962 011a C9E7     		b	.L101
 963              	.L165:
 964 011c A24B     		ldr	r3, .L177+28
 965 011e 1B7A     		ldrb	r3, [r3, #8]	@ zero_extendqisi2
 966 0120 07EE903A 		vmov	s15, r3	@ int
 967 0124 F8EE677A 		vcvt.f32.u32	s15, s15
ARM GAS  /tmp/ccqqT7mb.s 			page 18


 968 0128 C2E7     		b	.L101
 969              	.L164:
 970 012a 9F4B     		ldr	r3, .L177+28
 971 012c 1B78     		ldrb	r3, [r3]	@ zero_extendqisi2
 972 012e 07EE903A 		vmov	s15, r3	@ int
 973 0132 F8EE677A 		vcvt.f32.u32	s15, s15
 974 0136 BBE7     		b	.L101
 975              	.L163:
 976 0138 9C4B     		ldr	r3, .L177+32
 977 013a D3ED007A 		vldr.32	s15, [r3]
 978 013e B7E7     		b	.L101
 979              	.L162:
 980 0140 9B4B     		ldr	r3, .L177+36
 981 0142 D3ED107A 		vldr.32	s15, [r3, #64]
 982 0146 B3E7     		b	.L101
 983              	.L161:
 984 0148 994B     		ldr	r3, .L177+36
 985 014a D3ED187A 		vldr.32	s15, [r3, #96]
 986 014e AFE7     		b	.L101
 987              	.L160:
 988 0150 974B     		ldr	r3, .L177+36
 989 0152 D3ED1F7A 		vldr.32	s15, [r3, #124]
 990 0156 ABE7     		b	.L101
 991              	.L159:
 992 0158 954B     		ldr	r3, .L177+36
 993 015a D3ED207A 		vldr.32	s15, [r3, #128]
 994 015e A7E7     		b	.L101
 995              	.L158:
 996 0160 944B     		ldr	r3, .L177+40
 997 0162 1B78     		ldrb	r3, [r3]	@ zero_extendqisi2
 998 0164 07EE903A 		vmov	s15, r3	@ int
 999 0168 F8EE677A 		vcvt.f32.u32	s15, s15
 1000 016c A0E7     		b	.L101
 1001              	.L157:
 1002 016e 924B     		ldr	r3, .L177+44
 1003 0170 D3ED067A 		vldr.32	s15, [r3, #24]
 1004 0174 9CE7     		b	.L101
 1005              	.L156:
 1006 0176 904B     		ldr	r3, .L177+44
 1007 0178 D3ED057A 		vldr.32	s15, [r3, #20]
 1008 017c 98E7     		b	.L101
 1009              	.L155:
 1010 017e 8E4B     		ldr	r3, .L177+44
 1011 0180 93F82230 		ldrb	r3, [r3, #34]	@ zero_extendqisi2
 1012 0184 07EE903A 		vmov	s15, r3	@ int
 1013 0188 F8EE677A 		vcvt.f32.u32	s15, s15
 1014 018c 90E7     		b	.L101
 1015              	.L154:
 1016 018e 8A4B     		ldr	r3, .L177+44
 1017 0190 93F82130 		ldrb	r3, [r3, #33]	@ zero_extendqisi2
 1018 0194 07EE903A 		vmov	s15, r3	@ int
 1019 0198 F8EE677A 		vcvt.f32.u32	s15, s15
 1020 019c 88E7     		b	.L101
 1021              	.L153:
 1022 019e 864B     		ldr	r3, .L177+44
 1023 01a0 93F82430 		ldrb	r3, [r3, #36]	@ zero_extendqisi2
 1024 01a4 07EE903A 		vmov	s15, r3	@ int
ARM GAS  /tmp/ccqqT7mb.s 			page 19


 1025 01a8 F8EE677A 		vcvt.f32.u32	s15, s15
 1026 01ac 80E7     		b	.L101
 1027              	.L152:
 1028 01ae 824B     		ldr	r3, .L177+44
 1029 01b0 93F82330 		ldrb	r3, [r3, #35]	@ zero_extendqisi2
 1030 01b4 07EE903A 		vmov	s15, r3	@ int
 1031 01b8 F8EE677A 		vcvt.f32.u32	s15, s15
 1032 01bc 78E7     		b	.L101
 1033              	.L151:
 1034 01be 7F4B     		ldr	r3, .L177+48
 1035 01c0 D3ED007A 		vldr.32	s15, [r3]
 1036 01c4 74E7     		b	.L101
 1037              	.L150:
 1038 01c6 7E4B     		ldr	r3, .L177+52
 1039 01c8 D3ED007A 		vldr.32	s15, [r3]
 1040 01cc 70E7     		b	.L101
 1041              	.L149:
 1042 01ce 7D4B     		ldr	r3, .L177+56
 1043 01d0 D3ED007A 		vldr.32	s15, [r3]
 1044 01d4 6CE7     		b	.L101
 1045              	.L148:
 1046 01d6 7C4B     		ldr	r3, .L177+60
 1047 01d8 93F80B39 		ldrb	r3, [r3, #2315]	@ zero_extendqisi2
 1048 01dc 07EE903A 		vmov	s15, r3	@ int
 1049 01e0 F8EE677A 		vcvt.f32.u32	s15, s15
 1050 01e4 64E7     		b	.L101
 1051              	.L147:
 1052 01e6 784B     		ldr	r3, .L177+60
 1053 01e8 93F80839 		ldrb	r3, [r3, #2312]	@ zero_extendqisi2
 1054 01ec 07EE903A 		vmov	s15, r3	@ int
 1055 01f0 F8EE677A 		vcvt.f32.u32	s15, s15
 1056 01f4 5CE7     		b	.L101
 1057              	.L146:
 1058 01f6 744B     		ldr	r3, .L177+60
 1059 01f8 93F80939 		ldrb	r3, [r3, #2313]	@ zero_extendqisi2
 1060 01fc 07EE903A 		vmov	s15, r3	@ int
 1061 0200 F8EE677A 		vcvt.f32.u32	s15, s15
 1062 0204 54E7     		b	.L101
 1063              	.L145:
 1064 0206 704B     		ldr	r3, .L177+60
 1065 0208 93F80A39 		ldrb	r3, [r3, #2314]	@ zero_extendqisi2
 1066 020c 07EE903A 		vmov	s15, r3	@ int
 1067 0210 F8EE677A 		vcvt.f32.u32	s15, s15
 1068 0214 4CE7     		b	.L101
 1069              	.L144:
 1070 0216 6D4B     		ldr	r3, .L177+64
 1071 0218 5B78     		ldrb	r3, [r3, #1]	@ zero_extendqisi2
 1072 021a 07EE903A 		vmov	s15, r3	@ int
 1073 021e F8EE677A 		vcvt.f32.u32	s15, s15
 1074 0222 45E7     		b	.L101
 1075              	.L143:
 1076 0224 6A4B     		ldr	r3, .L177+68
 1077 0226 D3ED0B7A 		vldr.32	s15, [r3, #44]
 1078 022a 41E7     		b	.L101
 1079              	.L142:
 1080 022c 684B     		ldr	r3, .L177+68
 1081 022e D3ED087A 		vldr.32	s15, [r3, #32]
ARM GAS  /tmp/ccqqT7mb.s 			page 20


 1082 0232 3DE7     		b	.L101
 1083              	.L141:
 1084 0234 664B     		ldr	r3, .L177+68
 1085 0236 D3ED097A 		vldr.32	s15, [r3, #36]
 1086 023a 39E7     		b	.L101
 1087              	.L140:
 1088 023c 644B     		ldr	r3, .L177+68
 1089 023e D3ED0A7A 		vldr.32	s15, [r3, #40]
 1090 0242 35E7     		b	.L101
 1091              	.L139:
 1092 0244 614B     		ldr	r3, .L177+64
 1093 0246 D3ED017A 		vldr.32	s15, [r3, #4]	@ int
 1094 024a F8EEE77A 		vcvt.f32.s32	s15, s15
 1095 024e 2FE7     		b	.L101
 1096              	.L138:
 1097 0250 5E4B     		ldr	r3, .L177+64
 1098 0252 D3ED027A 		vldr.32	s15, [r3, #8]	@ int
 1099 0256 F8EEE77A 		vcvt.f32.s32	s15, s15
 1100 025a 29E7     		b	.L101
 1101              	.L137:
 1102 025c 5D4B     		ldr	r3, .L177+72
 1103 025e D3ED0A7A 		vldr.32	s15, [r3, #40]
 1104 0262 25E7     		b	.L101
 1105              	.L136:
 1106 0264 5B4B     		ldr	r3, .L177+72
 1107 0266 D3ED017A 		vldr.32	s15, [r3, #4]	@ int
 1108 026a F8EEE77A 		vcvt.f32.s32	s15, s15
 1109 026e 1FE7     		b	.L101
 1110              	.L135:
 1111 0270 594B     		ldr	r3, .L177+76
 1112 0272 93F82C30 		ldrb	r3, [r3, #44]	@ zero_extendqisi2
 1113 0276 07EE903A 		vmov	s15, r3	@ int
 1114 027a F8EE677A 		vcvt.f32.u32	s15, s15
 1115 027e 17E7     		b	.L101
 1116              	.L134:
 1117 0280 554B     		ldr	r3, .L177+76
 1118 0282 D3ED007A 		vldr.32	s15, [r3]	@ int
 1119 0286 F8EEE77A 		vcvt.f32.s32	s15, s15
 1120 028a 11E7     		b	.L101
 1121              	.L133:
 1122 028c 524B     		ldr	r3, .L177+76
 1123 028e D3ED017A 		vldr.32	s15, [r3, #4]	@ int
 1124 0292 F8EEE77A 		vcvt.f32.s32	s15, s15
 1125 0296 0BE7     		b	.L101
 1126              	.L132:
 1127 0298 4F4B     		ldr	r3, .L177+76
 1128 029a D3ED027A 		vldr.32	s15, [r3, #8]	@ int
 1129 029e F8EEE77A 		vcvt.f32.s32	s15, s15
 1130 02a2 05E7     		b	.L101
 1131              	.L131:
 1132 02a4 4C4B     		ldr	r3, .L177+76
 1133 02a6 D3ED037A 		vldr.32	s15, [r3, #12]	@ int
 1134 02aa F8EEE77A 		vcvt.f32.s32	s15, s15
 1135 02ae FFE6     		b	.L101
 1136              	.L130:
 1137 02b0 494B     		ldr	r3, .L177+76
 1138 02b2 D3ED047A 		vldr.32	s15, [r3, #16]	@ int
ARM GAS  /tmp/ccqqT7mb.s 			page 21


 1139 02b6 F8EEE77A 		vcvt.f32.s32	s15, s15
 1140 02ba F9E6     		b	.L101
 1141              	.L129:
 1142 02bc 464B     		ldr	r3, .L177+76
 1143 02be D3ED057A 		vldr.32	s15, [r3, #20]	@ int
 1144 02c2 F8EEE77A 		vcvt.f32.s32	s15, s15
 1145 02c6 F3E6     		b	.L101
 1146              	.L128:
 1147 02c8 434B     		ldr	r3, .L177+76
 1148 02ca D3ED067A 		vldr.32	s15, [r3, #24]	@ int
 1149 02ce F8EEE77A 		vcvt.f32.s32	s15, s15
 1150 02d2 EDE6     		b	.L101
 1151              	.L127:
 1152 02d4 404B     		ldr	r3, .L177+76
 1153 02d6 D3ED077A 		vldr.32	s15, [r3, #28]	@ int
 1154 02da F8EEE77A 		vcvt.f32.s32	s15, s15
 1155 02de E7E6     		b	.L101
 1156              	.L126:
 1157 02e0 3D4B     		ldr	r3, .L177+76
 1158 02e2 93F82D30 		ldrb	r3, [r3, #45]	@ zero_extendqisi2
 1159 02e6 07EE903A 		vmov	s15, r3	@ int
 1160 02ea F8EE677A 		vcvt.f32.u32	s15, s15
 1161 02ee DFE6     		b	.L101
 1162              	.L125:
 1163 02f0 3A4B     		ldr	r3, .L177+80
 1164 02f2 93F83430 		ldrb	r3, [r3, #52]	@ zero_extendqisi2
 1165 02f6 07EE903A 		vmov	s15, r3	@ int
 1166 02fa F8EE677A 		vcvt.f32.u32	s15, s15
 1167 02fe D7E6     		b	.L101
 1168              	.L124:
 1169 0300 374B     		ldr	r3, .L177+84
 1170 0302 D3ED217A 		vldr.32	s15, [r3, #132]
 1171 0306 D3E6     		b	.L101
 1172              	.L123:
 1173 0308 354B     		ldr	r3, .L177+84
 1174 030a D3ED227A 		vldr.32	s15, [r3, #136]
 1175 030e CFE6     		b	.L101
 1176              	.L122:
 1177 0310 334B     		ldr	r3, .L177+84
 1178 0312 D3ED237A 		vldr.32	s15, [r3, #140]
 1179 0316 CBE6     		b	.L101
 1180              	.L121:
 1181 0318 314B     		ldr	r3, .L177+84
 1182 031a D3ED247A 		vldr.32	s15, [r3, #144]
 1183 031e C7E6     		b	.L101
 1184              	.L120:
 1185 0320 304B     		ldr	r3, .L177+88
 1186 0322 D3ED007A 		vldr.32	s15, [r3]	@ int
 1187 0326 F8EEE77A 		vcvt.f32.s32	s15, s15
 1188 032a C1E6     		b	.L101
 1189              	.L119:
 1190 032c 2D4B     		ldr	r3, .L177+88
 1191 032e D3ED037A 		vldr.32	s15, [r3, #12]	@ int
 1192 0332 F8EEE77A 		vcvt.f32.s32	s15, s15
 1193 0336 BBE6     		b	.L101
 1194              	.L118:
 1195 0338 2A4B     		ldr	r3, .L177+88
ARM GAS  /tmp/ccqqT7mb.s 			page 22


 1196 033a D3ED097A 		vldr.32	s15, [r3, #36]	@ int
 1197 033e F8EEE77A 		vcvt.f32.s32	s15, s15
 1198 0342 B5E6     		b	.L101
 1199              	.L117:
 1200 0344 274B     		ldr	r3, .L177+88
 1201 0346 D3ED067A 		vldr.32	s15, [r3, #24]	@ int
 1202 034a F8EEE77A 		vcvt.f32.s32	s15, s15
 1203 034e AFE6     		b	.L101
 1204              	.L116:
 1205 0350 244B     		ldr	r3, .L177+88
 1206 0352 D3ED017A 		vldr.32	s15, [r3, #4]	@ int
 1207 0356 F8EEE77A 		vcvt.f32.s32	s15, s15
 1208 035a A9E6     		b	.L101
 1209              	.L115:
 1210 035c 214B     		ldr	r3, .L177+88
 1211 035e D3ED047A 		vldr.32	s15, [r3, #16]	@ int
 1212 0362 F8EEE77A 		vcvt.f32.s32	s15, s15
 1213 0366 A3E6     		b	.L101
 1214              	.L114:
 1215 0368 1E4B     		ldr	r3, .L177+88
 1216 036a D3ED0A7A 		vldr.32	s15, [r3, #40]	@ int
 1217 036e F8EEE77A 		vcvt.f32.s32	s15, s15
 1218 0372 9DE6     		b	.L101
 1219              	.L113:
 1220 0374 1B4B     		ldr	r3, .L177+88
 1221 0376 D3ED077A 		vldr.32	s15, [r3, #28]	@ int
 1222 037a F8EEE77A 		vcvt.f32.s32	s15, s15
 1223 037e 97E6     		b	.L101
 1224              	.L112:
 1225 0380 184B     		ldr	r3, .L177+88
 1226 0382 D3ED027A 		vldr.32	s15, [r3, #8]	@ int
 1227 0386 F8EEE77A 		vcvt.f32.s32	s15, s15
 1228 038a 91E6     		b	.L101
 1229              	.L178:
 1230              		.align	2
 1231              	.L177:
 1232 038c 00000000 		.word	att_ref_quat_i
 1233 0390 00000000 		.word	0
 1234 0394 00000000 		.word	telemetry_mode_Main
 1235 0398 00000000 		.word	nominal_alt
 1236 039c 00000000 		.word	desired_heading
 1237 03a0 00000000 		.word	gps_datalink_gps_datalink_periodic_check_status
 1238 03a4 00000000 		.word	autopilot_mode_auto2
 1239 03a8 00000000 		.word	autopilot
 1240 03ac 00000000 		.word	flight_altitude
 1241 03b0 00000000 		.word	nav
 1242 03b4 00000000 		.word	multi_gps_mode
 1243 03b8 00000000 		.word	air_data
 1244 03bc D8080000 		.word	imu+2264
 1245 03c0 DC080000 		.word	imu+2268
 1246 03c4 E0080000 		.word	imu+2272
 1247 03c8 00000000 		.word	imu
 1248 03cc 00000000 		.word	guidance_h
 1249 03d0 00000000 		.word	gh_ref
 1250 03d4 00000000 		.word	guidance_v
 1251 03d8 00000000 		.word	guidance_pid
 1252 03dc 00000000 		.word	ahrs_madgwick
ARM GAS  /tmp/ccqqT7mb.s 			page 23


 1253 03e0 00000000 		.word	vff
 1254 03e4 00000000 		.word	stabilization_gains
 1255              	.L111:
 1256 03e8 124B     		ldr	r3, .L179
 1257 03ea D3ED057A 		vldr.32	s15, [r3, #20]	@ int
 1258 03ee F8EEE77A 		vcvt.f32.s32	s15, s15
 1259 03f2 5DE6     		b	.L101
 1260              	.L110:
 1261 03f4 0F4B     		ldr	r3, .L179
 1262 03f6 D3ED0B7A 		vldr.32	s15, [r3, #44]	@ int
 1263 03fa F8EEE77A 		vcvt.f32.s32	s15, s15
 1264 03fe 57E6     		b	.L101
 1265              	.L109:
 1266 0400 0C4B     		ldr	r3, .L179
 1267 0402 D3ED087A 		vldr.32	s15, [r3, #32]	@ int
 1268 0406 F8EEE77A 		vcvt.f32.s32	s15, s15
 1269 040a 51E6     		b	.L101
 1270              	.L108:
 1271 040c 0A4B     		ldr	r3, .L179+4
 1272 040e D3ED0D7A 		vldr.32	s15, [r3, #52]
 1273 0412 4DE6     		b	.L101
 1274              	.L107:
 1275 0414 084B     		ldr	r3, .L179+4
 1276 0416 D3ED107A 		vldr.32	s15, [r3, #64]
 1277 041a 49E6     		b	.L101
 1278              	.L106:
 1279 041c 064B     		ldr	r3, .L179+4
 1280 041e D3ED0E7A 		vldr.32	s15, [r3, #56]
 1281 0422 45E6     		b	.L101
 1282              	.L105:
 1283 0424 044B     		ldr	r3, .L179+4
 1284 0426 D3ED117A 		vldr.32	s15, [r3, #68]
 1285 042a 41E6     		b	.L101
 1286              	.L104:
 1287 042c 024B     		ldr	r3, .L179+4
 1288 042e D3ED0F7A 		vldr.32	s15, [r3, #60]
 1289 0432 3DE6     		b	.L101
 1290              	.L180:
 1291              		.align	2
 1292              	.L179:
 1293 0434 00000000 		.word	stabilization_gains
 1294 0438 00000000 		.word	att_ref_quat_i
 1295              		.size	settings_parse_msg_GET_SETTING, .-settings_parse_msg_GET_SETTING
 1296              		.global	settings_clear_flag
 1297              		.global	settings_store_flag
 1298              		.global	pers_settings
 1299              		.section	.bss.pers_settings,"aw",%nobits
 1300              		.align	2
 1301              		.type	pers_settings, %object
 1302              		.size	pers_settings, 132
 1303              	pers_settings:
 1304 0000 00000000 		.space	132
 1304      00000000 
 1304      00000000 
 1304      00000000 
 1304      00000000 
 1305              		.section	.bss.settings_clear_flag,"aw",%nobits
ARM GAS  /tmp/ccqqT7mb.s 			page 24


 1306              		.set	.LANCHOR1,. + 0
 1307              		.type	settings_clear_flag, %object
 1308              		.size	settings_clear_flag, 1
 1309              	settings_clear_flag:
 1310 0000 00       		.space	1
 1311              		.section	.bss.settings_store_flag,"aw",%nobits
 1312              		.set	.LANCHOR0,. + 0
 1313              		.type	settings_store_flag, %object
 1314              		.size	settings_store_flag, 1
 1315              	settings_store_flag:
 1316 0000 00       		.space	1
 1317              		.ident	"GCC: (15:10.3-2021.07-4) 10.3.1 20210621 (release)"
ARM GAS  /tmp/ccqqT7mb.s 			page 25

