ARM GAS  /tmp/ccNRXmlZ.s 			page 1


   1              		.cpu cortex-m4
   2              		.eabi_attribute 27, 1
   3              		.eabi_attribute 20, 1
   4              		.eabi_attribute 21, 1
   5              		.eabi_attribute 23, 3
   6              		.eabi_attribute 24, 1
   7              		.eabi_attribute 25, 1
   8              		.eabi_attribute 26, 1
   9              		.eabi_attribute 30, 2
  10              		.eabi_attribute 34, 1
  11              		.eabi_attribute 18, 4
  12              		.file	"stabilization_attitude_ref_quat_int.c"
  13              		.text
  14              		.section	.text.attitude_ref_quat_int_init,"ax",%progbits
  15              		.align	1
  16              		.p2align 4,,15
  17              		.global	attitude_ref_quat_int_init
  18              		.arch armv7e-m
  19              		.syntax unified
  20              		.thumb
  21              		.thumb_func
  22              		.fpu fpv4-sp-d16
  23              		.type	attitude_ref_quat_int_init, %function
  24              	attitude_ref_quat_int_init:
  25              		@ args = 0, pretend = 0, frame = 0
  26              		@ frame_needed = 0, uses_anonymous_args = 0
  27              		@ link register save eliminated.
  28 0000 30B4     		push	{r4, r5}
  29 0002 1A49     		ldr	r1, .L4
  30 0004 1A4C     		ldr	r4, .L4+4
  31 0006 1B4D     		ldr	r5, .L4+8
  32 0008 DFF878C0 		ldr	ip, .L4+24
  33 000c C566     		str	r5, [r0, #108]
  34 000e 0023     		movs	r3, #0
  35 0010 4FF40042 		mov	r2, #32768
  36 0014 C0E90033 		strd	r3, r3, [r0]
  37 0018 C0E90433 		strd	r3, r3, [r0, #16]
  38 001c C0E90633 		strd	r3, r3, [r0, #24]
  39 0020 C0E90833 		strd	r3, r3, [r0, #32]
  40 0024 C0E90A33 		strd	r3, r3, [r0, #40]
  41 0028 C0E91911 		strd	r1, r1, [r0, #100]
  42 002c C0E91C44 		strd	r4, r4, [r0, #112]
  43 0030 43F2BD01 		movw	r1, #12477
  44 0034 C260     		str	r2, [r0, #12]
  45 0036 8360     		str	r3, [r0, #8]
  46 0038 0F4A     		ldr	r2, .L4+12
  47 003a 0363     		str	r3, [r0, #48]
  48 003c 41F20934 		movw	r4, #4873
  49 0040 0E4B     		ldr	r3, .L4+16
  50 0042 8367     		str	r3, [r0, #120]
  51 0044 C0E91714 		strd	r1, r4, [r0, #92]
  52 0048 0D4B     		ldr	r3, .L4+20
  53 004a 4263     		str	r2, [r0, #52]	@ float
  54 004c 8165     		str	r1, [r0, #88]
  55 004e 8263     		str	r2, [r0, #56]	@ float
  56 0050 41F6AB51 		movw	r1, #7595
  57 0054 42F67972 		movw	r2, #12153
ARM GAS  /tmp/ccNRXmlZ.s 			page 2


  58 0058 C0F83CC0 		str	ip, [r0, #60]	@ float
  59 005c 0364     		str	r3, [r0, #64]	@ float
  60 005e C264     		str	r2, [r0, #76]
  61 0060 4364     		str	r3, [r0, #68]	@ float
  62 0062 0265     		str	r2, [r0, #80]
  63 0064 8364     		str	r3, [r0, #72]	@ float
  64 0066 4165     		str	r1, [r0, #84]
  65 0068 30BC     		pop	{r4, r5}
  66 006a 7047     		bx	lr
  67              	.L5:
  68              		.align	2
  69              	.L4:
  70 006c 37FB0600 		.word	457527
  71 0070 05BA0800 		.word	571909
  72 0074 3F240300 		.word	205887
  73 0078 F366DF40 		.word	1088382707
  74 007c A7F60100 		.word	128679
  75 0080 9A99593F 		.word	1062836634
  76 0084 58A08B40 		.word	1082892376
  77              		.size	attitude_ref_quat_int_init, .-attitude_ref_quat_int_init
  78              		.section	.text.attitude_ref_quat_int_enter,"ax",%progbits
  79              		.align	1
  80              		.p2align 4,,15
  81              		.global	attitude_ref_quat_int_enter
  82              		.syntax unified
  83              		.thumb
  84              		.thumb_func
  85              		.fpu fpv4-sp-d16
  86              		.type	attitude_ref_quat_int_enter, %function
  87              	attitude_ref_quat_int_enter:
  88              		@ args = 0, pretend = 0, frame = 0
  89              		@ frame_needed = 0, uses_anonymous_args = 0
  90              		@ link register save eliminated.
  91 0000 30B4     		push	{r4, r5}
  92 0002 D1E90053 		ldrd	r5, r3, [r1]
  93 0006 D1E90242 		ldrd	r4, r2, [r1, #8]
  94 000a C0E90353 		strd	r5, r3, [r0, #12]
  95 000e 0023     		movs	r3, #0
  96 0010 C0E90542 		strd	r4, r2, [r0, #20]
  97 0014 C0E90733 		strd	r3, r3, [r0, #28]
  98 0018 30BC     		pop	{r4, r5}
  99 001a C0E90933 		strd	r3, r3, [r0, #36]
 100 001e C0E90B33 		strd	r3, r3, [r0, #44]
 101 0022 7047     		bx	lr
 102              		.size	attitude_ref_quat_int_enter, .-attitude_ref_quat_int_enter
 103              		.section	.text.attitude_ref_quat_int_update,"ax",%progbits
 104              		.align	1
 105              		.p2align 4,,15
 106              		.global	attitude_ref_quat_int_update
 107              		.syntax unified
 108              		.thumb
 109              		.thumb_func
 110              		.fpu fpv4-sp-d16
 111              		.type	attitude_ref_quat_int_update, %function
 112              	attitude_ref_quat_int_update:
 113              		@ args = 0, pretend = 0, frame = 48
 114              		@ frame_needed = 0, uses_anonymous_args = 0
ARM GAS  /tmp/ccNRXmlZ.s 			page 3


 115 0000 2DE9F043 		push	{r4, r5, r6, r7, r8, r9, lr}
 116 0004 D0E90723 		ldrd	r2, r3, [r0, #28]
 117 0008 0832     		adds	r2, r2, #8
 118 000a 0833     		adds	r3, r3, #8
 119 000c 8DB0     		sub	sp, sp, #52
 120 000e 1211     		asrs	r2, r2, #4
 121 0010 1B11     		asrs	r3, r3, #4
 122 0012 CDE90123 		strd	r2, r3, [sp, #4]
 123 0016 436A     		ldr	r3, [r0, #36]
 124 0018 00F10C05 		add	r5, r0, #12
 125 001c 0833     		adds	r3, r3, #8
 126 001e 0446     		mov	r4, r0
 127 0020 1B11     		asrs	r3, r3, #4
 128 0022 2A46     		mov	r2, r5
 129 0024 04A8     		add	r0, sp, #16
 130 0026 0E46     		mov	r6, r1
 131 0028 01A9     		add	r1, sp, #4
 132 002a 0393     		str	r3, [sp, #12]
 133 002c FFF7FEFF 		bl	int32_quat_derivative
 134 0030 DDE90410 		ldrd	r1, r0, [sp, #16]
 135 0034 2369     		ldr	r3, [r4, #16]
 136 0036 069A     		ldr	r2, [sp, #24]
 137 0038 4012     		asrs	r0, r0, #9
 138 003a 4912     		asrs	r1, r1, #9
 139 003c CDE90410 		strd	r1, r0, [sp, #16]
 140 0040 1844     		add	r0, r0, r3
 141 0042 E368     		ldr	r3, [r4, #12]
 142 0044 2061     		str	r0, [r4, #16]
 143 0046 1944     		add	r1, r1, r3
 144 0048 00FB00F0 		mul	r0, r0, r0
 145 004c 01FB0103 		mla	r3, r1, r1, r0
 146 0050 E160     		str	r1, [r4, #12]
 147 0052 6169     		ldr	r1, [r4, #20]
 148 0054 0798     		ldr	r0, [sp, #28]
 149 0056 5212     		asrs	r2, r2, #9
 150 0058 0692     		str	r2, [sp, #24]
 151 005a 0A44     		add	r2, r2, r1
 152 005c 02FB0233 		mla	r3, r2, r2, r3
 153 0060 6261     		str	r2, [r4, #20]
 154 0062 A269     		ldr	r2, [r4, #24]
 155 0064 4012     		asrs	r0, r0, #9
 156 0066 0790     		str	r0, [sp, #28]
 157 0068 1044     		add	r0, r0, r2
 158 006a A061     		str	r0, [r4, #24]
 159 006c 00FB0030 		mla	r0, r0, r0, r3
 160 0070 FFF7FEFF 		bl	int32_sqrt
 161 0074 0028     		cmp	r0, #0
 162 0076 13DD     		ble	.L9
 163 0078 E368     		ldr	r3, [r4, #12]
 164 007a DB03     		lsls	r3, r3, #15
 165 007c 93FBF0F3 		sdiv	r3, r3, r0
 166 0080 E360     		str	r3, [r4, #12]
 167 0082 2369     		ldr	r3, [r4, #16]
 168 0084 DB03     		lsls	r3, r3, #15
 169 0086 93FBF0F3 		sdiv	r3, r3, r0
 170 008a 2361     		str	r3, [r4, #16]
 171 008c 6369     		ldr	r3, [r4, #20]
ARM GAS  /tmp/ccNRXmlZ.s 			page 4


 172 008e DB03     		lsls	r3, r3, #15
 173 0090 93FBF0F3 		sdiv	r3, r3, r0
 174 0094 6361     		str	r3, [r4, #20]
 175 0096 A369     		ldr	r3, [r4, #24]
 176 0098 DB03     		lsls	r3, r3, #15
 177 009a 93FBF0F0 		sdiv	r0, r3, r0
 178 009e A061     		str	r0, [r4, #24]
 179              	.L9:
 180 00a0 D4E90730 		ldrd	r3, r0, [r4, #28]
 181 00a4 D4E90B27 		ldrd	r2, r7, [r4, #44]
 182 00a8 00EB6210 		add	r0, r0, r2, asr #5
 183 00ac 2062     		str	r0, [r4, #32]
 184 00ae 626A     		ldr	r2, [r4, #36]
 185 00b0 A06A     		ldr	r0, [r4, #40]
 186 00b2 02EB6712 		add	r2, r2, r7, asr #5
 187 00b6 03EB6013 		add	r3, r3, r0, asr #5
 188 00ba 6262     		str	r2, [r4, #36]
 189 00bc 3146     		mov	r1, r6
 190 00be 2A46     		mov	r2, r5
 191 00c0 E361     		str	r3, [r4, #28]
 192 00c2 08A8     		add	r0, sp, #32
 193 00c4 FFF7FEFF 		bl	int32_quat_inv_comp
 194 00c8 089A     		ldr	r2, [sp, #32]
 195 00ca 002A     		cmp	r2, #0
 196 00cc C0F29480 		blt	.L10
 197 00d0 DDE90963 		ldrd	r6, r3, [sp, #36]
 198 00d4 0B9A     		ldr	r2, [sp, #44]
 199              	.L11:
 200 00d6 E06D     		ldr	r0, [r4, #92]
 201 00d8 A16D     		ldr	r1, [r4, #88]
 202 00da D4F82490 		ldr	r9, [r4, #36]
 203 00de 4FEAE20C 		asr	ip, r2, #3
 204 00e2 226E     		ldr	r2, [r4, #96]
 205 00e4 5242     		rsbs	r2, r2, #0
 206 00e6 D4E90787 		ldrd	r8, r7, [r4, #28]
 207 00ea 4042     		rsbs	r0, r0, #0
 208 00ec 0CFB02F2 		mul	r2, ip, r2
 209 00f0 DB10     		asrs	r3, r3, #3
 210 00f2 00FB03F3 		mul	r3, r0, r3
 211 00f6 4FEAE21C 		asr	ip, r2, #7
 212 00fa 606D     		ldr	r0, [r4, #84]
 213 00fc 226D     		ldr	r2, [r4, #80]
 214 00fe F610     		asrs	r6, r6, #3
 215 0100 4942     		rsbs	r1, r1, #0
 216 0102 4FEAE31E 		asr	lr, r3, #7
 217 0106 06FB01F1 		mul	r1, r6, r1
 218 010a 5342     		rsbs	r3, r2, #0
 219 010c E66C     		ldr	r6, [r4, #76]
 220 010e 4242     		rsbs	r2, r0, #0
 221 0110 3811     		asrs	r0, r7, #4
 222 0112 00FB03F3 		mul	r3, r0, r3
 223 0116 4FEA2910 		asr	r0, r9, #4
 224 011a 00FB02F2 		mul	r2, r0, r2
 225 011e 7642     		rsbs	r6, r6, #0
 226 0120 4FEA2810 		asr	r0, r8, #4
 227 0124 00FB06F6 		mul	r6, r0, r6
 228 0128 C911     		asrs	r1, r1, #7
ARM GAS  /tmp/ccNRXmlZ.s 			page 5


 229 012a 206F     		ldr	r0, [r4, #112]
 230 012c 01EBA621 		add	r1, r1, r6, asr #10
 231 0130 0EEBA323 		add	r3, lr, r3, asr #10
 232 0134 0CEBA222 		add	r2, ip, r2, asr #10
 233 0138 8142     		cmp	r1, r0
 234 013a E362     		str	r3, [r4, #44]
 235 013c 2263     		str	r2, [r4, #48]
 236 013e A162     		str	r1, [r4, #40]
 237 0140 58DC     		bgt	.L31
 238 0142 4042     		rsbs	r0, r0, #0
 239 0144 8142     		cmp	r1, r0
 240 0146 55DB     		blt	.L31
 241              	.L13:
 242 0148 616F     		ldr	r1, [r4, #116]
 243 014a 8B42     		cmp	r3, r1
 244 014c 50DC     		bgt	.L32
 245 014e 4942     		rsbs	r1, r1, #0
 246 0150 8B42     		cmp	r3, r1
 247 0152 4DDB     		blt	.L32
 248              	.L15:
 249 0154 A36F     		ldr	r3, [r4, #120]
 250 0156 9A42     		cmp	r2, r3
 251 0158 24DC     		bgt	.L33
 252 015a 5B42     		rsbs	r3, r3, #0
 253 015c 9A42     		cmp	r2, r3
 254 015e 21DB     		blt	.L33
 255 0160 636E     		ldr	r3, [r4, #100]
 256 0162 9845     		cmp	r8, r3
 257 0164 22DB     		blt	.L18
 258              	.L34:
 259 0166 E361     		str	r3, [r4, #28]
 260 0168 A36A     		ldr	r3, [r4, #40]
 261 016a 002B     		cmp	r3, #0
 262 016c 01DD     		ble	.L20
 263              	.L19:
 264 016e 0023     		movs	r3, #0
 265 0170 A362     		str	r3, [r4, #40]
 266              	.L20:
 267 0172 A36E     		ldr	r3, [r4, #104]
 268 0174 9F42     		cmp	r7, r3
 269 0176 23DB     		blt	.L22
 270              	.L35:
 271 0178 E26A     		ldr	r2, [r4, #44]
 272 017a 2362     		str	r3, [r4, #32]
 273 017c 002A     		cmp	r2, #0
 274 017e 01DD     		ble	.L24
 275              	.L23:
 276 0180 0023     		movs	r3, #0
 277 0182 E362     		str	r3, [r4, #44]
 278              	.L24:
 279 0184 E36E     		ldr	r3, [r4, #108]
 280 0186 9945     		cmp	r9, r3
 281 0188 24DB     		blt	.L26
 282              	.L36:
 283 018a 226B     		ldr	r2, [r4, #48]
 284 018c 6362     		str	r3, [r4, #36]
 285 018e 002A     		cmp	r2, #0
ARM GAS  /tmp/ccNRXmlZ.s 			page 6


 286 0190 01DD     		ble	.L28
 287              	.L27:
 288 0192 0023     		movs	r3, #0
 289 0194 2363     		str	r3, [r4, #48]
 290              	.L28:
 291 0196 2946     		mov	r1, r5
 292 0198 2046     		mov	r0, r4
 293 019a FFF7FEFF 		bl	int32_eulers_of_quat
 294 019e 0DB0     		add	sp, sp, #52
 295              		@ sp needed
 296 01a0 BDE8F083 		pop	{r4, r5, r6, r7, r8, r9, pc}
 297              	.L33:
 298 01a4 2363     		str	r3, [r4, #48]
 299 01a6 636E     		ldr	r3, [r4, #100]
 300 01a8 9845     		cmp	r8, r3
 301 01aa DCDA     		bge	.L34
 302              	.L18:
 303 01ac 5B42     		rsbs	r3, r3, #0
 304 01ae 9845     		cmp	r8, r3
 305 01b0 DFDC     		bgt	.L20
 306 01b2 E361     		str	r3, [r4, #28]
 307 01b4 A36A     		ldr	r3, [r4, #40]
 308 01b6 002B     		cmp	r3, #0
 309 01b8 D9DB     		blt	.L19
 310 01ba A36E     		ldr	r3, [r4, #104]
 311 01bc 9F42     		cmp	r7, r3
 312 01be DBDA     		bge	.L35
 313              	.L22:
 314 01c0 5B42     		rsbs	r3, r3, #0
 315 01c2 9F42     		cmp	r7, r3
 316 01c4 DEDC     		bgt	.L24
 317 01c6 E26A     		ldr	r2, [r4, #44]
 318 01c8 2362     		str	r3, [r4, #32]
 319 01ca 002A     		cmp	r2, #0
 320 01cc D8DB     		blt	.L23
 321 01ce E36E     		ldr	r3, [r4, #108]
 322 01d0 9945     		cmp	r9, r3
 323 01d2 DADA     		bge	.L36
 324              	.L26:
 325 01d4 5B42     		rsbs	r3, r3, #0
 326 01d6 9945     		cmp	r9, r3
 327 01d8 DDDC     		bgt	.L28
 328 01da 226B     		ldr	r2, [r4, #48]
 329 01dc 6362     		str	r3, [r4, #36]
 330 01de 002A     		cmp	r2, #0
 331 01e0 D7DB     		blt	.L27
 332 01e2 2946     		mov	r1, r5
 333 01e4 2046     		mov	r0, r4
 334 01e6 FFF7FEFF 		bl	int32_eulers_of_quat
 335 01ea 0DB0     		add	sp, sp, #52
 336              		@ sp needed
 337 01ec BDE8F083 		pop	{r4, r5, r6, r7, r8, r9, pc}
 338              	.L32:
 339 01f0 E162     		str	r1, [r4, #44]
 340 01f2 AFE7     		b	.L15
 341              	.L31:
 342 01f4 A062     		str	r0, [r4, #40]
ARM GAS  /tmp/ccNRXmlZ.s 			page 7


 343 01f6 A7E7     		b	.L13
 344              	.L10:
 345 01f8 DDE90913 		ldrd	r1, r3, [sp, #36]
 346 01fc 5242     		rsbs	r2, r2, #0
 347 01fe 4E42     		rsbs	r6, r1, #0
 348 0200 CDE90826 		strd	r2, r6, [sp, #32]
 349 0204 0B9A     		ldr	r2, [sp, #44]
 350 0206 5B42     		rsbs	r3, r3, #0
 351 0208 5242     		rsbs	r2, r2, #0
 352 020a 0A93     		str	r3, [sp, #40]
 353 020c 0B92     		str	r2, [sp, #44]
 354 020e 62E7     		b	.L11
 355              		.size	attitude_ref_quat_int_update, .-attitude_ref_quat_int_update
 356              		.section	.text.attitude_ref_quat_int_set_omega_p,"ax",%progbits
 357              		.align	1
 358              		.p2align 4,,15
 359              		.global	attitude_ref_quat_int_set_omega_p
 360              		.syntax unified
 361              		.thumb
 362              		.thumb_func
 363              		.fpu fpv4-sp-d16
 364              		.type	attitude_ref_quat_int_set_omega_p, %function
 365              	attitude_ref_quat_int_set_omega_p:
 366              		@ args = 0, pretend = 0, frame = 0
 367              		@ frame_needed = 0, uses_anonymous_args = 0
 368              		@ link register save eliminated.
 369 0000 07EE101A 		vmov	s14, r1
 370 0004 D0ED107A 		vldr.32	s15, [r0, #64]
 371 0008 4163     		str	r1, [r0, #52]	@ float
 372 000a 77EE076A 		vadd.f32	s13, s14, s14
 373 000e 77EEA77A 		vadd.f32	s15, s15, s15
 374 0012 66EE876A 		vmul.f32	s13, s13, s14
 375 0016 67EE877A 		vmul.f32	s15, s15, s14
 376 001a FEEEEC6A 		vcvt.s32.f32	s13, s13, #7
 377 001e FEEECB7A 		vcvt.s32.f32	s15, s15, #10
 378 0022 C0ED166A 		vstr.32	s13, [r0, #88]	@ int
 379 0026 C0ED137A 		vstr.32	s15, [r0, #76]	@ int
 380 002a 7047     		bx	lr
 381              		.size	attitude_ref_quat_int_set_omega_p, .-attitude_ref_quat_int_set_omega_p
 382              		.section	.text.attitude_ref_quat_int_set_omega_q,"ax",%progbits
 383              		.align	1
 384              		.p2align 4,,15
 385              		.global	attitude_ref_quat_int_set_omega_q
 386              		.syntax unified
 387              		.thumb
 388              		.thumb_func
 389              		.fpu fpv4-sp-d16
 390              		.type	attitude_ref_quat_int_set_omega_q, %function
 391              	attitude_ref_quat_int_set_omega_q:
 392              		@ args = 0, pretend = 0, frame = 0
 393              		@ frame_needed = 0, uses_anonymous_args = 0
 394              		@ link register save eliminated.
 395 0000 07EE101A 		vmov	s14, r1
 396 0004 D0ED117A 		vldr.32	s15, [r0, #68]
 397 0008 8163     		str	r1, [r0, #56]	@ float
 398 000a 77EE076A 		vadd.f32	s13, s14, s14
 399 000e 77EEA77A 		vadd.f32	s15, s15, s15
ARM GAS  /tmp/ccNRXmlZ.s 			page 8


 400 0012 66EE876A 		vmul.f32	s13, s13, s14
 401 0016 67EE877A 		vmul.f32	s15, s15, s14
 402 001a FEEEEC6A 		vcvt.s32.f32	s13, s13, #7
 403 001e FEEECB7A 		vcvt.s32.f32	s15, s15, #10
 404 0022 C0ED176A 		vstr.32	s13, [r0, #92]	@ int
 405 0026 C0ED147A 		vstr.32	s15, [r0, #80]	@ int
 406 002a 7047     		bx	lr
 407              		.size	attitude_ref_quat_int_set_omega_q, .-attitude_ref_quat_int_set_omega_q
 408              		.section	.text.attitude_ref_quat_int_set_omega_r,"ax",%progbits
 409              		.align	1
 410              		.p2align 4,,15
 411              		.global	attitude_ref_quat_int_set_omega_r
 412              		.syntax unified
 413              		.thumb
 414              		.thumb_func
 415              		.fpu fpv4-sp-d16
 416              		.type	attitude_ref_quat_int_set_omega_r, %function
 417              	attitude_ref_quat_int_set_omega_r:
 418              		@ args = 0, pretend = 0, frame = 0
 419              		@ frame_needed = 0, uses_anonymous_args = 0
 420              		@ link register save eliminated.
 421 0000 07EE101A 		vmov	s14, r1
 422 0004 D0ED127A 		vldr.32	s15, [r0, #72]
 423 0008 C163     		str	r1, [r0, #60]	@ float
 424 000a 77EE076A 		vadd.f32	s13, s14, s14
 425 000e 77EEA77A 		vadd.f32	s15, s15, s15
 426 0012 66EE876A 		vmul.f32	s13, s13, s14
 427 0016 67EE877A 		vmul.f32	s15, s15, s14
 428 001a FEEEEC6A 		vcvt.s32.f32	s13, s13, #7
 429 001e FEEECB7A 		vcvt.s32.f32	s15, s15, #10
 430 0022 C0ED186A 		vstr.32	s13, [r0, #96]	@ int
 431 0026 C0ED157A 		vstr.32	s15, [r0, #84]	@ int
 432 002a 7047     		bx	lr
 433              		.size	attitude_ref_quat_int_set_omega_r, .-attitude_ref_quat_int_set_omega_r
 434              		.section	.text.attitude_ref_quat_int_set_omega,"ax",%progbits
 435              		.align	1
 436              		.p2align 4,,15
 437              		.global	attitude_ref_quat_int_set_omega
 438              		.syntax unified
 439              		.thumb
 440              		.thumb_func
 441              		.fpu fpv4-sp-d16
 442              		.type	attitude_ref_quat_int_set_omega, %function
 443              	attitude_ref_quat_int_set_omega:
 444              		@ args = 0, pretend = 0, frame = 0
 445              		@ frame_needed = 0, uses_anonymous_args = 0
 446              		@ link register save eliminated.
 447 0000 D1ED003A 		vldr.32	s7, [r1]
 448 0004 D1ED014A 		vldr.32	s9, [r1, #4]
 449 0008 D1ED025A 		vldr.32	s11, [r1, #8]
 450 000c D0ED106A 		vldr.32	s13, [r0, #64]
 451 0010 90ED117A 		vldr.32	s14, [r0, #68]
 452 0014 D0ED127A 		vldr.32	s15, [r0, #72]
 453 0018 C0ED0D3A 		vstr.32	s7, [r0, #52]
 454 001c 76EEA66A 		vadd.f32	s13, s13, s13
 455 0020 33EEA34A 		vadd.f32	s8, s7, s7
 456 0024 37EE077A 		vadd.f32	s14, s14, s14
ARM GAS  /tmp/ccNRXmlZ.s 			page 9


 457 0028 34EEA45A 		vadd.f32	s10, s9, s9
 458 002c 77EEA77A 		vadd.f32	s15, s15, s15
 459 0030 35EEA56A 		vadd.f32	s12, s11, s11
 460 0034 66EEA36A 		vmul.f32	s13, s13, s7
 461 0038 24EE234A 		vmul.f32	s8, s8, s7
 462 003c 27EE247A 		vmul.f32	s14, s14, s9
 463 0040 25EE245A 		vmul.f32	s10, s10, s9
 464 0044 67EEA57A 		vmul.f32	s15, s15, s11
 465 0048 26EE256A 		vmul.f32	s12, s12, s11
 466 004c FEEECB6A 		vcvt.s32.f32	s13, s13, #10
 467 0050 BEEEEC4A 		vcvt.s32.f32	s8, s8, #7
 468 0054 BEEECB7A 		vcvt.s32.f32	s14, s14, #10
 469 0058 BEEEEC5A 		vcvt.s32.f32	s10, s10, #7
 470 005c FEEECB7A 		vcvt.s32.f32	s15, s15, #10
 471 0060 BEEEEC6A 		vcvt.s32.f32	s12, s12, #7
 472 0064 C0ED136A 		vstr.32	s13, [r0, #76]	@ int
 473 0068 80ED164A 		vstr.32	s8, [r0, #88]	@ int
 474 006c C0ED0E4A 		vstr.32	s9, [r0, #56]
 475 0070 80ED147A 		vstr.32	s14, [r0, #80]	@ int
 476 0074 80ED175A 		vstr.32	s10, [r0, #92]	@ int
 477 0078 C0ED0F5A 		vstr.32	s11, [r0, #60]
 478 007c C0ED157A 		vstr.32	s15, [r0, #84]	@ int
 479 0080 80ED186A 		vstr.32	s12, [r0, #96]	@ int
 480 0084 7047     		bx	lr
 481              		.size	attitude_ref_quat_int_set_omega, .-attitude_ref_quat_int_set_omega
 482 0086 00BF     		.section	.text.attitude_ref_quat_int_set_zeta_p,"ax",%progbits
 483              		.align	1
 484              		.p2align 4,,15
 485              		.global	attitude_ref_quat_int_set_zeta_p
 486              		.syntax unified
 487              		.thumb
 488              		.thumb_func
 489              		.fpu fpv4-sp-d16
 490              		.type	attitude_ref_quat_int_set_zeta_p, %function
 491              	attitude_ref_quat_int_set_zeta_p:
 492              		@ args = 0, pretend = 0, frame = 0
 493              		@ frame_needed = 0, uses_anonymous_args = 0
 494              		@ link register save eliminated.
 495 0000 90ED0D6A 		vldr.32	s12, [r0, #52]
 496 0004 0164     		str	r1, [r0, #64]	@ float
 497 0006 06EE901A 		vmov	s13, r1
 498 000a 76EE067A 		vadd.f32	s15, s12, s12
 499 000e 36EEA67A 		vadd.f32	s14, s13, s13
 500 0012 67EE867A 		vmul.f32	s15, s15, s12
 501 0016 27EE067A 		vmul.f32	s14, s14, s12
 502 001a FEEEEC7A 		vcvt.s32.f32	s15, s15, #7
 503 001e BEEECB7A 		vcvt.s32.f32	s14, s14, #10
 504 0022 C0ED167A 		vstr.32	s15, [r0, #88]	@ int
 505 0026 80ED137A 		vstr.32	s14, [r0, #76]	@ int
 506 002a 7047     		bx	lr
 507              		.size	attitude_ref_quat_int_set_zeta_p, .-attitude_ref_quat_int_set_zeta_p
 508              		.section	.text.attitude_ref_quat_int_set_zeta_q,"ax",%progbits
 509              		.align	1
 510              		.p2align 4,,15
 511              		.global	attitude_ref_quat_int_set_zeta_q
 512              		.syntax unified
 513              		.thumb
ARM GAS  /tmp/ccNRXmlZ.s 			page 10


 514              		.thumb_func
 515              		.fpu fpv4-sp-d16
 516              		.type	attitude_ref_quat_int_set_zeta_q, %function
 517              	attitude_ref_quat_int_set_zeta_q:
 518              		@ args = 0, pretend = 0, frame = 0
 519              		@ frame_needed = 0, uses_anonymous_args = 0
 520              		@ link register save eliminated.
 521 0000 90ED0E6A 		vldr.32	s12, [r0, #56]
 522 0004 4164     		str	r1, [r0, #68]	@ float
 523 0006 06EE901A 		vmov	s13, r1
 524 000a 76EE067A 		vadd.f32	s15, s12, s12
 525 000e 36EEA67A 		vadd.f32	s14, s13, s13
 526 0012 67EE867A 		vmul.f32	s15, s15, s12
 527 0016 27EE067A 		vmul.f32	s14, s14, s12
 528 001a FEEEEC7A 		vcvt.s32.f32	s15, s15, #7
 529 001e BEEECB7A 		vcvt.s32.f32	s14, s14, #10
 530 0022 C0ED177A 		vstr.32	s15, [r0, #92]	@ int
 531 0026 80ED147A 		vstr.32	s14, [r0, #80]	@ int
 532 002a 7047     		bx	lr
 533              		.size	attitude_ref_quat_int_set_zeta_q, .-attitude_ref_quat_int_set_zeta_q
 534              		.section	.text.attitude_ref_quat_int_set_zeta_r,"ax",%progbits
 535              		.align	1
 536              		.p2align 4,,15
 537              		.global	attitude_ref_quat_int_set_zeta_r
 538              		.syntax unified
 539              		.thumb
 540              		.thumb_func
 541              		.fpu fpv4-sp-d16
 542              		.type	attitude_ref_quat_int_set_zeta_r, %function
 543              	attitude_ref_quat_int_set_zeta_r:
 544              		@ args = 0, pretend = 0, frame = 0
 545              		@ frame_needed = 0, uses_anonymous_args = 0
 546              		@ link register save eliminated.
 547 0000 90ED0F6A 		vldr.32	s12, [r0, #60]
 548 0004 8164     		str	r1, [r0, #72]	@ float
 549 0006 06EE901A 		vmov	s13, r1
 550 000a 76EE067A 		vadd.f32	s15, s12, s12
 551 000e 36EEA67A 		vadd.f32	s14, s13, s13
 552 0012 67EE867A 		vmul.f32	s15, s15, s12
 553 0016 27EE067A 		vmul.f32	s14, s14, s12
 554 001a FEEEEC7A 		vcvt.s32.f32	s15, s15, #7
 555 001e BEEECB7A 		vcvt.s32.f32	s14, s14, #10
 556 0022 C0ED187A 		vstr.32	s15, [r0, #96]	@ int
 557 0026 80ED157A 		vstr.32	s14, [r0, #84]	@ int
 558 002a 7047     		bx	lr
 559              		.size	attitude_ref_quat_int_set_zeta_r, .-attitude_ref_quat_int_set_zeta_r
 560              		.section	.text.attitude_ref_quat_int_set_zeta,"ax",%progbits
 561              		.align	1
 562              		.p2align 4,,15
 563              		.global	attitude_ref_quat_int_set_zeta
 564              		.syntax unified
 565              		.thumb
 566              		.thumb_func
 567              		.fpu fpv4-sp-d16
 568              		.type	attitude_ref_quat_int_set_zeta, %function
 569              	attitude_ref_quat_int_set_zeta:
 570              		@ args = 0, pretend = 0, frame = 0
ARM GAS  /tmp/ccNRXmlZ.s 			page 11


 571              		@ frame_needed = 0, uses_anonymous_args = 0
 572              		@ link register save eliminated.
 573 0000 91ED002A 		vldr.32	s4, [r1]
 574 0004 D1ED012A 		vldr.32	s5, [r1, #4]
 575 0008 91ED023A 		vldr.32	s6, [r1, #8]
 576 000c D0ED0D3A 		vldr.32	s7, [r0, #52]
 577 0010 90ED0E4A 		vldr.32	s8, [r0, #56]
 578 0014 D0ED0F4A 		vldr.32	s9, [r0, #60]
 579 0018 80ED102A 		vstr.32	s4, [r0, #64]
 580 001c 32EE025A 		vadd.f32	s10, s4, s4
 581 0020 73EEA35A 		vadd.f32	s11, s7, s7
 582 0024 32EEA26A 		vadd.f32	s12, s5, s5
 583 0028 74EE046A 		vadd.f32	s13, s8, s8
 584 002c 33EE037A 		vadd.f32	s14, s6, s6
 585 0030 74EEA47A 		vadd.f32	s15, s9, s9
 586 0034 25EE235A 		vmul.f32	s10, s10, s7
 587 0038 65EEA35A 		vmul.f32	s11, s11, s7
 588 003c 26EE046A 		vmul.f32	s12, s12, s8
 589 0040 66EE846A 		vmul.f32	s13, s13, s8
 590 0044 27EE247A 		vmul.f32	s14, s14, s9
 591 0048 67EEA47A 		vmul.f32	s15, s15, s9
 592 004c BEEECB5A 		vcvt.s32.f32	s10, s10, #10
 593 0050 FEEEEC5A 		vcvt.s32.f32	s11, s11, #7
 594 0054 BEEECB6A 		vcvt.s32.f32	s12, s12, #10
 595 0058 FEEEEC6A 		vcvt.s32.f32	s13, s13, #7
 596 005c BEEECB7A 		vcvt.s32.f32	s14, s14, #10
 597 0060 FEEEEC7A 		vcvt.s32.f32	s15, s15, #7
 598 0064 80ED135A 		vstr.32	s10, [r0, #76]	@ int
 599 0068 C0ED165A 		vstr.32	s11, [r0, #88]	@ int
 600 006c C0ED112A 		vstr.32	s5, [r0, #68]
 601 0070 80ED146A 		vstr.32	s12, [r0, #80]	@ int
 602 0074 C0ED176A 		vstr.32	s13, [r0, #92]	@ int
 603 0078 80ED123A 		vstr.32	s6, [r0, #72]
 604 007c 80ED157A 		vstr.32	s14, [r0, #84]	@ int
 605 0080 C0ED187A 		vstr.32	s15, [r0, #96]	@ int
 606 0084 7047     		bx	lr
 607              		.size	attitude_ref_quat_int_set_zeta, .-attitude_ref_quat_int_set_zeta
 608 0086 00BF     		.section	.text.attitude_ref_quat_int_set_max_p,"ax",%progbits
 609              		.align	1
 610              		.p2align 4,,15
 611              		.global	attitude_ref_quat_int_set_max_p
 612              		.syntax unified
 613              		.thumb
 614              		.thumb_func
 615              		.fpu fpv4-sp-d16
 616              		.type	attitude_ref_quat_int_set_max_p, %function
 617              	attitude_ref_quat_int_set_max_p:
 618              		@ args = 0, pretend = 0, frame = 0
 619              		@ frame_needed = 0, uses_anonymous_args = 0
 620              		@ link register save eliminated.
 621 0000 07EE901A 		vmov	s15, r1
 622 0004 FEEEC87A 		vcvt.s32.f32	s15, s15, #16
 623 0008 C0ED197A 		vstr.32	s15, [r0, #100]	@ int
 624 000c 7047     		bx	lr
 625              		.size	attitude_ref_quat_int_set_max_p, .-attitude_ref_quat_int_set_max_p
 626 000e 00BF     		.section	.text.attitude_ref_quat_int_set_max_q,"ax",%progbits
 627              		.align	1
ARM GAS  /tmp/ccNRXmlZ.s 			page 12


 628              		.p2align 4,,15
 629              		.global	attitude_ref_quat_int_set_max_q
 630              		.syntax unified
 631              		.thumb
 632              		.thumb_func
 633              		.fpu fpv4-sp-d16
 634              		.type	attitude_ref_quat_int_set_max_q, %function
 635              	attitude_ref_quat_int_set_max_q:
 636              		@ args = 0, pretend = 0, frame = 0
 637              		@ frame_needed = 0, uses_anonymous_args = 0
 638              		@ link register save eliminated.
 639 0000 07EE901A 		vmov	s15, r1
 640 0004 FEEEC87A 		vcvt.s32.f32	s15, s15, #16
 641 0008 C0ED1A7A 		vstr.32	s15, [r0, #104]	@ int
 642 000c 7047     		bx	lr
 643              		.size	attitude_ref_quat_int_set_max_q, .-attitude_ref_quat_int_set_max_q
 644 000e 00BF     		.section	.text.attitude_ref_quat_int_set_max_r,"ax",%progbits
 645              		.align	1
 646              		.p2align 4,,15
 647              		.global	attitude_ref_quat_int_set_max_r
 648              		.syntax unified
 649              		.thumb
 650              		.thumb_func
 651              		.fpu fpv4-sp-d16
 652              		.type	attitude_ref_quat_int_set_max_r, %function
 653              	attitude_ref_quat_int_set_max_r:
 654              		@ args = 0, pretend = 0, frame = 0
 655              		@ frame_needed = 0, uses_anonymous_args = 0
 656              		@ link register save eliminated.
 657 0000 07EE901A 		vmov	s15, r1
 658 0004 FEEEC87A 		vcvt.s32.f32	s15, s15, #16
 659 0008 C0ED1B7A 		vstr.32	s15, [r0, #108]	@ int
 660 000c 7047     		bx	lr
 661              		.size	attitude_ref_quat_int_set_max_r, .-attitude_ref_quat_int_set_max_r
 662 000e 00BF     		.section	.text.attitude_ref_quat_int_set_max_pdot,"ax",%progbits
 663              		.align	1
 664              		.p2align 4,,15
 665              		.global	attitude_ref_quat_int_set_max_pdot
 666              		.syntax unified
 667              		.thumb
 668              		.thumb_func
 669              		.fpu fpv4-sp-d16
 670              		.type	attitude_ref_quat_int_set_max_pdot, %function
 671              	attitude_ref_quat_int_set_max_pdot:
 672              		@ args = 0, pretend = 0, frame = 0
 673              		@ frame_needed = 0, uses_anonymous_args = 0
 674              		@ link register save eliminated.
 675 0000 07EE901A 		vmov	s15, r1
 676 0004 FEEECA7A 		vcvt.s32.f32	s15, s15, #12
 677 0008 C0ED1C7A 		vstr.32	s15, [r0, #112]	@ int
 678 000c 7047     		bx	lr
 679              		.size	attitude_ref_quat_int_set_max_pdot, .-attitude_ref_quat_int_set_max_pdot
 680 000e 00BF     		.section	.text.attitude_ref_quat_int_set_max_qdot,"ax",%progbits
 681              		.align	1
 682              		.p2align 4,,15
 683              		.global	attitude_ref_quat_int_set_max_qdot
 684              		.syntax unified
ARM GAS  /tmp/ccNRXmlZ.s 			page 13


 685              		.thumb
 686              		.thumb_func
 687              		.fpu fpv4-sp-d16
 688              		.type	attitude_ref_quat_int_set_max_qdot, %function
 689              	attitude_ref_quat_int_set_max_qdot:
 690              		@ args = 0, pretend = 0, frame = 0
 691              		@ frame_needed = 0, uses_anonymous_args = 0
 692              		@ link register save eliminated.
 693 0000 07EE901A 		vmov	s15, r1
 694 0004 FEEECA7A 		vcvt.s32.f32	s15, s15, #12
 695 0008 C0ED1D7A 		vstr.32	s15, [r0, #116]	@ int
 696 000c 7047     		bx	lr
 697              		.size	attitude_ref_quat_int_set_max_qdot, .-attitude_ref_quat_int_set_max_qdot
 698 000e 00BF     		.section	.text.attitude_ref_quat_int_set_max_rdot,"ax",%progbits
 699              		.align	1
 700              		.p2align 4,,15
 701              		.global	attitude_ref_quat_int_set_max_rdot
 702              		.syntax unified
 703              		.thumb
 704              		.thumb_func
 705              		.fpu fpv4-sp-d16
 706              		.type	attitude_ref_quat_int_set_max_rdot, %function
 707              	attitude_ref_quat_int_set_max_rdot:
 708              		@ args = 0, pretend = 0, frame = 0
 709              		@ frame_needed = 0, uses_anonymous_args = 0
 710              		@ link register save eliminated.
 711 0000 07EE901A 		vmov	s15, r1
 712 0004 FEEECA7A 		vcvt.s32.f32	s15, s15, #12
 713 0008 C0ED1E7A 		vstr.32	s15, [r0, #120]	@ int
 714 000c 7047     		bx	lr
 715              		.size	attitude_ref_quat_int_set_max_rdot, .-attitude_ref_quat_int_set_max_rdot
 716 000e 00BF     		.ident	"GCC: (15:10.3-2021.07-4) 10.3.1 20210621 (release)"
ARM GAS  /tmp/ccNRXmlZ.s 			page 14

