ARM GAS  /tmp/ccdbm2mh.s 			page 1


   1              		.cpu cortex-m4
   2              		.eabi_attribute 27, 1
   3              		.eabi_attribute 20, 1
   4              		.eabi_attribute 21, 1
   5              		.eabi_attribute 23, 3
   6              		.eabi_attribute 24, 1
   7              		.eabi_attribute 25, 1
   8              		.eabi_attribute 26, 1
   9              		.eabi_attribute 30, 2
  10              		.eabi_attribute 34, 1
  11              		.eabi_attribute 18, 4
  12              		.file	"stabilization_attitude_quat_transformations.c"
  13              		.text
  14              		.section	.text.quat_from_rpy_cmd_i,"ax",%progbits
  15              		.align	1
  16              		.p2align 4,,15
  17              		.global	quat_from_rpy_cmd_i
  18              		.arch armv7e-m
  19              		.syntax unified
  20              		.thumb
  21              		.thumb_func
  22              		.fpu fpv4-sp-d16
  23              		.type	quat_from_rpy_cmd_i, %function
  24              	quat_from_rpy_cmd_i:
  25              		@ args = 0, pretend = 0, frame = 32
  26              		@ frame_needed = 0, uses_anonymous_args = 0
  27 0000 10B5     		push	{r4, lr}
  28 0002 91ED017A 		vldr.32	s14, [r1, #4]	@ int
  29 0006 D1ED027A 		vldr.32	s15, [r1, #8]	@ int
  30 000a D1ED006A 		vldr.32	s13, [r1]	@ int
  31 000e 9FED1A6A 		vldr.32	s12, .L4
  32 0012 B8EEC77A 		vcvt.f32.s32	s14, s14
  33 0016 F8EEE77A 		vcvt.f32.s32	s15, s15
  34 001a F8EEE66A 		vcvt.f32.s32	s13, s13
  35 001e 88B0     		sub	sp, sp, #32
  36 0020 27EE067A 		vmul.f32	s14, s14, s12
  37 0024 67EE867A 		vmul.f32	s15, s15, s12
  38 0028 66EE866A 		vmul.f32	s13, s13, s12
  39 002c 0446     		mov	r4, r0
  40 002e 01A9     		add	r1, sp, #4
  41 0030 04A8     		add	r0, sp, #16
  42 0032 CDED016A 		vstr.32	s13, [sp, #4]
  43 0036 8DED027A 		vstr.32	s14, [sp, #8]
  44 003a CDED037A 		vstr.32	s15, [sp, #12]
  45 003e FFF7FEFF 		bl	float_quat_of_orientation_vect
  46 0042 9DED046A 		vldr.32	s12, [sp, #16]
  47 0046 DDED056A 		vldr.32	s13, [sp, #20]
  48 004a 9DED067A 		vldr.32	s14, [sp, #24]
  49 004e DDED077A 		vldr.32	s15, [sp, #28]
  50 0052 BEEEE86A 		vcvt.s32.f32	s12, s12, #15
  51 0056 FEEEE86A 		vcvt.s32.f32	s13, s13, #15
  52 005a BEEEE87A 		vcvt.s32.f32	s14, s14, #15
  53 005e FEEEE87A 		vcvt.s32.f32	s15, s15, #15
  54 0062 84ED006A 		vstr.32	s12, [r4]	@ int
  55 0066 C4ED016A 		vstr.32	s13, [r4, #4]	@ int
  56 006a 84ED027A 		vstr.32	s14, [r4, #8]	@ int
  57 006e C4ED037A 		vstr.32	s15, [r4, #12]	@ int
ARM GAS  /tmp/ccdbm2mh.s 			page 2


  58 0072 08B0     		add	sp, sp, #32
  59              		@ sp needed
  60 0074 10BD     		pop	{r4, pc}
  61              	.L5:
  62 0076 00BF     		.align	2
  63              	.L4:
  64 0078 00008039 		.word	964689920
  65              		.size	quat_from_rpy_cmd_i, .-quat_from_rpy_cmd_i
  66              		.section	.text.quat_from_rpy_cmd_f,"ax",%progbits
  67              		.align	1
  68              		.p2align 4,,15
  69              		.global	quat_from_rpy_cmd_f
  70              		.syntax unified
  71              		.thumb
  72              		.thumb_func
  73              		.fpu fpv4-sp-d16
  74              		.type	quat_from_rpy_cmd_f, %function
  75              	quat_from_rpy_cmd_f:
  76              		@ args = 0, pretend = 0, frame = 16
  77              		@ frame_needed = 0, uses_anonymous_args = 0
  78 0000 00B5     		push	{lr}
  79 0002 85B0     		sub	sp, sp, #20
  80 0004 D1F800C0 		ldr	ip, [r1]	@ float
  81 0008 4A68     		ldr	r2, [r1, #4]	@ float
  82 000a 8B68     		ldr	r3, [r1, #8]	@ float
  83 000c CDF804C0 		str	ip, [sp, #4]	@ float
  84 0010 01A9     		add	r1, sp, #4
  85 0012 0292     		str	r2, [sp, #8]	@ float
  86 0014 0393     		str	r3, [sp, #12]	@ float
  87 0016 FFF7FEFF 		bl	float_quat_of_orientation_vect
  88 001a 05B0     		add	sp, sp, #20
  89              		@ sp needed
  90 001c 5DF804FB 		ldr	pc, [sp], #4
  91              		.size	quat_from_rpy_cmd_f, .-quat_from_rpy_cmd_f
  92              		.global	__aeabi_f2d
  93              		.global	__aeabi_dmul
  94              		.global	__aeabi_d2f
  95              		.section	.text.quat_from_earth_cmd_f,"ax",%progbits
  96              		.align	1
  97              		.p2align 4,,15
  98              		.global	quat_from_earth_cmd_f
  99              		.syntax unified
 100              		.thumb
 101              		.thumb_func
 102              		.fpu fpv4-sp-d16
 103              		.type	quat_from_earth_cmd_f, %function
 104              	quat_from_earth_cmd_f:
 105              		@ args = 0, pretend = 0, frame = 88
 106              		@ frame_needed = 0, uses_anonymous_args = 0
 107 0000 30B5     		push	{r4, r5, lr}
 108 0002 2DED088B 		vpush.64	{d8, d9, d10, d11}
 109 0006 D1ED007A 		vldr.32	s15, [r1]
 110 000a DFED799A 		vldr.32	s19, .L29
 111 000e 4B68     		ldr	r3, [r1, #4]	@ float
 112 0010 97B0     		sub	sp, sp, #92
 113 0012 F1EE677A 		vneg.f32	s15, s15
 114 0016 02A9     		add	r1, sp, #8
ARM GAS  /tmp/ccdbm2mh.s 			page 3


 115 0018 0446     		mov	r4, r0
 116 001a 05A8     		add	r0, sp, #20
 117 001c 1546     		mov	r5, r2	@ float
 118 001e CDED037A 		vstr.32	s15, [sp, #12]
 119 0022 0293     		str	r3, [sp, #8]	@ float
 120 0024 CDED049A 		vstr.32	s19, [sp, #16]
 121 0028 FFF7FEFF 		bl	float_quat_of_orientation_vect
 122 002c 05A9     		add	r1, sp, #20
 123 002e 0DA8     		add	r0, sp, #52
 124 0030 FFF7FEFF 		bl	float_rmat_of_quat
 125 0034 2846     		mov	r0, r5	@ float
 126 0036 FFF7FEFF 		bl	cosf
 127 003a 0346     		mov	r3, r0	@ float
 128 003c 2846     		mov	r0, r5	@ float
 129 003e 09EE103A 		vmov	s18, r3
 130 0042 FFF7FEFF 		bl	sinf
 131 0046 DDED148A 		vldr.32	s17, [sp, #80]
 132 004a 9DED13BA 		vldr.32	s22, [sp, #76]
 133 004e DDED15AA 		vldr.32	s21, [sp, #84]
 134 0052 9DED0E5A 		vldr.32	s10, [sp, #56]
 135 0056 9DED0D8A 		vldr.32	s16, [sp, #52]
 136 005a DDED0F5A 		vldr.32	s11, [sp, #60]
 137 005e 07EE100A 		vmov	s14, r0
 138 0062 68EE877A 		vmul.f32	s15, s17, s14
 139 0066 65EE076A 		vmul.f32	s13, s10, s14
 140 006a EBEE097A 		vfma.f32	s15, s22, s18
 141 006e 27EE65AA 		vnmul.f32	s20, s14, s11
 142 0072 EAEEA97A 		vfma.f32	s15, s21, s19
 143 0076 69EE459A 		vnmul.f32	s19, s18, s10
 144 007a F1EE677A 		vneg.f32	s15, s15
 145 007e 87EEAA6A 		vdiv.f32	s12, s15, s21
 146 0082 F0EE667A 		vmov.f32	s15, s13
 147 0086 E8EE097A 		vfma.f32	s15, s16, s18
 148 008a E8EE079A 		vfma.f32	s19, s16, s14
 149 008e 26EE488A 		vnmul.f32	s16, s12, s16
 150 0092 E5EE867A 		vfma.f32	s15, s11, s12
 151 0096 A5EE898A 		vfma.f32	s16, s11, s18
 152 009a A5EE06AA 		vfma.f32	s20, s10, s12
 153 009e B0EE679A 		vmov.f32	s18, s15
 154 00a2 68EE087A 		vmul.f32	s15, s16, s16
 155 00a6 EAEE0A7A 		vfma.f32	s15, s20, s20
 156 00aa E9EEA97A 		vfma.f32	s15, s19, s19
 157 00ae F5EE407A 		vcmp.f32	s15, #0
 158 00b2 F1EE10FA 		vmrs	APSR_nzcv, FPSCR
 159 00b6 00F19480 		bmi	.L26
 160 00ba F1EEE7BA 		vsqrt.f32	s23, s15
 161              	.L11:
 162 00be 19EE100A 		vmov	r0, s18
 163 00c2 FFF7FEFF 		bl	__aeabi_f2d
 164 00c6 0246     		mov	r2, r0
 165 00c8 0B46     		mov	r3, r1
 166 00ca 1BEE900A 		vmov	r0, s23
 167 00ce CDE90023 		strd	r2, [sp]
 168 00d2 FFF7FEFF 		bl	__aeabi_f2d
 169 00d6 DDE90023 		ldrd	r2, [sp]
 170 00da FFF7FEFF 		bl	atan2
 171 00de 68EE888A 		vmul.f32	s17, s17, s16
ARM GAS  /tmp/ccdbm2mh.s 			page 4


 172 00e2 444B     		ldr	r3, .L29+4
 173 00e4 EBEE0A8A 		vfma.f32	s17, s22, s20
 174 00e8 0022     		movs	r2, #0
 175 00ea FFF7FEFF 		bl	__aeabi_dmul
 176 00ee EAEEA98A 		vfma.f32	s17, s21, s19
 177 00f2 FFF7FEFF 		bl	__aeabi_d2f
 178 00f6 F5EEC08A 		vcmpe.f32	s17, #0
 179 00fa F1EE10FA 		vmrs	APSR_nzcv, FPSCR
 180 00fe 0546     		mov	r5, r0	@ float
 181 0100 48BF     		it	mi
 182 0102 80F00045 		eormi	r5, r0, #-2147483648
 183 0106 2846     		mov	r0, r5	@ float
 184 0108 FFF7FEFF 		bl	cosf
 185 010c 0023     		movs	r3, #0
 186 010e 0246     		mov	r2, r0	@ float
 187 0110 2846     		mov	r0, r5	@ float
 188 0112 0992     		str	r2, [sp, #36]	@ float
 189 0114 0A93     		str	r3, [sp, #40]	@ float
 190 0116 0B93     		str	r3, [sp, #44]	@ float
 191 0118 FFF7FEFF 		bl	sinf
 192 011c 09AA     		add	r2, sp, #36
 193 011e 0346     		mov	r3, r0	@ float
 194 0120 05A9     		add	r1, sp, #20
 195 0122 2046     		mov	r0, r4
 196 0124 0C93     		str	r3, [sp, #48]	@ float
 197 0126 FFF7FEFF 		bl	float_quat_comp
 198 012a D4ED017A 		vldr.32	s15, [r4, #4]
 199 012e 94ED007A 		vldr.32	s14, [r4]
 200 0132 94ED026A 		vldr.32	s12, [r4, #8]
 201 0136 D4ED036A 		vldr.32	s13, [r4, #12]
 202 013a 67EEA77A 		vmul.f32	s15, s15, s15
 203 013e E7EE077A 		vfma.f32	s15, s14, s14
 204 0142 E6EE067A 		vfma.f32	s15, s12, s12
 205 0146 E6EEA67A 		vfma.f32	s15, s13, s13
 206 014a F5EE407A 		vcmp.f32	s15, #0
 207 014e F1EE10FA 		vmrs	APSR_nzcv, FPSCR
 208 0152 3DD4     		bmi	.L27
 209 0154 F1EEE76A 		vsqrt.f32	s13, s15
 210              	.L16:
 211 0158 DFED277A 		vldr.32	s15, .L29+8
 212 015c F4EEE76A 		vcmpe.f32	s13, s15
 213 0160 F1EE10FA 		vmrs	APSR_nzcv, FPSCR
 214 0164 15DD     		ble	.L17
 215 0166 94ED016A 		vldr.32	s12, [r4, #4]
 216 016a D4ED027A 		vldr.32	s15, [r4, #8]
 217 016e 94ED035A 		vldr.32	s10, [r4, #12]
 218 0172 C6EE265A 		vdiv.f32	s11, s12, s13
 219 0176 87EE267A 		vdiv.f32	s14, s14, s13
 220 017a 87EEA66A 		vdiv.f32	s12, s15, s13
 221 017e C5EE267A 		vdiv.f32	s15, s10, s13
 222 0182 84ED007A 		vstr.32	s14, [r4]
 223 0186 C4ED015A 		vstr.32	s11, [r4, #4]
 224 018a 84ED026A 		vstr.32	s12, [r4, #8]
 225 018e C4ED037A 		vstr.32	s15, [r4, #12]
 226              	.L17:
 227 0192 B5EEC07A 		vcmpe.f32	s14, #0
 228 0196 F1EE10FA 		vmrs	APSR_nzcv, FPSCR
ARM GAS  /tmp/ccdbm2mh.s 			page 5


 229 019a 15D5     		bpl	.L8
 230 019c 94ED016A 		vldr.32	s12, [r4, #4]
 231 01a0 D4ED026A 		vldr.32	s13, [r4, #8]
 232 01a4 D4ED037A 		vldr.32	s15, [r4, #12]
 233 01a8 B1EE477A 		vneg.f32	s14, s14
 234 01ac B1EE466A 		vneg.f32	s12, s12
 235 01b0 F1EE666A 		vneg.f32	s13, s13
 236 01b4 F1EE677A 		vneg.f32	s15, s15
 237 01b8 84ED007A 		vstr.32	s14, [r4]
 238 01bc 84ED016A 		vstr.32	s12, [r4, #4]
 239 01c0 C4ED026A 		vstr.32	s13, [r4, #8]
 240 01c4 C4ED037A 		vstr.32	s15, [r4, #12]
 241              	.L8:
 242 01c8 17B0     		add	sp, sp, #92
 243              		@ sp needed
 244 01ca BDEC088B 		vldm	sp!, {d8-d11}
 245 01ce 30BD     		pop	{r4, r5, pc}
 246              	.L27:
 247 01d0 17EE900A 		vmov	r0, s15
 248 01d4 FFF7FEFF 		bl	sqrtf
 249 01d8 94ED007A 		vldr.32	s14, [r4]
 250 01dc 06EE900A 		vmov	s13, r0
 251 01e0 BAE7     		b	.L16
 252              	.L26:
 253 01e2 17EE900A 		vmov	r0, s15
 254 01e6 FFF7FEFF 		bl	sqrtf
 255 01ea 0BEE900A 		vmov	s23, r0
 256 01ee 66E7     		b	.L11
 257              	.L30:
 258              		.align	2
 259              	.L29:
 260 01f0 00000000 		.word	0
 261 01f4 0000E03F 		.word	1071644672
 262 01f8 00008000 		.word	8388608
 263              		.size	quat_from_earth_cmd_f, .-quat_from_earth_cmd_f
 264              		.section	.text.quat_from_earth_cmd_i,"ax",%progbits
 265              		.align	1
 266              		.p2align 4,,15
 267              		.global	quat_from_earth_cmd_i
 268              		.syntax unified
 269              		.thumb
 270              		.thumb_func
 271              		.fpu fpv4-sp-d16
 272              		.type	quat_from_earth_cmd_i, %function
 273              	quat_from_earth_cmd_i:
 274              		@ args = 0, pretend = 0, frame = 24
 275              		@ frame_needed = 0, uses_anonymous_args = 0
 276 0000 10B5     		push	{r4, lr}
 277 0002 91ED007A 		vldr.32	s14, [r1]	@ int
 278 0006 D1ED017A 		vldr.32	s15, [r1, #4]	@ int
 279 000a DFED1B6A 		vldr.32	s13, .L33
 280 000e 06EE102A 		vmov	s12, r2	@ int
 281 0012 B8EEC77A 		vcvt.f32.s32	s14, s14
 282 0016 B8EEC66A 		vcvt.f32.s32	s12, s12
 283 001a F8EEE77A 		vcvt.f32.s32	s15, s15
 284 001e 27EE267A 		vmul.f32	s14, s14, s13
 285 0022 67EEA67A 		vmul.f32	s15, s15, s13
ARM GAS  /tmp/ccdbm2mh.s 			page 6


 286 0026 66EE266A 		vmul.f32	s13, s12, s13
 287 002a 86B0     		sub	sp, sp, #24
 288 002c 0446     		mov	r4, r0
 289 002e 16EE902A 		vmov	r2, s13
 290 0032 6946     		mov	r1, sp
 291 0034 02A8     		add	r0, sp, #8
 292 0036 8DED007A 		vstr.32	s14, [sp]
 293 003a CDED017A 		vstr.32	s15, [sp, #4]
 294 003e FFF7FEFF 		bl	quat_from_earth_cmd_f
 295 0042 9DED026A 		vldr.32	s12, [sp, #8]
 296 0046 DDED036A 		vldr.32	s13, [sp, #12]
 297 004a 9DED047A 		vldr.32	s14, [sp, #16]
 298 004e DDED057A 		vldr.32	s15, [sp, #20]
 299 0052 BEEEE86A 		vcvt.s32.f32	s12, s12, #15
 300 0056 FEEEE86A 		vcvt.s32.f32	s13, s13, #15
 301 005a BEEEE87A 		vcvt.s32.f32	s14, s14, #15
 302 005e FEEEE87A 		vcvt.s32.f32	s15, s15, #15
 303 0062 84ED006A 		vstr.32	s12, [r4]	@ int
 304 0066 C4ED016A 		vstr.32	s13, [r4, #4]	@ int
 305 006a 84ED027A 		vstr.32	s14, [r4, #8]	@ int
 306 006e C4ED037A 		vstr.32	s15, [r4, #12]	@ int
 307 0072 06B0     		add	sp, sp, #24
 308              		@ sp needed
 309 0074 10BD     		pop	{r4, pc}
 310              	.L34:
 311 0076 00BF     		.align	2
 312              	.L33:
 313 0078 00008039 		.word	964689920
 314              		.size	quat_from_earth_cmd_i, .-quat_from_earth_cmd_i
 315              		.ident	"GCC: (15:10.3-2021.07-4) 10.3.1 20210621 (release)"
ARM GAS  /tmp/ccdbm2mh.s 			page 7

