ARM GAS  /tmp/ccA6cClP.s 			page 1


   1              		.cpu cortex-m4
   2              		.eabi_attribute 27, 1
   3              		.eabi_attribute 20, 1
   4              		.eabi_attribute 21, 1
   5              		.eabi_attribute 23, 3
   6              		.eabi_attribute 24, 1
   7              		.eabi_attribute 25, 1
   8              		.eabi_attribute 26, 1
   9              		.eabi_attribute 30, 2
  10              		.eabi_attribute 34, 1
  11              		.eabi_attribute 18, 4
  12              		.file	"syslink_dl.c"
  13              		.text
  14              		.section	.text.syslink_getch,"ax",%progbits
  15              		.align	1
  16              		.p2align 4,,15
  17              		.arch armv7e-m
  18              		.syntax unified
  19              		.thumb
  20              		.thumb_func
  21              		.fpu fpv4-sp-d16
  22              		.type	syslink_getch, %function
  23              	syslink_getch:
  24              		@ args = 0, pretend = 0, frame = 0
  25              		@ frame_needed = 0, uses_anonymous_args = 0
  26              		@ link register save eliminated.
  27 0000 90F83F23 		ldrb	r2, [r0, #831]	@ zero_extendqisi2
  28 0004 0346     		mov	r3, r0
  29 0006 8118     		adds	r1, r0, r2
  30 0008 0132     		adds	r2, r2, #1
  31 000a 91F83E02 		ldrb	r0, [r1, #574]	@ zero_extendqisi2
  32 000e 83F83F23 		strb	r2, [r3, #831]
  33 0012 7047     		bx	lr
  34              		.size	syslink_getch, .-syslink_getch
  35              		.section	.text.syslink_char_available,"ax",%progbits
  36              		.align	1
  37              		.p2align 4,,15
  38              		.syntax unified
  39              		.thumb
  40              		.thumb_func
  41              		.fpu fpv4-sp-d16
  42              		.type	syslink_char_available, %function
  43              	syslink_char_available:
  44              		@ args = 0, pretend = 0, frame = 0
  45              		@ frame_needed = 0, uses_anonymous_args = 0
  46              		@ link register save eliminated.
  47 0000 90F83E33 		ldrb	r3, [r0, #830]	@ zero_extendqisi2
  48 0004 90F83F03 		ldrb	r0, [r0, #831]	@ zero_extendqisi2
  49 0008 181A     		subs	r0, r3, r0
  50 000a 48BF     		it	mi
  51 000c 00F58070 		addmi	r0, r0, #256
  52 0010 7047     		bx	lr
  53              		.size	syslink_char_available, .-syslink_char_available
  54 0012 00BF     		.section	.text.syslink_send_message,"ax",%progbits
  55              		.align	1
  56              		.p2align 4,,15
  57              		.syntax unified
ARM GAS  /tmp/ccA6cClP.s 			page 2


  58              		.thumb
  59              		.thumb_func
  60              		.fpu fpv4-sp-d16
  61              		.type	syslink_send_message, %function
  62              	syslink_send_message:
  63              		@ args = 0, pretend = 0, frame = 0
  64              		@ frame_needed = 0, uses_anonymous_args = 0
  65              		@ link register save eliminated.
  66 0000 0148     		ldr	r0, .L6
  67 0002 FFF7FEBF 		b	chMtxUnlock
  68              	.L7:
  69 0006 00BF     		.align	2
  70              	.L6:
  71 0008 00000000 		.word	.LANCHOR0
  72              		.size	syslink_send_message, .-syslink_send_message
  73              		.section	.text.syslink_put_buffer,"ax",%progbits
  74              		.align	1
  75              		.p2align 4,,15
  76              		.syntax unified
  77              		.thumb
  78              		.thumb_func
  79              		.fpu fpv4-sp-d16
  80              		.type	syslink_put_buffer, %function
  81              	syslink_put_buffer:
  82              		@ args = 0, pretend = 0, frame = 0
  83              		@ frame_needed = 0, uses_anonymous_args = 0
  84 0000 002B     		cmp	r3, #0
  85 0002 4DD0     		beq	.L18
  86 0004 2DE9F84F 		push	{r3, r4, r5, r6, r7, r8, r9, r10, fp, lr}
  87 0008 0546     		mov	r5, r0
  88 000a 9046     		mov	r8, r2
  89 000c 1F46     		mov	r7, r3
  90 000e 1C46     		mov	r4, r3
  91 0010 4FF02109 		mov	r9, #33
  92              	.L12:
  93 0014 95F83C32 		ldrb	r3, [r5, #572]	@ zero_extendqisi2
  94 0018 03EB4316 		add	r6, r3, r3, lsl #5
  95 001c 2E44     		add	r6, r6, r5
  96 001e 03F1010C 		add	ip, r3, #1
  97 0022 96F82CE0 		ldrb	lr, [r6, #44]	@ zero_extendqisi2
  98 0026 0CF00F0A 		and	r10, ip, #15
  99 002a 0AEB4A1B 		add	fp, r10, r10, lsl #5
 100 002e 391B     		subs	r1, r7, r4
 101 0030 0BF12E00 		add	r0, fp, #46
 102 0034 BEF11E0F 		cmp	lr, #30
 103 0038 4144     		add	r1, r1, r8
 104 003a 2844     		add	r0, r0, r5
 105 003c 17D9     		bls	.L21
 106 003e 95F83D32 		ldrb	r3, [r5, #573]	@ zero_extendqisi2
 107 0042 5345     		cmp	r3, r10
 108 0044 11D0     		beq	.L8
 109 0046 1F2C     		cmp	r4, #31
 110 0048 2646     		mov	r6, r4
 111 004a 28BF     		it	cs
 112 004c 1F26     		movcs	r6, #31
 113 004e 3246     		mov	r2, r6
 114 0050 FFF7FEFF 		bl	memcpy
ARM GAS  /tmp/ccA6cClP.s 			page 3


 115 0054 A41B     		subs	r4, r4, r6
 116 0056 05EB0B0C 		add	ip, r5, fp
 117 005a 731C     		adds	r3, r6, #1
 118 005c A4B2     		uxth	r4, r4
 119 005e 8CF82C30 		strb	r3, [ip, #44]
 120 0062 85F83CA2 		strb	r10, [r5, #572]
 121 0066 002C     		cmp	r4, #0
 122 0068 D4D1     		bne	.L12
 123              	.L8:
 124 006a BDE8F88F 		pop	{r3, r4, r5, r6, r7, r8, r9, r10, fp, pc}
 125              	.L21:
 126 006e CEF11F0A 		rsb	r10, lr, #31
 127 0072 19FB03E0 		smlabb	r0, r9, r3, lr
 128 0076 A245     		cmp	r10, r4
 129 0078 A8BF     		it	ge
 130 007a A246     		movge	r10, r4
 131 007c 391B     		subs	r1, r7, r4
 132 007e 2D30     		adds	r0, r0, #45
 133 0080 2844     		add	r0, r0, r5
 134 0082 4144     		add	r1, r1, r8
 135 0084 5246     		mov	r2, r10
 136 0086 FFF7FEFF 		bl	memcpy
 137 008a 96F82C30 		ldrb	r3, [r6, #44]	@ zero_extendqisi2
 138 008e A4EB0A04 		sub	r4, r4, r10
 139 0092 5344     		add	r3, r3, r10
 140 0094 A4B2     		uxth	r4, r4
 141 0096 86F82C30 		strb	r3, [r6, #44]
 142 009a 002C     		cmp	r4, #0
 143 009c BAD1     		bne	.L12
 144 009e E4E7     		b	.L8
 145              	.L18:
 146 00a0 7047     		bx	lr
 147              		.size	syslink_put_buffer, .-syslink_put_buffer
 148 00a2 00BF     		.section	.text.syslink_put_byte,"ax",%progbits
 149              		.align	1
 150              		.p2align 4,,15
 151              		.syntax unified
 152              		.thumb
 153              		.thumb_func
 154              		.fpu fpv4-sp-d16
 155              		.type	syslink_put_byte, %function
 156              	syslink_put_byte:
 157              		@ args = 0, pretend = 0, frame = 8
 158              		@ frame_needed = 0, uses_anonymous_args = 0
 159 0000 00B5     		push	{lr}
 160 0002 83B0     		sub	sp, sp, #12
 161 0004 9446     		mov	ip, r2
 162 0006 0123     		movs	r3, #1
 163 0008 0DF10702 		add	r2, sp, #7
 164 000c 8DF807C0 		strb	ip, [sp, #7]
 165 0010 FFF7FEFF 		bl	syslink_put_buffer
 166 0014 03B0     		add	sp, sp, #12
 167              		@ sp needed
 168 0016 5DF804FB 		ldr	pc, [sp], #4
 169              		.size	syslink_put_byte, .-syslink_put_byte
 170 001a 00BF     		.section	.text.syslink_check_free_space,"ax",%progbits
 171              		.align	1
ARM GAS  /tmp/ccA6cClP.s 			page 4


 172              		.p2align 4,,15
 173              		.syntax unified
 174              		.thumb
 175              		.thumb_func
 176              		.fpu fpv4-sp-d16
 177              		.type	syslink_check_free_space, %function
 178              	syslink_check_free_space:
 179              		@ args = 0, pretend = 0, frame = 0
 180              		@ frame_needed = 0, uses_anonymous_args = 0
 181 0000 10B5     		push	{r4, lr}
 182 0002 90F83D32 		ldrb	r3, [r0, #573]	@ zero_extendqisi2
 183 0006 90F83C02 		ldrb	r0, [r0, #572]	@ zero_extendqisi2
 184 000a 181A     		subs	r0, r3, r0
 185 000c 0028     		cmp	r0, #0
 186 000e D8BF     		it	le
 187 0010 1030     		addle	r0, r0, #16
 188 0012 441E     		subs	r4, r0, #1
 189 0014 C4EB4414 		rsb	r4, r4, r4, lsl #5
 190 0018 A242     		cmp	r2, r4
 191 001a 02DD     		ble	.L29
 192 001c 0024     		movs	r4, #0
 193 001e 2046     		mov	r0, r4
 194 0020 10BD     		pop	{r4, pc}
 195              	.L29:
 196 0022 0248     		ldr	r0, .L30
 197 0024 FFF7FEFF 		bl	chMtxLock
 198 0028 2046     		mov	r0, r4
 199 002a 10BD     		pop	{r4, pc}
 200              	.L31:
 201              		.align	2
 202              	.L30:
 203 002c 00000000 		.word	.LANCHOR0
 204              		.size	syslink_check_free_space, .-syslink_check_free_space
 205              		.section	.text.send_message,"ax",%progbits
 206              		.align	1
 207              		.p2align 4,,15
 208              		.syntax unified
 209              		.thumb
 210              		.thumb_func
 211              		.fpu fpv4-sp-d16
 212              		.type	send_message, %function
 213              	send_message:
 214              		@ args = 0, pretend = 0, frame = 40
 215              		@ frame_needed = 0, uses_anonymous_args = 0
 216 0000 30B5     		push	{r4, r5, lr}
 217 0002 8BB0     		sub	sp, sp, #44
 218 0004 0446     		mov	r4, r0
 219 0006 FFF7FEFF 		bl	syslink_compute_cksum
 220 000a 144B     		ldr	r3, .L38
 221 000c 6578     		ldrb	r5, [r4, #1]	@ zero_extendqisi2
 222 000e 1B68     		ldr	r3, [r3]
 223 0010 2278     		ldrb	r2, [r4]	@ zero_extendqisi2
 224 0012 1978     		ldrb	r1, [r3]	@ zero_extendqisi2
 225 0014 5B78     		ldrb	r3, [r3, #1]	@ zero_extendqisi2
 226 0016 8DF80010 		strb	r1, [sp]
 227 001a 8DF80130 		strb	r3, [sp, #1]
 228 001e 8DF80220 		strb	r2, [sp, #2]
ARM GAS  /tmp/ccA6cClP.s 			page 5


 229 0022 8DF80350 		strb	r5, [sp, #3]
 230 0026 25B1     		cbz	r5, .L33
 231 0028 2A46     		mov	r2, r5
 232 002a A11C     		adds	r1, r4, #2
 233 002c 01A8     		add	r0, sp, #4
 234 002e FFF7FEFF 		bl	memcpy
 235              	.L33:
 236 0032 05F12803 		add	r3, r5, #40
 237 0036 0DEB0301 		add	r1, sp, r3
 238 003a 94F82300 		ldrb	r0, [r4, #35]	@ zero_extendqisi2
 239 003e 94F822C0 		ldrb	ip, [r4, #34]	@ zero_extendqisi2
 240 0042 01F824CC 		strb	ip, [r1, #-36]
 241 0046 01F8230C 		strb	r0, [r1, #-35]
 242 004a AB1D     		adds	r3, r5, #6
 243 004c 0448     		ldr	r0, .L38+4
 244 004e 6A46     		mov	r2, sp
 245 0050 0021     		movs	r1, #0
 246 0052 FFF7FEFF 		bl	uart_put_buffer
 247 0056 0BB0     		add	sp, sp, #44
 248              		@ sp needed
 249 0058 30BD     		pop	{r4, r5, pc}
 250              	.L39:
 251 005a 00BF     		.align	2
 252              	.L38:
 253 005c 00000000 		.word	syslink_stx
 254 0060 00000000 		.word	uart6
 255              		.size	send_message, .-send_message
 256              		.section	.text.syslink_dl_init,"ax",%progbits
 257              		.align	1
 258              		.p2align 4,,15
 259              		.global	syslink_dl_init
 260              		.syntax unified
 261              		.thumb
 262              		.thumb_func
 263              		.fpu fpv4-sp-d16
 264              		.type	syslink_dl_init, %function
 265              	syslink_dl_init:
 266              		@ args = 0, pretend = 0, frame = 0
 267              		@ frame_needed = 0, uses_anonymous_args = 0
 268 0000 38B5     		push	{r3, r4, r5, lr}
 269 0002 1D4C     		ldr	r4, .L44
 270 0004 2046     		mov	r0, r4
 271 0006 FFF7FEFF 		bl	syslink_parse_init
 272 000a 0022     		movs	r2, #0
 273 000c 1346     		mov	r3, r2
 274 000e A4F83C22 		strh	r2, [r4, #572]	@ movhi
 275 0012 A4F86823 		strh	r2, [r4, #872]	@ movhi
 276 0016 84F86A23 		strb	r2, [r4, #874]
 277 001a 2046     		mov	r0, r4
 278 001c 1546     		mov	r5, r2
 279 001e 4FF0010E 		mov	lr, #1
 280              	.L41:
 281 0022 03EB4311 		add	r1, r3, r3, lsl #5
 282 0026 2144     		add	r1, r1, r4
 283 0028 80F82D50 		strb	r5, [r0, #45]
 284 002c 91F82DC0 		ldrb	ip, [r1, #45]	@ zero_extendqisi2
 285 0030 03F00302 		and	r2, r3, #3
ARM GAS  /tmp/ccA6cClP.s 			page 6


 286 0034 62F06F02 		orn	r2, r2, #111
 287 0038 0CF00C0C 		and	ip, ip, #12
 288 003c 0133     		adds	r3, r3, #1
 289 003e 2130     		adds	r0, r0, #33
 290 0040 42EA0C02 		orr	r2, r2, ip
 291 0044 102B     		cmp	r3, #16
 292 0046 81F82D20 		strb	r2, [r1, #45]
 293 004a 80F80BE0 		strb	lr, [r0, #11]
 294 004e E8D1     		bne	.L41
 295 0050 0A4A     		ldr	r2, .L44+4
 296 0052 0B4B     		ldr	r3, .L44+8
 297 0054 0B48     		ldr	r0, .L44+12
 298 0056 0C49     		ldr	r1, .L44+16
 299 0058 C4F85C43 		str	r4, [r4, #860]
 300 005c C4E9D023 		strd	r2, r3, [r4, #832]
 301 0060 0A4B     		ldr	r3, .L44+20
 302 0062 0B4A     		ldr	r2, .L44+24
 303 0064 C4E9D201 		strd	r0, r1, [r4, #840]
 304 0068 C4E9D423 		strd	r2, r3, [r4, #848]
 305 006c 0948     		ldr	r0, .L44+28
 306 006e BDE83840 		pop	{r3, r4, r5, lr}
 307 0072 FFF7FEBF 		b	chMtxObjectInit
 308              	.L45:
 309 0076 00BF     		.align	2
 310              	.L44:
 311 0078 00000000 		.word	.LANCHOR1
 312 007c 00000000 		.word	syslink_check_free_space
 313 0080 00000000 		.word	syslink_put_byte
 314 0084 00000000 		.word	syslink_put_buffer
 315 0088 00000000 		.word	syslink_send_message
 316 008c 00000000 		.word	syslink_getch
 317 0090 00000000 		.word	syslink_char_available
 318 0094 00000000 		.word	.LANCHOR0
 319              		.size	syslink_dl_init, .-syslink_dl_init
 320              		.section	.text.syslink_dl_periodic,"ax",%progbits
 321              		.align	1
 322              		.p2align 4,,15
 323              		.global	syslink_dl_periodic
 324              		.syntax unified
 325              		.thumb
 326              		.thumb_func
 327              		.fpu fpv4-sp-d16
 328              		.type	syslink_dl_periodic, %function
 329              	syslink_dl_periodic:
 330              		@ args = 0, pretend = 0, frame = 0
 331              		@ frame_needed = 0, uses_anonymous_args = 0
 332              		@ link register save eliminated.
 333 0000 0A4B     		ldr	r3, .L50
 334 0002 93F86923 		ldrb	r2, [r3, #873]	@ zero_extendqisi2
 335 0006 2AB1     		cbz	r2, .L47
 336 0008 094A     		ldr	r2, .L50+4
 337 000a 5369     		ldr	r3, [r2, #20]
 338 000c 83F00403 		eor	r3, r3, #4
 339 0010 5361     		str	r3, [r2, #20]
 340 0012 7047     		bx	lr
 341              	.L47:
 342 0014 93F86A33 		ldrb	r3, [r3, #874]	@ zero_extendqisi2
ARM GAS  /tmp/ccA6cClP.s 			page 7


 343 0018 1BB1     		cbz	r3, .L49
 344 001a 054B     		ldr	r3, .L50+4
 345 001c 0422     		movs	r2, #4
 346 001e 1A83     		strh	r2, [r3, #24]	@ movhi
 347 0020 7047     		bx	lr
 348              	.L49:
 349 0022 034B     		ldr	r3, .L50+4
 350 0024 0422     		movs	r2, #4
 351 0026 5A83     		strh	r2, [r3, #26]	@ movhi
 352 0028 7047     		bx	lr
 353              	.L51:
 354 002a 00BF     		.align	2
 355              	.L50:
 356 002c 00000000 		.word	.LANCHOR1
 357 0030 000C0240 		.word	1073875968
 358              		.size	syslink_dl_periodic, .-syslink_dl_periodic
 359              		.section	.rodata.syslink_dl_event.str1.4,"aMS",%progbits,1
 360              		.align	2
 361              	.LC0:
 362 0000 42697463 		.ascii	"Bitcraze PPRZ\000"
 362      72617A65 
 362      20505052 
 362      5A00
 363              		.section	.text.syslink_dl_event,"ax",%progbits
 364              		.align	1
 365              		.p2align 4,,15
 366              		.global	syslink_dl_event
 367              		.syntax unified
 368              		.thumb
 369              		.thumb_func
 370              		.fpu fpv4-sp-d16
 371              		.type	syslink_dl_event, %function
 372              	syslink_dl_event:
 373              		@ args = 0, pretend = 0, frame = 48
 374              		@ frame_needed = 0, uses_anonymous_args = 0
 375 0000 2DE9F04F 		push	{r4, r5, r6, r7, r8, r9, r10, fp, lr}
 376 0004 9F4E     		ldr	r6, .L102
 377 0006 A04C     		ldr	r4, .L102+4
 378 0008 DFF8A482 		ldr	r8, .L102+44
 379 000c 06F10805 		add	r5, r6, #8
 380 0010 8DB0     		sub	sp, sp, #52
 381 0012 06F11707 		add	r7, r6, #23
 382 0016 A946     		mov	r9, r5
 383 0018 08E0     		b	.L54
 384              	.L79:
 385 001a 2046     		mov	r0, r4
 386 001c FFF7FEFF 		bl	uart_getch
 387 0020 2A46     		mov	r2, r5
 388 0022 0146     		mov	r1, r0
 389 0024 9748     		ldr	r0, .L102
 390 0026 FFF7FEFF 		bl	syslink_parse_char
 391 002a 38B9     		cbnz	r0, .L94
 392              	.L54:
 393 002c 2046     		mov	r0, r4
 394 002e FFF7FEFF 		bl	uart_char_available
 395 0032 0028     		cmp	r0, #0
 396 0034 F1D1     		bne	.L79
ARM GAS  /tmp/ccA6cClP.s 			page 8


 397 0036 0DB0     		add	sp, sp, #52
 398              		@ sp needed
 399 0038 BDE8F08F 		pop	{r4, r5, r6, r7, r8, r9, r10, fp, pc}
 400              	.L94:
 401 003c 337A     		ldrb	r3, [r6, #8]	@ zero_extendqisi2
 402 003e 112B     		cmp	r3, #17
 403 0040 F4D0     		beq	.L54
 404 0042 132B     		cmp	r3, #19
 405 0044 14D0     		beq	.L95
 406 0046 9BB3     		cbz	r3, .L96
 407 0048 13F0F00F 		tst	r3, #240
 408 004c EED1     		bne	.L54
 409 004e 042B     		cmp	r3, #4
 410 0050 ECD1     		bne	.L54
 411 0052 B37A     		ldrb	r3, [r6, #10]	@ zero_extendqisi2
 412 0054 03EB8303 		add	r3, r3, r3, lsl #2
 413 0058 03EB8303 		add	r3, r3, r3, lsl #2
 414 005c 9B00     		lsls	r3, r3, #2
 415 005e 88FB0312 		smull	r1, r2, r8, r3
 416 0062 1344     		add	r3, r3, r2
 417 0064 5B11     		asrs	r3, r3, #5
 418 0066 5B42     		rsbs	r3, r3, #0
 419 0068 743B     		subs	r3, r3, #116
 420 006a 86F86833 		strb	r3, [r6, #872]
 421 006e DDE7     		b	.L54
 422              	.L95:
 423 0070 737A     		ldrb	r3, [r6, #9]	@ zero_extendqisi2
 424 0072 092B     		cmp	r3, #9
 425 0074 DAD1     		bne	.L54
 426 0076 B37A     		ldrb	r3, [r6, #10]	@ zero_extendqisi2
 427 0078 D6F80B20 		ldr	r2, [r6, #11]	@ unaligned
 428 007c 03F00201 		and	r1, r3, #2
 429 0080 0029     		cmp	r1, #0
 430 0082 03F00103 		and	r3, r3, #1
 431 0086 86F86933 		strb	r3, [r6, #873]
 432 008a 14BF     		ite	ne
 433 008c 0123     		movne	r3, #1
 434 008e 0023     		moveq	r3, #0
 435 0090 86F86A33 		strb	r3, [r6, #874]
 436 0094 00F09080 		beq	.L59
 437 0098 07EE902A 		vmov	s15, r2
 438 009c B0EE087A 		vmov.f32	s14, #3.0e+0
 439 00a0 F4EEC77A 		vcmpe.f32	s15, s14
 440 00a4 F1EE10FA 		vmrs	APSR_nzcv, FPSCR
 441 00a8 C0DD     		ble	.L54
 442 00aa 784B     		ldr	r3, .L102+8
 443 00ac 1A60     		str	r2, [r3]	@ float
 444 00ae BDE7     		b	.L54
 445              	.L96:
 446 00b0 B37A     		ldrb	r3, [r6, #10]	@ zero_extendqisi2
 447 00b2 03F0F302 		and	r2, r3, #243
 448 00b6 F32A     		cmp	r2, #243
 449 00b8 22D0     		beq	.L63
 450 00ba 03F0F002 		and	r2, r3, #240
 451 00be 302A     		cmp	r2, #48
 452 00c0 1ED0     		beq	.L63
 453 00c2 902A     		cmp	r2, #144
ARM GAS  /tmp/ccA6cClP.s 			page 9


 454 00c4 51D1     		bne	.L65
 455 00c6 D6F85033 		ldr	r3, [r6, #848]
 456 00ca 96F809A0 		ldrb	r10, [r6, #9]	@ zero_extendqisi2
 457 00ce 3046     		mov	r0, r6
 458 00d0 9847     		blx	r3
 459 00d2 C0F58070 		rsb	r0, r0, #256
 460 00d6 83B2     		uxth	r3, r0
 461 00d8 5345     		cmp	r3, r10
 462 00da 11D9     		bls	.L63
 463 00dc 96F83E33 		ldrb	r3, [r6, #830]	@ zero_extendqisi2
 464 00e0 03EB0A02 		add	r2, r3, r10
 465 00e4 FF2A     		cmp	r2, #255
 466 00e6 7DDC     		bgt	.L66
 467 00e8 03F23E23 		addw	r3, r3, #574
 468 00ec 6849     		ldr	r1, .L102+12
 469 00ee F018     		adds	r0, r6, r3
 470 00f0 5246     		mov	r2, r10
 471 00f2 FFF7FEFF 		bl	memcpy
 472              	.L67:
 473 00f6 96F83E33 		ldrb	r3, [r6, #830]	@ zero_extendqisi2
 474 00fa 9A44     		add	r10, r10, r3
 475 00fc 86F83EA3 		strb	r10, [r6, #830]
 476              	.L63:
 477 0100 96F83D22 		ldrb	r2, [r6, #573]	@ zero_extendqisi2
 478 0104 96F83C32 		ldrb	r3, [r6, #572]	@ zero_extendqisi2
 479 0108 9A42     		cmp	r2, r3
 480 010a 8FD0     		beq	.L54
 481 010c 6148     		ldr	r0, .L102+16
 482 010e FFF7FEFF 		bl	chMtxLock
 483 0112 96F83D12 		ldrb	r1, [r6, #573]	@ zero_extendqisi2
 484 0116 2123     		movs	r3, #33
 485 0118 03FB0161 		mla	r1, r3, r1, r6
 486 011c 0023     		movs	r3, #0
 487 011e 8DF80C30 		strb	r3, [sp, #12]
 488 0122 0DF10D02 		add	r2, sp, #13
 489 0126 01F12C03 		add	r3, r1, #44
 490 012a 4C31     		adds	r1, r1, #76
 491              	.L76:
 492 012c 1868     		ldr	r0, [r3]	@ unaligned
 493 012e 1060     		str	r0, [r2]	@ unaligned
 494 0130 5868     		ldr	r0, [r3, #4]	@ unaligned
 495 0132 5060     		str	r0, [r2, #4]	@ unaligned
 496 0134 9868     		ldr	r0, [r3, #8]	@ unaligned
 497 0136 9060     		str	r0, [r2, #8]	@ unaligned
 498 0138 D868     		ldr	r0, [r3, #12]	@ unaligned
 499 013a D060     		str	r0, [r2, #12]	@ unaligned
 500 013c 1033     		adds	r3, r3, #16
 501 013e 8B42     		cmp	r3, r1
 502 0140 02F11002 		add	r2, r2, #16
 503 0144 F2D1     		bne	.L76
 504 0146 1B78     		ldrb	r3, [r3]	@ zero_extendqisi2
 505 0148 1370     		strb	r3, [r2]
 506 014a 03A8     		add	r0, sp, #12
 507 014c FFF7FEFF 		bl	send_message
 508 0150 96F83D32 		ldrb	r3, [r6, #573]	@ zero_extendqisi2
 509 0154 4F48     		ldr	r0, .L102+16
 510 0156 0133     		adds	r3, r3, #1
ARM GAS  /tmp/ccA6cClP.s 			page 10


 511 0158 DBB2     		uxtb	r3, r3
 512 015a 102B     		cmp	r3, #16
 513 015c 08BF     		it	eq
 514 015e 0023     		moveq	r3, #0
 515 0160 86F83D32 		strb	r3, [r6, #573]
 516 0164 FFF7FEFF 		bl	chMtxUnlock
 517 0168 60E7     		b	.L54
 518              	.L65:
 519 016a 502A     		cmp	r2, #80
 520 016c 27D0     		beq	.L97
 521 016e 402A     		cmp	r2, #64
 522 0170 51D0     		beq	.L98
 523 0172 202A     		cmp	r2, #32
 524 0174 5ED0     		beq	.L99
 525 0176 F02A     		cmp	r2, #240
 526 0178 C2D1     		bne	.L63
 527 017a 13F00303 		ands	r3, r3, #3
 528 017e 72D0     		beq	.L100
 529 0180 012B     		cmp	r3, #1
 530 0182 BDD1     		bne	.L63
 531 0184 0022     		movs	r2, #0
 532 0186 444B     		ldr	r3, .L102+20
 533 0188 3A60     		str	r2, [r7]	@ unaligned
 534 018a 7A60     		str	r2, [r7, #4]	@ unaligned
 535 018c FA60     		str	r2, [r7, #12]	@ unaligned
 536 018e BA60     		str	r2, [r7, #8]	@ unaligned
 537 0190 C7F80F20 		str	r2, [r7, #15]	@ unaligned
 538 0194 1F22     		movs	r2, #31
 539 0196 7272     		strb	r2, [r6, #9]
 540 0198 07CB     		ldmia	r3!, {r0, r1, r2}
 541 019a DFF8F4C0 		ldr	ip, .L102+12
 542 019e 1B88     		ldrh	r3, [r3]	@ unaligned
 543 01a0 CCF80000 		str	r0, [ip]	@ unaligned
 544 01a4 CCF80410 		str	r1, [ip, #4]	@ unaligned
 545 01a8 CCF80820 		str	r2, [ip, #8]	@ unaligned
 546 01ac ACF80C30 		strh	r3, [ip, #12]	@ unaligned
 547 01b0 4846     		mov	r0, r9
 548 01b2 FFF7FEFF 		bl	send_message
 549 01b6 A3E7     		b	.L63
 550              	.L59:
 551 01b8 344B     		ldr	r3, .L102+8
 552 01ba 1A60     		str	r2, [r3]	@ float
 553 01bc 36E7     		b	.L54
 554              	.L97:
 555 01be 13F00303 		ands	r3, r3, #3
 556 01c2 45D1     		bne	.L69
 557 01c4 F37A     		ldrb	r3, [r6, #11]	@ zero_extendqisi2
 558 01c6 002B     		cmp	r3, #0
 559 01c8 51D0     		beq	.L101
 560 01ca 012B     		cmp	r3, #1
 561 01cc 98D1     		bne	.L63
 562 01ce 3348     		ldr	r0, .L102+24
 563 01d0 0023     		movs	r3, #0
 564 01d2 0360     		str	r3, [r0]
 565 01d4 C0F80330 		str	r3, [r0, #3]	@ unaligned
 566 01d8 0923     		movs	r3, #9
 567 01da 0438     		subs	r0, r0, #4
ARM GAS  /tmp/ccA6cClP.s 			page 11


 568 01dc 7372     		strb	r3, [r6, #9]
 569 01de FFF7FEFF 		bl	send_message
 570 01e2 8DE7     		b	.L63
 571              	.L66:
 572 01e4 C3F58072 		rsb	r2, r3, #256
 573 01e8 1FFA82FB 		uxth	fp, r2
 574 01ec 03F23E20 		addw	r0, r3, #574
 575 01f0 5A46     		mov	r2, fp
 576 01f2 9BB2     		uxth	r3, r3
 577 01f4 2649     		ldr	r1, .L102+12
 578 01f6 0193     		str	r3, [sp, #4]
 579 01f8 3044     		add	r0, r0, r6
 580 01fa FFF7FEFF 		bl	memcpy
 581 01fe 019B     		ldr	r3, [sp, #4]
 582 0200 2748     		ldr	r0, .L102+28
 583 0202 C3F58571 		rsb	r1, r3, #266
 584 0206 0131     		adds	r1, r1, #1
 585 0208 AAEB0B02 		sub	r2, r10, fp
 586 020c 16FA81F1 		uxtah	r1, r6, r1
 587 0210 FFF7FEFF 		bl	memcpy
 588 0214 6FE7     		b	.L67
 589              	.L98:
 590 0216 9B07     		lsls	r3, r3, #30
 591 0218 7FF472AF 		bne	.L63
 592 021c F37A     		ldrb	r3, [r6, #11]	@ zero_extendqisi2
 593              	.L92:
 594 021e 012B     		cmp	r3, #1
 595 0220 7FF46EAF 		bne	.L63
 596 0224 0023     		movs	r3, #0
 597 0226 3373     		strb	r3, [r6, #12]
 598 0228 1E48     		ldr	r0, .L102+32
 599 022a 0323     		movs	r3, #3
 600 022c 7372     		strb	r3, [r6, #9]
 601 022e FFF7FEFF 		bl	send_message
 602 0232 65E7     		b	.L63
 603              	.L99:
 604 0234 13F00303 		ands	r3, r3, #3
 605 0238 F1D1     		bne	.L92
 606 023a 1B48     		ldr	r0, .L102+36
 607 023c 3373     		strb	r3, [r6, #12]
 608 023e 0360     		str	r3, [r0]	@ unaligned
 609 0240 4360     		str	r3, [r0, #4]	@ unaligned
 610 0242 0381     		strh	r3, [r0, #8]	@ unaligned
 611 0244 0923     		movs	r3, #9
 612 0246 0538     		subs	r0, r0, #5
 613 0248 7372     		strb	r3, [r6, #9]
 614 024a FFF7FEFF 		bl	send_message
 615 024e 57E7     		b	.L63
 616              	.L69:
 617 0250 012B     		cmp	r3, #1
 618 0252 7FF455AF 		bne	.L63
 619 0256 0023     		movs	r3, #0
 620 0258 7373     		strb	r3, [r6, #13]
 621 025a 1248     		ldr	r0, .L102+32
 622 025c 0423     		movs	r3, #4
 623 025e 7372     		strb	r3, [r6, #9]
 624 0260 FFF7FEFF 		bl	send_message
ARM GAS  /tmp/ccA6cClP.s 			page 12


 625 0264 4CE7     		b	.L63
 626              	.L100:
 627 0266 0F48     		ldr	r0, .L102+32
 628 0268 FFF7FEFF 		bl	send_message
 629 026c 48E7     		b	.L63
 630              	.L101:
 631 026e 0F48     		ldr	r0, .L102+40
 632 0270 20F80639 		strh	r3, [r0], #-6	@ movhi
 633 0274 0123     		movs	r3, #1
 634 0276 7373     		strb	r3, [r6, #13]
 635 0278 0623     		movs	r3, #6
 636 027a 7372     		strb	r3, [r6, #9]
 637 027c FFF7FEFF 		bl	send_message
 638 0280 3EE7     		b	.L63
 639              	.L103:
 640 0282 00BF     		.align	2
 641              	.L102:
 642 0284 00000000 		.word	.LANCHOR1
 643 0288 00000000 		.word	uart6
 644 028c 00000000 		.word	electrical
 645 0290 0B000000 		.word	.LANCHOR1+11
 646 0294 00000000 		.word	.LANCHOR0
 647 0298 00000000 		.word	.LC0
 648 029c 0C000000 		.word	.LANCHOR1+12
 649 02a0 3E020000 		.word	.LANCHOR1+574
 650 02a4 08000000 		.word	.LANCHOR1+8
 651 02a8 0D000000 		.word	.LANCHOR1+13
 652 02ac 0E000000 		.word	.LANCHOR1+14
 653 02b0 89888888 		.word	-2004318071
 654              		.size	syslink_dl_event, .-syslink_dl_event
 655              		.global	syslink_tx_mtx
 656              		.global	syslink
 657              		.section	.bss.syslink,"aw",%nobits
 658              		.align	2
 659              		.set	.LANCHOR1,. + 0
 660              		.type	syslink, %object
 661              		.size	syslink, 876
 662              	syslink:
 663 0000 00000000 		.space	876
 663      00000000 
 663      00000000 
 663      00000000 
 663      00000000 
 664              		.section	.bss.syslink_tx_mtx,"aw",%nobits
 665              		.align	2
 666              		.set	.LANCHOR0,. + 0
 667              		.type	syslink_tx_mtx, %object
 668              		.size	syslink_tx_mtx, 16
 669              	syslink_tx_mtx:
 670 0000 00000000 		.space	16
 670      00000000 
 670      00000000 
 670      00000000 
 671              		.ident	"GCC: (15:10.3-2021.07-4) 10.3.1 20210621 (release)"
ARM GAS  /tmp/ccA6cClP.s 			page 13

