ARM GAS  /tmp/cciWyQIO.s 			page 1


   1              		.cpu cortex-m4
   2              		.eabi_attribute 27, 1
   3              		.eabi_attribute 20, 1
   4              		.eabi_attribute 21, 1
   5              		.eabi_attribute 23, 3
   6              		.eabi_attribute 24, 1
   7              		.eabi_attribute 25, 1
   8              		.eabi_attribute 26, 1
   9              		.eabi_attribute 30, 2
  10              		.eabi_attribute 34, 1
  11              		.eabi_attribute 18, 4
  12              		.file	"waypoints.c"
  13              		.text
  14              		.section	.text.waypoint_localize.part.0,"ax",%progbits
  15              		.align	1
  16              		.p2align 4,,15
  17              		.arch armv7e-m
  18              		.syntax unified
  19              		.thumb
  20              		.thumb_func
  21              		.fpu fpv4-sp-d16
  22              		.type	waypoint_localize.part.0, %function
  23              	waypoint_localize.part.0:
  24              		@ args = 0, pretend = 0, frame = 16
  25              		@ frame_needed = 0, uses_anonymous_args = 0
  26 0000 F0B5     		push	{r4, r5, r6, r7, lr}
  27 0002 284C     		ldr	r4, .L4
  28 0004 2849     		ldr	r1, .L4+4
  29 0006 294E     		ldr	r6, .L4+8
  30 0008 85B0     		sub	sp, sp, #20
  31 000a 2822     		movs	r2, #40
  32 000c 02FB0042 		mla	r2, r2, r0, r4
  33 0010 01AD     		add	r5, sp, #4
  34 0012 0746     		mov	r7, r0
  35 0014 1C32     		adds	r2, r2, #28
  36 0016 2846     		mov	r0, r5
  37 0018 FFF7FEFF 		bl	enu_of_lla_point_i
  38 001c 0199     		ldr	r1, [sp, #4]
  39 001e 029A     		ldr	r2, [sp, #8]
  40 0020 039B     		ldr	r3, [sp, #12]
  41 0022 9FED236A 		vldr.32	s12, .L4+12
  42 0026 0902     		lsls	r1, r1, #8
  43 0028 07EB8700 		add	r0, r7, r7, lsl #2
  44 002c 86FB01C7 		smull	ip, r7, r6, r1
  45 0030 C917     		asrs	r1, r1, #31
  46 0032 C1EB6711 		rsb	r1, r1, r7, asr #5
  47 0036 1202     		lsls	r2, r2, #8
  48 0038 07EE901A 		vmov	s15, r1	@ int
  49 003c 0191     		str	r1, [sp, #4]
  50 003e 86FB0271 		smull	r7, r1, r6, r2
  51 0042 D217     		asrs	r2, r2, #31
  52 0044 C2EB6112 		rsb	r2, r2, r1, asr #5
  53 0048 1B02     		lsls	r3, r3, #8
  54 004a 86FB0316 		smull	r1, r6, r6, r3
  55 004e F8EEE76A 		vcvt.f32.s32	s13, s15
  56 0052 DB17     		asrs	r3, r3, #31
  57 0054 07EE902A 		vmov	s15, r2	@ int
ARM GAS  /tmp/cciWyQIO.s 			page 2


  58 0058 C3EB6613 		rsb	r3, r3, r6, asr #5
  59 005c B8EEE77A 		vcvt.f32.s32	s14, s15
  60 0060 07EE903A 		vmov	s15, r3	@ int
  61 0064 F8EEE77A 		vcvt.f32.s32	s15, s15
  62 0068 66EE866A 		vmul.f32	s13, s13, s12
  63 006c 27EE067A 		vmul.f32	s14, s14, s12
  64 0070 67EE867A 		vmul.f32	s15, s15, s12
  65 0074 0393     		str	r3, [sp, #12]
  66 0076 04EBC003 		add	r3, r4, r0, lsl #3
  67 007a 1E1D     		adds	r6, r3, #4
  68 007c C3ED046A 		vstr.32	s13, [r3, #16]
  69 0080 83ED057A 		vstr.32	s14, [r3, #20]
  70 0084 C3ED067A 		vstr.32	s15, [r3, #24]
  71 0088 14F83030 		ldrb	r3, [r4, r0, lsl #3]	@ zero_extendqisi2
  72 008c 0292     		str	r2, [sp, #8]
  73 008e 43F00603 		orr	r3, r3, #6
  74 0092 04F83030 		strb	r3, [r4, r0, lsl #3]
  75 0096 95E80700 		ldm	r5, {r0, r1, r2}
  76 009a 86E80700 		stm	r6, {r0, r1, r2}
  77 009e 05B0     		add	sp, sp, #20
  78              		@ sp needed
  79 00a0 F0BD     		pop	{r4, r5, r6, r7, pc}
  80              	.L5:
  81 00a2 00BF     		.align	2
  82              	.L4:
  83 00a4 00000000 		.word	.LANCHOR0
  84 00a8 1C000000 		.word	state+28
  85 00ac 1F85EB51 		.word	1374389535
  86 00b0 0000803B 		.word	998244352
  87              		.size	waypoint_localize.part.0, .-waypoint_localize.part.0
  88              		.section	.text.waypoint_set_lla.part.0,"ax",%progbits
  89              		.align	1
  90              		.p2align 4,,15
  91              		.syntax unified
  92              		.thumb
  93              		.thumb_func
  94              		.fpu fpv4-sp-d16
  95              		.type	waypoint_set_lla.part.0, %function
  96              	waypoint_set_lla.part.0:
  97              		@ args = 0, pretend = 0, frame = 0
  98              		@ frame_needed = 0, uses_anonymous_args = 0
  99 0000 0D4A     		ldr	r2, .L10
 100 0002 70B5     		push	{r4, r5, r6, lr}
 101 0004 00EB800E 		add	lr, r0, r0, lsl #2
 102 0008 0C4C     		ldr	r4, .L10+4
 103 000a 92F85C60 		ldrb	r6, [r2, #92]	@ zero_extendqisi2
 104 000e 14F83E50 		ldrb	r5, [r4, lr, lsl #3]	@ zero_extendqisi2
 105 0012 8446     		mov	ip, r0
 106 0014 07C9     		ldm	r1, {r0, r1, r2}
 107 0016 04EBCE03 		add	r3, r4, lr, lsl #3
 108 001a 1C33     		adds	r3, r3, #28
 109 001c 45F00805 		orr	r5, r5, #8
 110 0020 83E80700 		stm	r3, {r0, r1, r2}
 111 0024 04F83E50 		strb	r5, [r4, lr, lsl #3]
 112 0028 06B9     		cbnz	r6, .L9
 113 002a 70BD     		pop	{r4, r5, r6, pc}
 114              	.L9:
ARM GAS  /tmp/cciWyQIO.s 			page 3


 115 002c BDE87040 		pop	{r4, r5, r6, lr}
 116 0030 6046     		mov	r0, ip
 117 0032 FFF7FEBF 		b	waypoint_localize.part.0
 118              	.L11:
 119 0036 00BF     		.align	2
 120              	.L10:
 121 0038 00000000 		.word	state
 122 003c 00000000 		.word	.LANCHOR0
 123              		.size	waypoint_set_lla.part.0, .-waypoint_set_lla.part.0
 124              		.section	.rodata.pprzlink_msg_v2_send_WP_MOVED_ENU.constprop.0.str1.4,"aMS",%progbits,1
 125              		.align	2
 126              	.LC2:
 127 0000 57505F4D 		.ascii	"WP_MOVED_ENU\000"
 127      4F564544 
 127      5F454E55 
 127      00
 128              		.section	.text.pprzlink_msg_v2_send_WP_MOVED_ENU.constprop.0,"ax",%progbits
 129              		.align	1
 130              		.p2align 4,,15
 131              		.syntax unified
 132              		.thumb
 133              		.thumb_func
 134              		.fpu fpv4-sp-d16
 135              		.type	pprzlink_msg_v2_send_WP_MOVED_ENU.constprop.0, %function
 136              	pprzlink_msg_v2_send_WP_MOVED_ENU.constprop.0:
 137              		@ args = 4, pretend = 0, frame = 8
 138              		@ frame_needed = 0, uses_anonymous_args = 0
 139 0000 2DE9F047 		push	{r4, r5, r6, r7, r8, r9, r10, lr}
 140 0004 1F46     		mov	r7, r3
 141 0006 84B0     		sub	sp, sp, #16
 142 0008 4368     		ldr	r3, [r0, #4]
 143 000a 0025     		movs	r5, #0
 144 000c 1B68     		ldr	r3, [r3]
 145 000e 0395     		str	r5, [sp, #12]
 146 0010 0446     		mov	r4, r0
 147 0012 8946     		mov	r9, r1
 148 0014 1121     		movs	r1, #17
 149 0016 9046     		mov	r8, r2
 150 0018 9847     		blx	r3
 151 001a 6368     		ldr	r3, [r4, #4]
 152 001c 0646     		mov	r6, r0
 153 001e 82B2     		uxth	r2, r0
 154 0020 5B68     		ldr	r3, [r3, #4]
 155 0022 03A9     		add	r1, sp, #12
 156 0024 2046     		mov	r0, r4
 157 0026 9847     		blx	r3
 158 0028 0028     		cmp	r0, #0
 159 002a 6AD0     		beq	.L13
 160 002c 6368     		ldr	r3, [r4, #4]
 161 002e 3146     		mov	r1, r6
 162 0030 2046     		mov	r0, r4
 163 0032 DB69     		ldr	r3, [r3, #28]
 164 0034 9847     		blx	r3
 165 0036 6368     		ldr	r3, [r4, #4]
 166 0038 0399     		ldr	r1, [sp, #12]
 167 003a 1B69     		ldr	r3, [r3, #16]
 168 003c 2046     		mov	r0, r4
ARM GAS  /tmp/cciWyQIO.s 			page 4


 169 003e 1122     		movs	r2, #17
 170 0040 9847     		blx	r3
 171 0042 0094     		str	r4, [sp]
 172 0044 6368     		ldr	r3, [r4, #4]
 173 0046 0399     		ldr	r1, [sp, #12]
 174 0048 0126     		movs	r6, #1
 175 004a 0196     		str	r6, [sp, #4]
 176 004c D3F808A0 		ldr	r10, [r3, #8]
 177 0050 2046     		mov	r0, r4
 178 0052 2B46     		mov	r3, r5
 179 0054 0222     		movs	r2, #2
 180 0056 D047     		blx	r10
 181 0058 0195     		str	r5, [sp, #4]
 182 005a 6368     		ldr	r3, [r4, #4]
 183 005c 6278     		ldrb	r2, [r4, #1]	@ zero_extendqisi2
 184 005e 0092     		str	r2, [sp]
 185 0060 D3F80CA0 		ldr	r10, [r3, #12]
 186 0064 0399     		ldr	r1, [sp, #12]
 187 0066 2B46     		mov	r3, r5
 188 0068 2046     		mov	r0, r4
 189 006a 0222     		movs	r2, #2
 190 006c D047     		blx	r10
 191 006e 0195     		str	r5, [sp, #4]
 192 0070 A078     		ldrb	r0, [r4, #2]	@ zero_extendqisi2
 193 0072 0399     		ldr	r1, [sp, #12]
 194 0074 0001     		lsls	r0, r0, #4
 195 0076 3043     		orrs	r0, r0, r6
 196 0078 C0B2     		uxtb	r0, r0
 197 007a 0090     		str	r0, [sp]
 198 007c 6368     		ldr	r3, [r4, #4]
 199 007e 2046     		mov	r0, r4
 200 0080 D3F80CA0 		ldr	r10, [r3, #12]
 201 0084 0222     		movs	r2, #2
 202 0086 2B46     		mov	r3, r5
 203 0088 D047     		blx	r10
 204 008a 214A     		ldr	r2, .L16
 205 008c 6368     		ldr	r3, [r4, #4]
 206 008e 0192     		str	r2, [sp, #4]
 207 0090 3122     		movs	r2, #49
 208 0092 0092     		str	r2, [sp]
 209 0094 D3F80CA0 		ldr	r10, [r3, #12]
 210 0098 0399     		ldr	r1, [sp, #12]
 211 009a 2B46     		mov	r3, r5
 212 009c 2046     		mov	r0, r4
 213 009e 0222     		movs	r2, #2
 214 00a0 D047     		blx	r10
 215 00a2 CDE90096 		strd	r9, r6, [sp]
 216 00a6 6368     		ldr	r3, [r4, #4]
 217 00a8 0399     		ldr	r1, [sp, #12]
 218 00aa 9E68     		ldr	r6, [r3, #8]
 219 00ac 2046     		mov	r0, r4
 220 00ae 2B46     		mov	r3, r5
 221 00b0 0222     		movs	r2, #2
 222 00b2 B047     		blx	r6
 223 00b4 CDF80080 		str	r8, [sp]
 224 00b8 6368     		ldr	r3, [r4, #4]
 225 00ba 0399     		ldr	r1, [sp, #12]
ARM GAS  /tmp/cciWyQIO.s 			page 5


 226 00bc 0426     		movs	r6, #4
 227 00be 0196     		str	r6, [sp, #4]
 228 00c0 D3F80880 		ldr	r8, [r3, #8]
 229 00c4 2046     		mov	r0, r4
 230 00c6 2B46     		mov	r3, r5
 231 00c8 0722     		movs	r2, #7
 232 00ca C047     		blx	r8
 233 00cc 6268     		ldr	r2, [r4, #4]
 234 00ce 0399     		ldr	r1, [sp, #12]
 235 00d0 CDE90076 		strd	r7, r6, [sp]
 236 00d4 2B46     		mov	r3, r5
 237 00d6 9768     		ldr	r7, [r2, #8]
 238 00d8 2046     		mov	r0, r4
 239 00da 0722     		movs	r2, #7
 240 00dc B847     		blx	r7
 241 00de 6368     		ldr	r3, [r4, #4]
 242 00e0 0C9A     		ldr	r2, [sp, #48]
 243 00e2 0092     		str	r2, [sp]
 244 00e4 0196     		str	r6, [sp, #4]
 245 00e6 0399     		ldr	r1, [sp, #12]
 246 00e8 9E68     		ldr	r6, [r3, #8]
 247 00ea 2046     		mov	r0, r4
 248 00ec 2B46     		mov	r3, r5
 249 00ee 0722     		movs	r2, #7
 250 00f0 B047     		blx	r6
 251 00f2 6368     		ldr	r3, [r4, #4]
 252 00f4 0399     		ldr	r1, [sp, #12]
 253 00f6 5B69     		ldr	r3, [r3, #20]
 254 00f8 2046     		mov	r0, r4
 255 00fa 9847     		blx	r3
 256 00fc 04B0     		add	sp, sp, #16
 257              		@ sp needed
 258 00fe BDE8F087 		pop	{r4, r5, r6, r7, r8, r9, r10, pc}
 259              	.L13:
 260 0102 6368     		ldr	r3, [r4, #4]
 261 0104 2046     		mov	r0, r4
 262 0106 9B69     		ldr	r3, [r3, #24]
 263 0108 9847     		blx	r3
 264 010a 04B0     		add	sp, sp, #16
 265              		@ sp needed
 266 010c BDE8F087 		pop	{r4, r5, r6, r7, r8, r9, r10, pc}
 267              	.L17:
 268              		.align	2
 269              	.L16:
 270 0110 00000000 		.word	.LC2
 271              		.size	pprzlink_msg_v2_send_WP_MOVED_ENU.constprop.0, .-pprzlink_msg_v2_send_WP_MOVED_ENU.constprop
 272              		.section	.text.send_wp_moved,"ax",%progbits
 273              		.align	1
 274              		.p2align 4,,15
 275              		.syntax unified
 276              		.thumb
 277              		.thumb_func
 278              		.fpu fpv4-sp-d16
 279              		.type	send_wp_moved, %function
 280              	send_wp_moved:
 281              		@ args = 0, pretend = 0, frame = 16
 282              		@ frame_needed = 0, uses_anonymous_args = 0
ARM GAS  /tmp/cciWyQIO.s 			page 6


 283 0000 10B5     		push	{r4, lr}
 284 0002 174A     		ldr	r2, .L22
 285 0004 1378     		ldrb	r3, [r2]	@ zero_extendqisi2
 286 0006 0133     		adds	r3, r3, #1
 287 0008 DBB2     		uxtb	r3, r3
 288 000a 0B2B     		cmp	r3, #11
 289 000c 86B0     		sub	sp, sp, #24
 290 000e 0C46     		mov	r4, r1
 291 0010 1ED8     		bhi	.L19
 292 0012 03EB830C 		add	ip, r3, r3, lsl #2
 293 0016 4FEACC0C 		lsl	ip, ip, #3
 294 001a 1370     		strb	r3, [r2]
 295 001c 0CF1040E 		add	lr, ip, #4
 296 0020 0CF10803 		add	r3, ip, #8
 297 0024 0CF10C0C 		add	ip, ip, #12
 298              	.L20:
 299 0028 0E4A     		ldr	r2, .L22+4
 300 002a 0490     		str	r0, [sp, #16]
 301 002c 02EB0C00 		add	r0, r2, ip
 302 0030 0090     		str	r0, [sp]
 303 0032 1F21     		movs	r1, #31
 304 0034 0020     		movs	r0, #0
 305 0036 ADF80C10 		strh	r1, [sp, #12]	@ movhi
 306 003a 1344     		add	r3, r3, r2
 307 003c 8DF80E00 		strb	r0, [sp, #14]
 308 0040 0749     		ldr	r1, .L22
 309 0042 0594     		str	r4, [sp, #20]
 310 0044 7244     		add	r2, r2, lr
 311 0046 03A8     		add	r0, sp, #12
 312 0048 FFF7FEFF 		bl	pprzlink_msg_v2_send_WP_MOVED_ENU.constprop.0
 313 004c 06B0     		add	sp, sp, #24
 314              		@ sp needed
 315 004e 10BD     		pop	{r4, pc}
 316              	.L19:
 317 0050 0023     		movs	r3, #0
 318 0052 1370     		strb	r3, [r2]
 319 0054 4FF00C0C 		mov	ip, #12
 320 0058 0823     		movs	r3, #8
 321 005a 4FF0040E 		mov	lr, #4
 322 005e E3E7     		b	.L20
 323              	.L23:
 324              		.align	2
 325              	.L22:
 326 0060 00000000 		.word	.LANCHOR1
 327 0064 00000000 		.word	.LANCHOR0
 328              		.size	send_wp_moved, .-send_wp_moved
 329              		.section	.rodata.pprzlink_msg_v2_send_WP_MOVED_LLA.constprop.0.str1.4,"aMS",%progbits,1
 330              		.align	2
 331              	.LC3:
 332 0000 57505F4D 		.ascii	"WP_MOVED_LLA\000"
 332      4F564544 
 332      5F4C4C41 
 332      00
 333              		.section	.text.pprzlink_msg_v2_send_WP_MOVED_LLA.constprop.0,"ax",%progbits
 334              		.align	1
 335              		.p2align 4,,15
 336              		.syntax unified
ARM GAS  /tmp/cciWyQIO.s 			page 7


 337              		.thumb
 338              		.thumb_func
 339              		.fpu fpv4-sp-d16
 340              		.type	pprzlink_msg_v2_send_WP_MOVED_LLA.constprop.0, %function
 341              	pprzlink_msg_v2_send_WP_MOVED_LLA.constprop.0:
 342              		@ args = 4, pretend = 0, frame = 8
 343              		@ frame_needed = 0, uses_anonymous_args = 0
 344 0000 2DE9F047 		push	{r4, r5, r6, r7, r8, r9, r10, lr}
 345 0004 1F46     		mov	r7, r3
 346 0006 84B0     		sub	sp, sp, #16
 347 0008 424B     		ldr	r3, .L28
 348 000a 0025     		movs	r5, #0
 349 000c 0446     		mov	r4, r0
 350 000e D3F80831 		ldr	r3, [r3, #264]
 351 0012 0395     		str	r5, [sp, #12]
 352 0014 8946     		mov	r9, r1
 353 0016 1121     		movs	r1, #17
 354 0018 9046     		mov	r8, r2
 355 001a 9847     		blx	r3
 356 001c 6368     		ldr	r3, [r4, #4]
 357 001e 0646     		mov	r6, r0
 358 0020 82B2     		uxth	r2, r0
 359 0022 5B68     		ldr	r3, [r3, #4]
 360 0024 03A9     		add	r1, sp, #12
 361 0026 2046     		mov	r0, r4
 362 0028 9847     		blx	r3
 363 002a 0028     		cmp	r0, #0
 364 002c 6AD0     		beq	.L25
 365 002e 6368     		ldr	r3, [r4, #4]
 366 0030 3146     		mov	r1, r6
 367 0032 2046     		mov	r0, r4
 368 0034 DB69     		ldr	r3, [r3, #28]
 369 0036 9847     		blx	r3
 370 0038 6368     		ldr	r3, [r4, #4]
 371 003a 0399     		ldr	r1, [sp, #12]
 372 003c 1B69     		ldr	r3, [r3, #16]
 373 003e 2046     		mov	r0, r4
 374 0040 1122     		movs	r2, #17
 375 0042 9847     		blx	r3
 376 0044 0094     		str	r4, [sp]
 377 0046 6368     		ldr	r3, [r4, #4]
 378 0048 0399     		ldr	r1, [sp, #12]
 379 004a 0126     		movs	r6, #1
 380 004c 0196     		str	r6, [sp, #4]
 381 004e D3F808A0 		ldr	r10, [r3, #8]
 382 0052 2046     		mov	r0, r4
 383 0054 2B46     		mov	r3, r5
 384 0056 0222     		movs	r2, #2
 385 0058 D047     		blx	r10
 386 005a 0195     		str	r5, [sp, #4]
 387 005c 6368     		ldr	r3, [r4, #4]
 388 005e 6278     		ldrb	r2, [r4, #1]	@ zero_extendqisi2
 389 0060 0092     		str	r2, [sp]
 390 0062 D3F80CA0 		ldr	r10, [r3, #12]
 391 0066 0399     		ldr	r1, [sp, #12]
 392 0068 2B46     		mov	r3, r5
 393 006a 2046     		mov	r0, r4
ARM GAS  /tmp/cciWyQIO.s 			page 8


 394 006c 0222     		movs	r2, #2
 395 006e D047     		blx	r10
 396 0070 0195     		str	r5, [sp, #4]
 397 0072 A078     		ldrb	r0, [r4, #2]	@ zero_extendqisi2
 398 0074 0399     		ldr	r1, [sp, #12]
 399 0076 0001     		lsls	r0, r0, #4
 400 0078 3043     		orrs	r0, r0, r6
 401 007a C0B2     		uxtb	r0, r0
 402 007c 0090     		str	r0, [sp]
 403 007e 6368     		ldr	r3, [r4, #4]
 404 0080 2046     		mov	r0, r4
 405 0082 D3F80CA0 		ldr	r10, [r3, #12]
 406 0086 0222     		movs	r2, #2
 407 0088 2B46     		mov	r3, r5
 408 008a D047     		blx	r10
 409 008c 224A     		ldr	r2, .L28+4
 410 008e 6368     		ldr	r3, [r4, #4]
 411 0090 0192     		str	r2, [sp, #4]
 412 0092 2F22     		movs	r2, #47
 413 0094 0092     		str	r2, [sp]
 414 0096 D3F80CA0 		ldr	r10, [r3, #12]
 415 009a 0399     		ldr	r1, [sp, #12]
 416 009c 2B46     		mov	r3, r5
 417 009e 2046     		mov	r0, r4
 418 00a0 0222     		movs	r2, #2
 419 00a2 D047     		blx	r10
 420 00a4 CDE90096 		strd	r9, r6, [sp]
 421 00a8 6368     		ldr	r3, [r4, #4]
 422 00aa 0399     		ldr	r1, [sp, #12]
 423 00ac 9E68     		ldr	r6, [r3, #8]
 424 00ae 2046     		mov	r0, r4
 425 00b0 2B46     		mov	r3, r5
 426 00b2 0222     		movs	r2, #2
 427 00b4 B047     		blx	r6
 428 00b6 CDF80080 		str	r8, [sp]
 429 00ba 6368     		ldr	r3, [r4, #4]
 430 00bc 0399     		ldr	r1, [sp, #12]
 431 00be 0426     		movs	r6, #4
 432 00c0 0196     		str	r6, [sp, #4]
 433 00c2 D3F80880 		ldr	r8, [r3, #8]
 434 00c6 2046     		mov	r0, r4
 435 00c8 2B46     		mov	r3, r5
 436 00ca 0722     		movs	r2, #7
 437 00cc C047     		blx	r8
 438 00ce 6268     		ldr	r2, [r4, #4]
 439 00d0 0399     		ldr	r1, [sp, #12]
 440 00d2 CDE90076 		strd	r7, r6, [sp]
 441 00d6 2B46     		mov	r3, r5
 442 00d8 9768     		ldr	r7, [r2, #8]
 443 00da 2046     		mov	r0, r4
 444 00dc 0722     		movs	r2, #7
 445 00de B847     		blx	r7
 446 00e0 6368     		ldr	r3, [r4, #4]
 447 00e2 0C9A     		ldr	r2, [sp, #48]
 448 00e4 0092     		str	r2, [sp]
 449 00e6 0196     		str	r6, [sp, #4]
 450 00e8 0399     		ldr	r1, [sp, #12]
ARM GAS  /tmp/cciWyQIO.s 			page 9


 451 00ea 9E68     		ldr	r6, [r3, #8]
 452 00ec 2046     		mov	r0, r4
 453 00ee 2B46     		mov	r3, r5
 454 00f0 0722     		movs	r2, #7
 455 00f2 B047     		blx	r6
 456 00f4 6368     		ldr	r3, [r4, #4]
 457 00f6 0399     		ldr	r1, [sp, #12]
 458 00f8 5B69     		ldr	r3, [r3, #20]
 459 00fa 2046     		mov	r0, r4
 460 00fc 9847     		blx	r3
 461 00fe 04B0     		add	sp, sp, #16
 462              		@ sp needed
 463 0100 BDE8F087 		pop	{r4, r5, r6, r7, r8, r9, r10, pc}
 464              	.L25:
 465 0104 6368     		ldr	r3, [r4, #4]
 466 0106 2046     		mov	r0, r4
 467 0108 9B69     		ldr	r3, [r3, #24]
 468 010a 9847     		blx	r3
 469 010c 04B0     		add	sp, sp, #16
 470              		@ sp needed
 471 010e BDE8F087 		pop	{r4, r5, r6, r7, r8, r9, r10, pc}
 472              	.L29:
 473 0112 00BF     		.align	2
 474              	.L28:
 475 0114 00000000 		.word	pprz_tp
 476 0118 00000000 		.word	.LC3
 477              		.size	pprzlink_msg_v2_send_WP_MOVED_LLA.constprop.0, .-pprzlink_msg_v2_send_WP_MOVED_LLA.constprop
 478              		.section	.text.waypoint_set_enu.part.0,"ax",%progbits
 479              		.align	1
 480              		.p2align 4,,15
 481              		.syntax unified
 482              		.thumb
 483              		.thumb_func
 484              		.fpu fpv4-sp-d16
 485              		.type	waypoint_set_enu.part.0, %function
 486              	waypoint_set_enu.part.0:
 487              		@ args = 0, pretend = 0, frame = 16
 488              		@ frame_needed = 0, uses_anonymous_args = 0
 489 0000 2DE9F041 		push	{r4, r5, r6, r7, r8, lr}
 490 0004 00EB8002 		add	r2, r0, r0, lsl #2
 491 0008 204D     		ldr	r5, .L37
 492 000a 214F     		ldr	r7, .L37+4
 493 000c 15F832E0 		ldrb	lr, [r5, r2, lsl #3]	@ zero_extendqisi2
 494 0010 97F85C80 		ldrb	r8, [r7, #92]	@ zero_extendqisi2
 495 0014 05EBC203 		add	r3, r5, r2, lsl #3
 496 0018 D600     		lsls	r6, r2, #3
 497 001a 07C9     		ldm	r1, {r0, r1, r2}
 498 001c 03F11004 		add	r4, r3, #16
 499 0020 84E80700 		stm	r4, {r0, r1, r2}
 500 0024 D3ED046A 		vldr.32	s13, [r3, #16]
 501 0028 93ED057A 		vldr.32	s14, [r3, #20]
 502 002c D3ED067A 		vldr.32	s15, [r3, #24]
 503 0030 FEEECC6A 		vcvt.s32.f32	s13, s13, #8
 504 0034 BEEECC7A 		vcvt.s32.f32	s14, s14, #8
 505 0038 FEEECC7A 		vcvt.s32.f32	s15, s15, #8
 506 003c 2EF0080E 		bic	lr, lr, #8
 507 0040 4EF0060E 		orr	lr, lr, #6
ARM GAS  /tmp/cciWyQIO.s 			page 10


 508 0044 05F806E0 		strb	lr, [r5, r6]
 509 0048 84B0     		sub	sp, sp, #16
 510 004a C3ED016A 		vstr.32	s13, [r3, #4]	@ int
 511 004e 83ED027A 		vstr.32	s14, [r3, #8]	@ int
 512 0052 C3ED037A 		vstr.32	s15, [r3, #12]	@ int
 513 0056 B8F1000F 		cmp	r8, #0
 514 005a 02D1     		bne	.L36
 515 005c 04B0     		add	sp, sp, #16
 516              		@ sp needed
 517 005e BDE8F081 		pop	{r4, r5, r6, r7, r8, pc}
 518              	.L36:
 519 0062 321D     		adds	r2, r6, #4
 520 0064 2A44     		add	r2, r2, r5
 521 0066 07F11C01 		add	r1, r7, #28
 522 006a 01A8     		add	r0, sp, #4
 523 006c FFF7FEFF 		bl	ecef_of_enu_pos_i
 524 0070 06F11C00 		add	r0, r6, #28
 525 0074 01A9     		add	r1, sp, #4
 526 0076 2844     		add	r0, r0, r5
 527 0078 FFF7FEFF 		bl	lla_of_ecef_i
 528 007c AB5D     		ldrb	r3, [r5, r6]	@ zero_extendqisi2
 529 007e 43F00803 		orr	r3, r3, #8
 530 0082 AB55     		strb	r3, [r5, r6]
 531 0084 04B0     		add	sp, sp, #16
 532              		@ sp needed
 533 0086 BDE8F081 		pop	{r4, r5, r6, r7, r8, pc}
 534              	.L38:
 535 008a 00BF     		.align	2
 536              	.L37:
 537 008c 00000000 		.word	.LANCHOR0
 538 0090 00000000 		.word	state
 539              		.size	waypoint_set_enu.part.0, .-waypoint_set_enu.part.0
 540              		.section	.text.waypoint_set_enu_i.part.0,"ax",%progbits
 541              		.align	1
 542              		.p2align 4,,15
 543              		.syntax unified
 544              		.thumb
 545              		.thumb_func
 546              		.fpu fpv4-sp-d16
 547              		.type	waypoint_set_enu_i.part.0, %function
 548              	waypoint_set_enu_i.part.0:
 549              		@ args = 0, pretend = 0, frame = 16
 550              		@ frame_needed = 0, uses_anonymous_args = 0
 551 0000 2DE9F041 		push	{r4, r5, r6, r7, r8, lr}
 552 0004 00EB8002 		add	r2, r0, r0, lsl #2
 553 0008 244D     		ldr	r5, .L46
 554 000a DFED256A 		vldr.32	s13, .L46+4
 555 000e 15F832C0 		ldrb	ip, [r5, r2, lsl #3]	@ zero_extendqisi2
 556 0012 244F     		ldr	r7, .L46+8
 557 0014 05EBC204 		add	r4, r5, r2, lsl #3
 558 0018 D600     		lsls	r6, r2, #3
 559 001a 07C9     		ldm	r1, {r0, r1, r2}
 560 001c 04F1040E 		add	lr, r4, #4
 561 0020 8EE80700 		stm	lr, {r0, r1, r2}
 562 0024 07EE900A 		vmov	s15, r0	@ int
 563 0028 B8EEE77A 		vcvt.f32.s32	s14, s15
 564 002c D4ED027A 		vldr.32	s15, [r4, #8]	@ int
ARM GAS  /tmp/cciWyQIO.s 			page 11


 565 0030 97F85C80 		ldrb	r8, [r7, #92]	@ zero_extendqisi2
 566 0034 27EE267A 		vmul.f32	s14, s14, s13
 567 0038 2CF0080C 		bic	ip, ip, #8
 568 003c 84ED047A 		vstr.32	s14, [r4, #16]
 569 0040 B8EEE77A 		vcvt.f32.s32	s14, s15
 570 0044 D4ED037A 		vldr.32	s15, [r4, #12]	@ int
 571 0048 F8EEE77A 		vcvt.f32.s32	s15, s15
 572 004c 27EE267A 		vmul.f32	s14, s14, s13
 573 0050 67EEA67A 		vmul.f32	s15, s15, s13
 574 0054 4CF0060C 		orr	ip, ip, #6
 575 0058 05F806C0 		strb	ip, [r5, r6]
 576 005c 84B0     		sub	sp, sp, #16
 577 005e 84ED057A 		vstr.32	s14, [r4, #20]
 578 0062 C4ED067A 		vstr.32	s15, [r4, #24]
 579 0066 B8F1000F 		cmp	r8, #0
 580 006a 02D1     		bne	.L45
 581 006c 04B0     		add	sp, sp, #16
 582              		@ sp needed
 583 006e BDE8F081 		pop	{r4, r5, r6, r7, r8, pc}
 584              	.L45:
 585 0072 321D     		adds	r2, r6, #4
 586 0074 2A44     		add	r2, r2, r5
 587 0076 07F11C01 		add	r1, r7, #28
 588 007a 01A8     		add	r0, sp, #4
 589 007c FFF7FEFF 		bl	ecef_of_enu_pos_i
 590 0080 06F11C00 		add	r0, r6, #28
 591 0084 01A9     		add	r1, sp, #4
 592 0086 2844     		add	r0, r0, r5
 593 0088 FFF7FEFF 		bl	lla_of_ecef_i
 594 008c AB5D     		ldrb	r3, [r5, r6]	@ zero_extendqisi2
 595 008e 43F00803 		orr	r3, r3, #8
 596 0092 AB55     		strb	r3, [r5, r6]
 597 0094 04B0     		add	sp, sp, #16
 598              		@ sp needed
 599 0096 BDE8F081 		pop	{r4, r5, r6, r7, r8, pc}
 600              	.L47:
 601 009a 00BF     		.align	2
 602              	.L46:
 603 009c 00000000 		.word	.LANCHOR0
 604 00a0 0000803B 		.word	998244352
 605 00a4 00000000 		.word	state
 606              		.size	waypoint_set_enu_i.part.0, .-waypoint_set_enu_i.part.0
 607              		.section	.text.waypoints_init,"ax",%progbits
 608              		.align	1
 609              		.p2align 4,,15
 610              		.global	waypoints_init
 611              		.syntax unified
 612              		.thumb
 613              		.thumb_func
 614              		.fpu fpv4-sp-d16
 615              		.type	waypoints_init, %function
 616              	waypoints_init:
 617              		@ args = 0, pretend = 0, frame = 144
 618              		@ frame_needed = 0, uses_anonymous_args = 0
 619 0000 F0B5     		push	{r4, r5, r6, r7, lr}
 620 0002 A5B0     		sub	sp, sp, #148
 621 0004 0D49     		ldr	r1, .L52
ARM GAS  /tmp/cciWyQIO.s 			page 12


 622 0006 0E4E     		ldr	r6, .L52+4
 623 0008 9022     		movs	r2, #144
 624 000a 6846     		mov	r0, sp
 625 000c FFF7FEFF 		bl	memcpy
 626 0010 0024     		movs	r4, #0
 627 0012 6D46     		mov	r5, sp
 628 0014 2746     		mov	r7, r4
 629              	.L49:
 630 0016 2946     		mov	r1, r5
 631 0018 E0B2     		uxtb	r0, r4
 632 001a 0134     		adds	r4, r4, #1
 633 001c 06F8287B 		strb	r7, [r6], #40
 634 0020 FFF7FEFF 		bl	waypoint_set_enu.part.0
 635 0024 0C2C     		cmp	r4, #12
 636 0026 05F10C05 		add	r5, r5, #12
 637 002a F4D1     		bne	.L49
 638 002c 054A     		ldr	r2, .L52+8
 639 002e 0648     		ldr	r0, .L52+12
 640 0030 2321     		movs	r1, #35
 641 0032 FFF7FEFF 		bl	register_periodic_telemetry
 642 0036 25B0     		add	sp, sp, #148
 643              		@ sp needed
 644 0038 F0BD     		pop	{r4, r5, r6, r7, pc}
 645              	.L53:
 646 003a 00BF     		.align	2
 647              	.L52:
 648 003c 00000000 		.word	.LANCHOR2
 649 0040 00000000 		.word	.LANCHOR0
 650 0044 00000000 		.word	send_wp_moved
 651 0048 00000000 		.word	pprz_telemetry
 652              		.size	waypoints_init, .-waypoints_init
 653              		.section	.text.waypoint_is_global,"ax",%progbits
 654              		.align	1
 655              		.p2align 4,,15
 656              		.global	waypoint_is_global
 657              		.syntax unified
 658              		.thumb
 659              		.thumb_func
 660              		.fpu fpv4-sp-d16
 661              		.type	waypoint_is_global, %function
 662              	waypoint_is_global:
 663              		@ args = 0, pretend = 0, frame = 0
 664              		@ frame_needed = 0, uses_anonymous_args = 0
 665              		@ link register save eliminated.
 666 0000 0B28     		cmp	r0, #11
 667 0002 01D9     		bls	.L57
 668 0004 0020     		movs	r0, #0
 669 0006 7047     		bx	lr
 670              	.L57:
 671 0008 034B     		ldr	r3, .L58
 672 000a 00EB8000 		add	r0, r0, r0, lsl #2
 673 000e 13F83000 		ldrb	r0, [r3, r0, lsl #3]	@ zero_extendqisi2
 674 0012 00F00100 		and	r0, r0, #1
 675 0016 7047     		bx	lr
 676              	.L59:
 677              		.align	2
 678              	.L58:
ARM GAS  /tmp/cciWyQIO.s 			page 13


 679 0018 00000000 		.word	.LANCHOR0
 680              		.size	waypoint_is_global, .-waypoint_is_global
 681              		.section	.text.waypoint_set_global_flag,"ax",%progbits
 682              		.align	1
 683              		.p2align 4,,15
 684              		.global	waypoint_set_global_flag
 685              		.syntax unified
 686              		.thumb
 687              		.thumb_func
 688              		.fpu fpv4-sp-d16
 689              		.type	waypoint_set_global_flag, %function
 690              	waypoint_set_global_flag:
 691              		@ args = 0, pretend = 0, frame = 0
 692              		@ frame_needed = 0, uses_anonymous_args = 0
 693              		@ link register save eliminated.
 694 0000 0B28     		cmp	r0, #11
 695 0002 08D8     		bhi	.L60
 696 0004 044A     		ldr	r2, .L62
 697 0006 00EB8000 		add	r0, r0, r0, lsl #2
 698 000a 12F83030 		ldrb	r3, [r2, r0, lsl #3]	@ zero_extendqisi2
 699 000e 43F00103 		orr	r3, r3, #1
 700 0012 02F83030 		strb	r3, [r2, r0, lsl #3]
 701              	.L60:
 702 0016 7047     		bx	lr
 703              	.L63:
 704              		.align	2
 705              	.L62:
 706 0018 00000000 		.word	.LANCHOR0
 707              		.size	waypoint_set_global_flag, .-waypoint_set_global_flag
 708              		.section	.text.waypoint_clear_global_flag,"ax",%progbits
 709              		.align	1
 710              		.p2align 4,,15
 711              		.global	waypoint_clear_global_flag
 712              		.syntax unified
 713              		.thumb
 714              		.thumb_func
 715              		.fpu fpv4-sp-d16
 716              		.type	waypoint_clear_global_flag, %function
 717              	waypoint_clear_global_flag:
 718              		@ args = 0, pretend = 0, frame = 0
 719              		@ frame_needed = 0, uses_anonymous_args = 0
 720              		@ link register save eliminated.
 721 0000 0B28     		cmp	r0, #11
 722 0002 08D8     		bhi	.L64
 723 0004 044A     		ldr	r2, .L66
 724 0006 00EB8000 		add	r0, r0, r0, lsl #2
 725 000a 12F83030 		ldrb	r3, [r2, r0, lsl #3]	@ zero_extendqisi2
 726 000e 23F00103 		bic	r3, r3, #1
 727 0012 02F83030 		strb	r3, [r2, r0, lsl #3]
 728              	.L64:
 729 0016 7047     		bx	lr
 730              	.L67:
 731              		.align	2
 732              	.L66:
 733 0018 00000000 		.word	.LANCHOR0
 734              		.size	waypoint_clear_global_flag, .-waypoint_clear_global_flag
 735              		.section	.text.waypoint_get_x,"ax",%progbits
ARM GAS  /tmp/cciWyQIO.s 			page 14


 736              		.align	1
 737              		.p2align 4,,15
 738              		.global	waypoint_get_x
 739              		.syntax unified
 740              		.thumb
 741              		.thumb_func
 742              		.fpu fpv4-sp-d16
 743              		.type	waypoint_get_x, %function
 744              	waypoint_get_x:
 745              		@ args = 0, pretend = 0, frame = 0
 746              		@ frame_needed = 0, uses_anonymous_args = 0
 747              		@ link register save eliminated.
 748 0000 0B28     		cmp	r0, #11
 749 0002 01D9     		bls	.L71
 750 0004 0020     		movs	r0, #0
 751 0006 7047     		bx	lr
 752              	.L71:
 753 0008 034B     		ldr	r3, .L72
 754 000a 00EB8000 		add	r0, r0, r0, lsl #2
 755 000e 03EBC000 		add	r0, r3, r0, lsl #3
 756 0012 0069     		ldr	r0, [r0, #16]	@ float
 757 0014 7047     		bx	lr
 758              	.L73:
 759 0016 00BF     		.align	2
 760              	.L72:
 761 0018 00000000 		.word	.LANCHOR0
 762              		.size	waypoint_get_x, .-waypoint_get_x
 763              		.section	.text.waypoint_get_y,"ax",%progbits
 764              		.align	1
 765              		.p2align 4,,15
 766              		.global	waypoint_get_y
 767              		.syntax unified
 768              		.thumb
 769              		.thumb_func
 770              		.fpu fpv4-sp-d16
 771              		.type	waypoint_get_y, %function
 772              	waypoint_get_y:
 773              		@ args = 0, pretend = 0, frame = 0
 774              		@ frame_needed = 0, uses_anonymous_args = 0
 775              		@ link register save eliminated.
 776 0000 0B28     		cmp	r0, #11
 777 0002 01D9     		bls	.L77
 778 0004 0020     		movs	r0, #0
 779 0006 7047     		bx	lr
 780              	.L77:
 781 0008 034B     		ldr	r3, .L78
 782 000a 00EB8000 		add	r0, r0, r0, lsl #2
 783 000e 03EBC000 		add	r0, r3, r0, lsl #3
 784 0012 4069     		ldr	r0, [r0, #20]	@ float
 785 0014 7047     		bx	lr
 786              	.L79:
 787 0016 00BF     		.align	2
 788              	.L78:
 789 0018 00000000 		.word	.LANCHOR0
 790              		.size	waypoint_get_y, .-waypoint_get_y
 791              		.section	.text.waypoint_get_alt,"ax",%progbits
 792              		.align	1
ARM GAS  /tmp/cciWyQIO.s 			page 15


 793              		.p2align 4,,15
 794              		.global	waypoint_get_alt
 795              		.syntax unified
 796              		.thumb
 797              		.thumb_func
 798              		.fpu fpv4-sp-d16
 799              		.type	waypoint_get_alt, %function
 800              	waypoint_get_alt:
 801              		@ args = 0, pretend = 0, frame = 0
 802              		@ frame_needed = 0, uses_anonymous_args = 0
 803              		@ link register save eliminated.
 804 0000 0B28     		cmp	r0, #11
 805 0002 01D9     		bls	.L83
 806 0004 0020     		movs	r0, #0
 807 0006 7047     		bx	lr
 808              	.L83:
 809 0008 034B     		ldr	r3, .L84
 810 000a 00EB8000 		add	r0, r0, r0, lsl #2
 811 000e 03EBC000 		add	r0, r3, r0, lsl #3
 812 0012 8069     		ldr	r0, [r0, #24]	@ float
 813 0014 7047     		bx	lr
 814              	.L85:
 815 0016 00BF     		.align	2
 816              	.L84:
 817 0018 00000000 		.word	.LANCHOR0
 818              		.size	waypoint_get_alt, .-waypoint_get_alt
 819              		.global	__aeabi_i2d
 820              		.global	__aeabi_ddiv
 821              		.global	__aeabi_d2f
 822              		.section	.text.waypoint_get_lat_deg,"ax",%progbits
 823              		.align	1
 824              		.p2align 4,,15
 825              		.global	waypoint_get_lat_deg
 826              		.syntax unified
 827              		.thumb
 828              		.thumb_func
 829              		.fpu fpv4-sp-d16
 830              		.type	waypoint_get_lat_deg, %function
 831              	waypoint_get_lat_deg:
 832              		@ args = 0, pretend = 0, frame = 16
 833              		@ frame_needed = 0, uses_anonymous_args = 0
 834 0000 0B28     		cmp	r0, #11
 835 0002 23D8     		bhi	.L89
 836 0004 2DE9F041 		push	{r4, r5, r6, r7, r8, lr}
 837 0008 00EB8003 		add	r3, r0, r0, lsl #2
 838 000c 1C4D     		ldr	r5, .L98+8
 839 000e DF00     		lsls	r7, r3, #3
 840 0010 15F83330 		ldrb	r3, [r5, r3, lsl #3]	@ zero_extendqisi2
 841 0014 DA07     		lsls	r2, r3, #31
 842 0016 84B0     		sub	sp, sp, #16
 843 0018 0446     		mov	r4, r0
 844 001a 4FEA8006 		lsl	r6, r0, #2
 845 001e 05D4     		bmi	.L88
 846 0020 1B07     		lsls	r3, r3, #28
 847 0022 03D4     		bmi	.L88
 848 0024 1749     		ldr	r1, .L98+12
 849 0026 91F85C30 		ldrb	r3, [r1, #92]	@ zero_extendqisi2
ARM GAS  /tmp/cciWyQIO.s 			page 16


 850 002a 8BB9     		cbnz	r3, .L97
 851              	.L88:
 852 002c 3444     		add	r4, r4, r6
 853 002e 05EBC404 		add	r4, r5, r4, lsl #3
 854 0032 E069     		ldr	r0, [r4, #28]
 855 0034 FFF7FEFF 		bl	__aeabi_i2d
 856 0038 0FA3     		adr	r3, .L98
 857 003a D3E90023 		ldrd	r2, [r3]
 858 003e FFF7FEFF 		bl	__aeabi_ddiv
 859 0042 FFF7FEFF 		bl	__aeabi_d2f
 860 0046 04B0     		add	sp, sp, #16
 861              		@ sp needed
 862 0048 BDE8F081 		pop	{r4, r5, r6, r7, r8, pc}
 863              	.L89:
 864 004c 0020     		movs	r0, #0
 865 004e 7047     		bx	lr
 866              	.L97:
 867 0050 3A1D     		adds	r2, r7, #4
 868 0052 1C31     		adds	r1, r1, #28
 869 0054 2A44     		add	r2, r2, r5
 870 0056 01A8     		add	r0, sp, #4
 871 0058 FFF7FEFF 		bl	ecef_of_enu_pos_i
 872 005c 07F11C00 		add	r0, r7, #28
 873 0060 01A9     		add	r1, sp, #4
 874 0062 2844     		add	r0, r0, r5
 875 0064 FFF7FEFF 		bl	lla_of_ecef_i
 876 0068 EB5D     		ldrb	r3, [r5, r7]	@ zero_extendqisi2
 877 006a 43F00803 		orr	r3, r3, #8
 878 006e EB55     		strb	r3, [r5, r7]
 879 0070 DCE7     		b	.L88
 880              	.L99:
 881 0072 00BFAFF3 		.align	3
 881      0080
 882              	.L98:
 883 0078 00000000 		.word	0
 884 007c D0126341 		.word	1097011920
 885 0080 00000000 		.word	.LANCHOR0
 886 0084 00000000 		.word	state
 887              		.size	waypoint_get_lat_deg, .-waypoint_get_lat_deg
 888              		.global	__aeabi_f2d
 889              		.global	__aeabi_dmul
 890              		.section	.text.waypoint_get_lat_rad,"ax",%progbits
 891              		.align	1
 892              		.p2align 4,,15
 893              		.global	waypoint_get_lat_rad
 894              		.syntax unified
 895              		.thumb
 896              		.thumb_func
 897              		.fpu fpv4-sp-d16
 898              		.type	waypoint_get_lat_rad, %function
 899              	waypoint_get_lat_rad:
 900              		@ args = 0, pretend = 0, frame = 16
 901              		@ frame_needed = 0, uses_anonymous_args = 0
 902 0000 0B28     		cmp	r0, #11
 903 0002 2CD8     		bhi	.L103
 904 0004 2DE9F041 		push	{r4, r5, r6, r7, r8, lr}
 905 0008 00EB8003 		add	r3, r0, r0, lsl #2
ARM GAS  /tmp/cciWyQIO.s 			page 17


 906 000c 224D     		ldr	r5, .L112+16
 907 000e DF00     		lsls	r7, r3, #3
 908 0010 15F83330 		ldrb	r3, [r5, r3, lsl #3]	@ zero_extendqisi2
 909 0014 DA07     		lsls	r2, r3, #31
 910 0016 84B0     		sub	sp, sp, #16
 911 0018 0446     		mov	r4, r0
 912 001a 4FEA8006 		lsl	r6, r0, #2
 913 001e 05D4     		bmi	.L102
 914 0020 1B07     		lsls	r3, r3, #28
 915 0022 03D4     		bmi	.L102
 916 0024 1D49     		ldr	r1, .L112+20
 917 0026 91F85C30 		ldrb	r3, [r1, #92]	@ zero_extendqisi2
 918 002a D3B9     		cbnz	r3, .L111
 919              	.L102:
 920 002c 3444     		add	r4, r4, r6
 921 002e 05EBC404 		add	r4, r5, r4, lsl #3
 922 0032 E069     		ldr	r0, [r4, #28]
 923 0034 FFF7FEFF 		bl	__aeabi_i2d
 924 0038 13A3     		adr	r3, .L112
 925 003a D3E90023 		ldrd	r2, [r3]
 926 003e FFF7FEFF 		bl	__aeabi_ddiv
 927 0042 FFF7FEFF 		bl	__aeabi_d2f
 928 0046 FFF7FEFF 		bl	__aeabi_f2d
 929 004a 11A3     		adr	r3, .L112+8
 930 004c D3E90023 		ldrd	r2, [r3]
 931 0050 FFF7FEFF 		bl	__aeabi_dmul
 932 0054 FFF7FEFF 		bl	__aeabi_d2f
 933 0058 04B0     		add	sp, sp, #16
 934              		@ sp needed
 935 005a BDE8F081 		pop	{r4, r5, r6, r7, r8, pc}
 936              	.L103:
 937 005e 0020     		movs	r0, #0
 938 0060 7047     		bx	lr
 939              	.L111:
 940 0062 3A1D     		adds	r2, r7, #4
 941 0064 1C31     		adds	r1, r1, #28
 942 0066 2A44     		add	r2, r2, r5
 943 0068 01A8     		add	r0, sp, #4
 944 006a FFF7FEFF 		bl	ecef_of_enu_pos_i
 945 006e 07F11C00 		add	r0, r7, #28
 946 0072 01A9     		add	r1, sp, #4
 947 0074 2844     		add	r0, r0, r5
 948 0076 FFF7FEFF 		bl	lla_of_ecef_i
 949 007a EB5D     		ldrb	r3, [r5, r7]	@ zero_extendqisi2
 950 007c 43F00803 		orr	r3, r3, #8
 951 0080 EB55     		strb	r3, [r5, r7]
 952 0082 D3E7     		b	.L102
 953              	.L113:
 954 0084 AFF30080 		.align	3
 955              	.L112:
 956 0088 00000000 		.word	0
 957 008c D0126341 		.word	1097011920
 958 0090 399D52A2 		.word	-1571644103
 959 0094 46DF913F 		.word	1066524486
 960 0098 00000000 		.word	.LANCHOR0
 961 009c 00000000 		.word	state
 962              		.size	waypoint_get_lat_rad, .-waypoint_get_lat_rad
ARM GAS  /tmp/cciWyQIO.s 			page 18


 963              		.section	.text.waypoint_get_lon_deg,"ax",%progbits
 964              		.align	1
 965              		.p2align 4,,15
 966              		.global	waypoint_get_lon_deg
 967              		.syntax unified
 968              		.thumb
 969              		.thumb_func
 970              		.fpu fpv4-sp-d16
 971              		.type	waypoint_get_lon_deg, %function
 972              	waypoint_get_lon_deg:
 973              		@ args = 0, pretend = 0, frame = 16
 974              		@ frame_needed = 0, uses_anonymous_args = 0
 975 0000 0B28     		cmp	r0, #11
 976 0002 23D8     		bhi	.L117
 977 0004 2DE9F041 		push	{r4, r5, r6, r7, r8, lr}
 978 0008 00EB8003 		add	r3, r0, r0, lsl #2
 979 000c 1C4D     		ldr	r5, .L126+8
 980 000e DF00     		lsls	r7, r3, #3
 981 0010 15F83330 		ldrb	r3, [r5, r3, lsl #3]	@ zero_extendqisi2
 982 0014 DA07     		lsls	r2, r3, #31
 983 0016 84B0     		sub	sp, sp, #16
 984 0018 0446     		mov	r4, r0
 985 001a 4FEA8006 		lsl	r6, r0, #2
 986 001e 05D4     		bmi	.L116
 987 0020 1B07     		lsls	r3, r3, #28
 988 0022 03D4     		bmi	.L116
 989 0024 1749     		ldr	r1, .L126+12
 990 0026 91F85C30 		ldrb	r3, [r1, #92]	@ zero_extendqisi2
 991 002a 8BB9     		cbnz	r3, .L125
 992              	.L116:
 993 002c 3444     		add	r4, r4, r6
 994 002e 05EBC404 		add	r4, r5, r4, lsl #3
 995 0032 206A     		ldr	r0, [r4, #32]
 996 0034 FFF7FEFF 		bl	__aeabi_i2d
 997 0038 0FA3     		adr	r3, .L126
 998 003a D3E90023 		ldrd	r2, [r3]
 999 003e FFF7FEFF 		bl	__aeabi_ddiv
 1000 0042 FFF7FEFF 		bl	__aeabi_d2f
 1001 0046 04B0     		add	sp, sp, #16
 1002              		@ sp needed
 1003 0048 BDE8F081 		pop	{r4, r5, r6, r7, r8, pc}
 1004              	.L117:
 1005 004c 0020     		movs	r0, #0
 1006 004e 7047     		bx	lr
 1007              	.L125:
 1008 0050 3A1D     		adds	r2, r7, #4
 1009 0052 1C31     		adds	r1, r1, #28
 1010 0054 2A44     		add	r2, r2, r5
 1011 0056 01A8     		add	r0, sp, #4
 1012 0058 FFF7FEFF 		bl	ecef_of_enu_pos_i
 1013 005c 07F11C00 		add	r0, r7, #28
 1014 0060 01A9     		add	r1, sp, #4
 1015 0062 2844     		add	r0, r0, r5
 1016 0064 FFF7FEFF 		bl	lla_of_ecef_i
 1017 0068 EB5D     		ldrb	r3, [r5, r7]	@ zero_extendqisi2
 1018 006a 43F00803 		orr	r3, r3, #8
 1019 006e EB55     		strb	r3, [r5, r7]
ARM GAS  /tmp/cciWyQIO.s 			page 19


 1020 0070 DCE7     		b	.L116
 1021              	.L127:
 1022 0072 00BFAFF3 		.align	3
 1022      0080
 1023              	.L126:
 1024 0078 00000000 		.word	0
 1025 007c D0126341 		.word	1097011920
 1026 0080 00000000 		.word	.LANCHOR0
 1027 0084 00000000 		.word	state
 1028              		.size	waypoint_get_lon_deg, .-waypoint_get_lon_deg
 1029              		.section	.text.waypoint_get_lon_rad,"ax",%progbits
 1030              		.align	1
 1031              		.p2align 4,,15
 1032              		.global	waypoint_get_lon_rad
 1033              		.syntax unified
 1034              		.thumb
 1035              		.thumb_func
 1036              		.fpu fpv4-sp-d16
 1037              		.type	waypoint_get_lon_rad, %function
 1038              	waypoint_get_lon_rad:
 1039              		@ args = 0, pretend = 0, frame = 16
 1040              		@ frame_needed = 0, uses_anonymous_args = 0
 1041 0000 0B28     		cmp	r0, #11
 1042 0002 2CD8     		bhi	.L131
 1043 0004 2DE9F041 		push	{r4, r5, r6, r7, r8, lr}
 1044 0008 00EB8003 		add	r3, r0, r0, lsl #2
 1045 000c 224D     		ldr	r5, .L140+16
 1046 000e DF00     		lsls	r7, r3, #3
 1047 0010 15F83330 		ldrb	r3, [r5, r3, lsl #3]	@ zero_extendqisi2
 1048 0014 DA07     		lsls	r2, r3, #31
 1049 0016 84B0     		sub	sp, sp, #16
 1050 0018 0446     		mov	r4, r0
 1051 001a 4FEA8006 		lsl	r6, r0, #2
 1052 001e 05D4     		bmi	.L130
 1053 0020 1B07     		lsls	r3, r3, #28
 1054 0022 03D4     		bmi	.L130
 1055 0024 1D49     		ldr	r1, .L140+20
 1056 0026 91F85C30 		ldrb	r3, [r1, #92]	@ zero_extendqisi2
 1057 002a D3B9     		cbnz	r3, .L139
 1058              	.L130:
 1059 002c 3444     		add	r4, r4, r6
 1060 002e 05EBC404 		add	r4, r5, r4, lsl #3
 1061 0032 206A     		ldr	r0, [r4, #32]
 1062 0034 FFF7FEFF 		bl	__aeabi_i2d
 1063 0038 13A3     		adr	r3, .L140
 1064 003a D3E90023 		ldrd	r2, [r3]
 1065 003e FFF7FEFF 		bl	__aeabi_ddiv
 1066 0042 FFF7FEFF 		bl	__aeabi_d2f
 1067 0046 FFF7FEFF 		bl	__aeabi_f2d
 1068 004a 11A3     		adr	r3, .L140+8
 1069 004c D3E90023 		ldrd	r2, [r3]
 1070 0050 FFF7FEFF 		bl	__aeabi_dmul
 1071 0054 FFF7FEFF 		bl	__aeabi_d2f
 1072 0058 04B0     		add	sp, sp, #16
 1073              		@ sp needed
 1074 005a BDE8F081 		pop	{r4, r5, r6, r7, r8, pc}
 1075              	.L131:
ARM GAS  /tmp/cciWyQIO.s 			page 20


 1076 005e 0020     		movs	r0, #0
 1077 0060 7047     		bx	lr
 1078              	.L139:
 1079 0062 3A1D     		adds	r2, r7, #4
 1080 0064 1C31     		adds	r1, r1, #28
 1081 0066 2A44     		add	r2, r2, r5
 1082 0068 01A8     		add	r0, sp, #4
 1083 006a FFF7FEFF 		bl	ecef_of_enu_pos_i
 1084 006e 07F11C00 		add	r0, r7, #28
 1085 0072 01A9     		add	r1, sp, #4
 1086 0074 2844     		add	r0, r0, r5
 1087 0076 FFF7FEFF 		bl	lla_of_ecef_i
 1088 007a EB5D     		ldrb	r3, [r5, r7]	@ zero_extendqisi2
 1089 007c 43F00803 		orr	r3, r3, #8
 1090 0080 EB55     		strb	r3, [r5, r7]
 1091 0082 D3E7     		b	.L130
 1092              	.L141:
 1093 0084 AFF30080 		.align	3
 1094              	.L140:
 1095 0088 00000000 		.word	0
 1096 008c D0126341 		.word	1097011920
 1097 0090 399D52A2 		.word	-1571644103
 1098 0094 46DF913F 		.word	1066524486
 1099 0098 00000000 		.word	.LANCHOR0
 1100 009c 00000000 		.word	state
 1101              		.size	waypoint_get_lon_rad, .-waypoint_get_lon_rad
 1102              		.section	.text.waypoint_set_enu_i,"ax",%progbits
 1103              		.align	1
 1104              		.p2align 4,,15
 1105              		.global	waypoint_set_enu_i
 1106              		.syntax unified
 1107              		.thumb
 1108              		.thumb_func
 1109              		.fpu fpv4-sp-d16
 1110              		.type	waypoint_set_enu_i, %function
 1111              	waypoint_set_enu_i:
 1112              		@ args = 0, pretend = 0, frame = 0
 1113              		@ frame_needed = 0, uses_anonymous_args = 0
 1114              		@ link register save eliminated.
 1115 0000 0B28     		cmp	r0, #11
 1116 0002 01D8     		bhi	.L142
 1117 0004 FFF7FEBF 		b	waypoint_set_enu_i.part.0
 1118              	.L142:
 1119 0008 7047     		bx	lr
 1120              		.size	waypoint_set_enu_i, .-waypoint_set_enu_i
 1121 000a 00BF     		.section	.text.waypoint_set_enu,"ax",%progbits
 1122              		.align	1
 1123              		.p2align 4,,15
 1124              		.global	waypoint_set_enu
 1125              		.syntax unified
 1126              		.thumb
 1127              		.thumb_func
 1128              		.fpu fpv4-sp-d16
 1129              		.type	waypoint_set_enu, %function
 1130              	waypoint_set_enu:
 1131              		@ args = 0, pretend = 0, frame = 0
 1132              		@ frame_needed = 0, uses_anonymous_args = 0
ARM GAS  /tmp/cciWyQIO.s 			page 21


 1133              		@ link register save eliminated.
 1134 0000 0B28     		cmp	r0, #11
 1135 0002 01D8     		bhi	.L144
 1136 0004 FFF7FEBF 		b	waypoint_set_enu.part.0
 1137              	.L144:
 1138 0008 7047     		bx	lr
 1139              		.size	waypoint_set_enu, .-waypoint_set_enu
 1140 000a 00BF     		.section	.text.waypoint_move_enu_i,"ax",%progbits
 1141              		.align	1
 1142              		.p2align 4,,15
 1143              		.global	waypoint_move_enu_i
 1144              		.syntax unified
 1145              		.thumb
 1146              		.thumb_func
 1147              		.fpu fpv4-sp-d16
 1148              		.type	waypoint_move_enu_i, %function
 1149              	waypoint_move_enu_i:
 1150              		@ args = 0, pretend = 0, frame = 24
 1151              		@ frame_needed = 0, uses_anonymous_args = 0
 1152 0000 10B5     		push	{r4, lr}
 1153 0002 88B0     		sub	sp, sp, #32
 1154 0004 0B28     		cmp	r0, #11
 1155 0006 8DF80F00 		strb	r0, [sp, #15]
 1156 000a 01D9     		bls	.L149
 1157 000c 08B0     		add	sp, sp, #32
 1158              		@ sp needed
 1159 000e 10BD     		pop	{r4, pc}
 1160              	.L149:
 1161 0010 0C46     		mov	r4, r1
 1162 0012 FFF7FEFF 		bl	waypoint_set_enu_i.part.0
 1163 0016 0B48     		ldr	r0, .L150
 1164 0018 0B49     		ldr	r1, .L150+4
 1165 001a 04F10803 		add	r3, r4, #8
 1166 001e CDE90601 		strd	r0, r1, [sp, #24]
 1167 0022 0020     		movs	r0, #0
 1168 0024 4FF01F0C 		mov	ip, #31
 1169 0028 0093     		str	r3, [sp]
 1170 002a 8DF81600 		strb	r0, [sp, #22]
 1171 002e 231D     		adds	r3, r4, #4
 1172 0030 2246     		mov	r2, r4
 1173 0032 0DF10F01 		add	r1, sp, #15
 1174 0036 05A8     		add	r0, sp, #20
 1175 0038 ADF814C0 		strh	ip, [sp, #20]	@ movhi
 1176 003c FFF7FEFF 		bl	pprzlink_msg_v2_send_WP_MOVED_ENU.constprop.0
 1177 0040 08B0     		add	sp, sp, #32
 1178              		@ sp needed
 1179 0042 10BD     		pop	{r4, pc}
 1180              	.L151:
 1181              		.align	2
 1182              	.L150:
 1183 0044 08010000 		.word	pprz_tp+264
 1184 0048 40030000 		.word	syslink+832
 1185              		.size	waypoint_move_enu_i, .-waypoint_move_enu_i
 1186              		.section	.text.waypoint_set_xy_i,"ax",%progbits
 1187              		.align	1
 1188              		.p2align 4,,15
 1189              		.global	waypoint_set_xy_i
ARM GAS  /tmp/cciWyQIO.s 			page 22


 1190              		.syntax unified
 1191              		.thumb
 1192              		.thumb_func
 1193              		.fpu fpv4-sp-d16
 1194              		.type	waypoint_set_xy_i, %function
 1195              	waypoint_set_xy_i:
 1196              		@ args = 0, pretend = 0, frame = 16
 1197              		@ frame_needed = 0, uses_anonymous_args = 0
 1198 0000 0B28     		cmp	r0, #11
 1199 0002 21D8     		bhi	.L160
 1200 0004 07EE901A 		vmov	s15, r1	@ int
 1201 0008 B8EEE77A 		vcvt.f32.s32	s14, s15
 1202 000c 07EE902A 		vmov	s15, r2	@ int
 1203 0010 DFED176A 		vldr.32	s13, .L164
 1204 0014 F8EEE77A 		vcvt.f32.s32	s15, s15
 1205 0018 F0B5     		push	{r4, r5, r6, r7, lr}
 1206 001a 164D     		ldr	r5, .L164+4
 1207 001c 164F     		ldr	r7, .L164+8
 1208 001e 00EB8004 		add	r4, r0, r0, lsl #2
 1209 0022 27EE267A 		vmul.f32	s14, s14, s13
 1210 0026 67EEA67A 		vmul.f32	s15, s15, s13
 1211 002a 05EBC403 		add	r3, r5, r4, lsl #3
 1212 002e C3E90112 		strd	r1, r2, [r3, #4]
 1213 0032 83ED047A 		vstr.32	s14, [r3, #16]
 1214 0036 C3ED057A 		vstr.32	s15, [r3, #20]
 1215 003a 97F85C30 		ldrb	r3, [r7, #92]	@ zero_extendqisi2
 1216 003e 85B0     		sub	sp, sp, #20
 1217 0040 E600     		lsls	r6, r4, #3
 1218 0042 13B9     		cbnz	r3, .L163
 1219 0044 05B0     		add	sp, sp, #20
 1220              		@ sp needed
 1221 0046 F0BD     		pop	{r4, r5, r6, r7, pc}
 1222              	.L160:
 1223 0048 7047     		bx	lr
 1224              	.L163:
 1225 004a 321D     		adds	r2, r6, #4
 1226 004c 2A44     		add	r2, r2, r5
 1227 004e 07F11C01 		add	r1, r7, #28
 1228 0052 01A8     		add	r0, sp, #4
 1229 0054 FFF7FEFF 		bl	ecef_of_enu_pos_i
 1230 0058 06F11C00 		add	r0, r6, #28
 1231 005c 01A9     		add	r1, sp, #4
 1232 005e 2844     		add	r0, r0, r5
 1233 0060 FFF7FEFF 		bl	lla_of_ecef_i
 1234 0064 AB5D     		ldrb	r3, [r5, r6]	@ zero_extendqisi2
 1235 0066 43F00803 		orr	r3, r3, #8
 1236 006a AB55     		strb	r3, [r5, r6]
 1237 006c 05B0     		add	sp, sp, #20
 1238              		@ sp needed
 1239 006e F0BD     		pop	{r4, r5, r6, r7, pc}
 1240              	.L165:
 1241              		.align	2
 1242              	.L164:
 1243 0070 0000803B 		.word	998244352
 1244 0074 00000000 		.word	.LANCHOR0
 1245 0078 00000000 		.word	state
 1246              		.size	waypoint_set_xy_i, .-waypoint_set_xy_i
ARM GAS  /tmp/cciWyQIO.s 			page 23


 1247              		.section	.text.waypoint_move_xy_i,"ax",%progbits
 1248              		.align	1
 1249              		.p2align 4,,15
 1250              		.global	waypoint_move_xy_i
 1251              		.syntax unified
 1252              		.thumb
 1253              		.thumb_func
 1254              		.fpu fpv4-sp-d16
 1255              		.type	waypoint_move_xy_i, %function
 1256              	waypoint_move_xy_i:
 1257              		@ args = 0, pretend = 0, frame = 32
 1258              		@ frame_needed = 0, uses_anonymous_args = 0
 1259 0000 F0B5     		push	{r4, r5, r6, r7, lr}
 1260 0002 8BB0     		sub	sp, sp, #44
 1261 0004 0B28     		cmp	r0, #11
 1262 0006 CDE90321 		strd	r2, r1, [sp, #12]
 1263 000a 8DF81700 		strb	r0, [sp, #23]
 1264 000e 01D9     		bls	.L173
 1265 0010 0BB0     		add	sp, sp, #44
 1266              		@ sp needed
 1267 0012 F0BD     		pop	{r4, r5, r6, r7, pc}
 1268              	.L173:
 1269 0014 07EE901A 		vmov	s15, r1	@ int
 1270 0018 B8EEE77A 		vcvt.f32.s32	s14, s15
 1271 001c 07EE902A 		vmov	s15, r2	@ int
 1272 0020 254D     		ldr	r5, .L174
 1273 0022 DFED266A 		vldr.32	s13, .L174+4
 1274 0026 264E     		ldr	r6, .L174+8
 1275 0028 00EB8004 		add	r4, r0, r0, lsl #2
 1276 002c F8EEE77A 		vcvt.f32.s32	s15, s15
 1277 0030 0346     		mov	r3, r0
 1278 0032 05EBC400 		add	r0, r5, r4, lsl #3
 1279 0036 C0E90112 		strd	r1, r2, [r0, #4]
 1280 003a 27EE267A 		vmul.f32	s14, s14, s13
 1281 003e 67EEA67A 		vmul.f32	s15, s15, s13
 1282 0042 96F85C20 		ldrb	r2, [r6, #92]	@ zero_extendqisi2
 1283 0046 80ED047A 		vstr.32	s14, [r0, #16]
 1284 004a E700     		lsls	r7, r4, #3
 1285 004c C0ED057A 		vstr.32	s15, [r0, #20]
 1286 0050 CAB9     		cbnz	r2, .L171
 1287 0052 07AE     		add	r6, sp, #28
 1288              	.L168:
 1289 0054 1B49     		ldr	r1, .L174+12
 1290 0056 1C4A     		ldr	r2, .L174+16
 1291 0058 03EB8303 		add	r3, r3, r3, lsl #2
 1292 005c 05EBC303 		add	r3, r5, r3, lsl #3
 1293 0060 CDE90812 		strd	r1, r2, [sp, #32]
 1294 0064 0C33     		adds	r3, r3, #12
 1295 0066 0021     		movs	r1, #0
 1296 0068 0093     		str	r3, [sp]
 1297 006a 8DF81E10 		strb	r1, [sp, #30]
 1298 006e 1F24     		movs	r4, #31
 1299 0070 03AB     		add	r3, sp, #12
 1300 0072 3046     		mov	r0, r6
 1301 0074 04AA     		add	r2, sp, #16
 1302 0076 0DF11701 		add	r1, sp, #23
 1303 007a ADF81C40 		strh	r4, [sp, #28]	@ movhi
ARM GAS  /tmp/cciWyQIO.s 			page 24


 1304 007e FFF7FEFF 		bl	pprzlink_msg_v2_send_WP_MOVED_ENU.constprop.0
 1305 0082 0BB0     		add	sp, sp, #44
 1306              		@ sp needed
 1307 0084 F0BD     		pop	{r4, r5, r6, r7, pc}
 1308              	.L171:
 1309 0086 03EB8303 		add	r3, r3, r3, lsl #2
 1310 008a DC00     		lsls	r4, r3, #3
 1311 008c 06F11C01 		add	r1, r6, #28
 1312 0090 221D     		adds	r2, r4, #4
 1313 0092 07AE     		add	r6, sp, #28
 1314 0094 2A44     		add	r2, r2, r5
 1315 0096 3046     		mov	r0, r6
 1316 0098 FFF7FEFF 		bl	ecef_of_enu_pos_i
 1317 009c 04F11C00 		add	r0, r4, #28
 1318 00a0 3146     		mov	r1, r6
 1319 00a2 2844     		add	r0, r0, r5
 1320 00a4 FFF7FEFF 		bl	lla_of_ecef_i
 1321 00a8 EA5D     		ldrb	r2, [r5, r7]	@ zero_extendqisi2
 1322 00aa 9DF81730 		ldrb	r3, [sp, #23]	@ zero_extendqisi2
 1323 00ae 42F00802 		orr	r2, r2, #8
 1324 00b2 EA55     		strb	r2, [r5, r7]
 1325 00b4 CEE7     		b	.L168
 1326              	.L175:
 1327 00b6 00BF     		.align	2
 1328              	.L174:
 1329 00b8 00000000 		.word	.LANCHOR0
 1330 00bc 0000803B 		.word	998244352
 1331 00c0 00000000 		.word	state
 1332 00c4 08010000 		.word	pprz_tp+264
 1333 00c8 40030000 		.word	syslink+832
 1334              		.size	waypoint_move_xy_i, .-waypoint_move_xy_i
 1335              		.section	.text.waypoint_set_alt_i,"ax",%progbits
 1336              		.align	1
 1337              		.p2align 4,,15
 1338              		.global	waypoint_set_alt_i
 1339              		.syntax unified
 1340              		.thumb
 1341              		.thumb_func
 1342              		.fpu fpv4-sp-d16
 1343              		.type	waypoint_set_alt_i, %function
 1344              	waypoint_set_alt_i:
 1345              		@ args = 0, pretend = 0, frame = 16
 1346              		@ frame_needed = 0, uses_anonymous_args = 0
 1347 0000 0B28     		cmp	r0, #11
 1348 0002 14D8     		bhi	.L184
 1349 0004 F0B5     		push	{r4, r5, r6, r7, lr}
 1350 0006 07EE901A 		vmov	s15, r1	@ int
 1351 000a 134D     		ldr	r5, .L188
 1352 000c 134F     		ldr	r7, .L188+4
 1353 000e 00EB8003 		add	r3, r0, r0, lsl #2
 1354 0012 FAEECC7A 		vcvt.f32.s32	s15, s15, #8
 1355 0016 DE00     		lsls	r6, r3, #3
 1356 0018 05EBC303 		add	r3, r5, r3, lsl #3
 1357 001c C3ED067A 		vstr.32	s15, [r3, #24]
 1358 0020 D960     		str	r1, [r3, #12]
 1359 0022 97F85C30 		ldrb	r3, [r7, #92]	@ zero_extendqisi2
 1360 0026 85B0     		sub	sp, sp, #20
ARM GAS  /tmp/cciWyQIO.s 			page 25


 1361 0028 13B9     		cbnz	r3, .L187
 1362 002a 05B0     		add	sp, sp, #20
 1363              		@ sp needed
 1364 002c F0BD     		pop	{r4, r5, r6, r7, pc}
 1365              	.L184:
 1366 002e 7047     		bx	lr
 1367              	.L187:
 1368 0030 321D     		adds	r2, r6, #4
 1369 0032 2A44     		add	r2, r2, r5
 1370 0034 07F11C01 		add	r1, r7, #28
 1371 0038 01A8     		add	r0, sp, #4
 1372 003a FFF7FEFF 		bl	ecef_of_enu_pos_i
 1373 003e 06F11C00 		add	r0, r6, #28
 1374 0042 01A9     		add	r1, sp, #4
 1375 0044 2844     		add	r0, r0, r5
 1376 0046 FFF7FEFF 		bl	lla_of_ecef_i
 1377 004a AB5D     		ldrb	r3, [r5, r6]	@ zero_extendqisi2
 1378 004c 43F00803 		orr	r3, r3, #8
 1379 0050 AB55     		strb	r3, [r5, r6]
 1380 0052 05B0     		add	sp, sp, #20
 1381              		@ sp needed
 1382 0054 F0BD     		pop	{r4, r5, r6, r7, pc}
 1383              	.L189:
 1384 0056 00BF     		.align	2
 1385              	.L188:
 1386 0058 00000000 		.word	.LANCHOR0
 1387 005c 00000000 		.word	state
 1388              		.size	waypoint_set_alt_i, .-waypoint_set_alt_i
 1389              		.section	.text.waypoint_set_alt,"ax",%progbits
 1390              		.align	1
 1391              		.p2align 4,,15
 1392              		.global	waypoint_set_alt
 1393              		.syntax unified
 1394              		.thumb
 1395              		.thumb_func
 1396              		.fpu fpv4-sp-d16
 1397              		.type	waypoint_set_alt, %function
 1398              	waypoint_set_alt:
 1399              		@ args = 0, pretend = 0, frame = 16
 1400              		@ frame_needed = 0, uses_anonymous_args = 0
 1401 0000 0B28     		cmp	r0, #11
 1402 0002 14D8     		bhi	.L198
 1403 0004 70B5     		push	{r4, r5, r6, lr}
 1404 0006 134E     		ldr	r6, .L202
 1405 0008 00EB8002 		add	r2, r0, r0, lsl #2
 1406 000c 06EBC203 		add	r3, r6, r2, lsl #3
 1407 0010 07EE101A 		vmov	s14, r1
 1408 0014 9961     		str	r1, [r3, #24]	@ float
 1409 0016 BEEECC7A 		vcvt.s32.f32	s14, s14, #8
 1410 001a 0F49     		ldr	r1, .L202+4
 1411 001c 83ED037A 		vstr.32	s14, [r3, #12]	@ int
 1412 0020 91F85C30 		ldrb	r3, [r1, #92]	@ zero_extendqisi2
 1413 0024 84B0     		sub	sp, sp, #16
 1414 0026 D500     		lsls	r5, r2, #3
 1415 0028 13B9     		cbnz	r3, .L201
 1416 002a 04B0     		add	sp, sp, #16
 1417              		@ sp needed
ARM GAS  /tmp/cciWyQIO.s 			page 26


 1418 002c 70BD     		pop	{r4, r5, r6, pc}
 1419              	.L198:
 1420 002e 7047     		bx	lr
 1421              	.L201:
 1422 0030 2A1D     		adds	r2, r5, #4
 1423 0032 3244     		add	r2, r2, r6
 1424 0034 01A8     		add	r0, sp, #4
 1425 0036 1C31     		adds	r1, r1, #28
 1426 0038 FFF7FEFF 		bl	ecef_of_enu_pos_i
 1427 003c 05F11C00 		add	r0, r5, #28
 1428 0040 01A9     		add	r1, sp, #4
 1429 0042 3044     		add	r0, r0, r6
 1430 0044 FFF7FEFF 		bl	lla_of_ecef_i
 1431 0048 735D     		ldrb	r3, [r6, r5]	@ zero_extendqisi2
 1432 004a 43F00803 		orr	r3, r3, #8
 1433 004e 7355     		strb	r3, [r6, r5]
 1434 0050 04B0     		add	sp, sp, #16
 1435              		@ sp needed
 1436 0052 70BD     		pop	{r4, r5, r6, pc}
 1437              	.L203:
 1438              		.align	2
 1439              	.L202:
 1440 0054 00000000 		.word	.LANCHOR0
 1441 0058 00000000 		.word	state
 1442              		.size	waypoint_set_alt, .-waypoint_set_alt
 1443              		.section	.text.waypoint_set_lla,"ax",%progbits
 1444              		.align	1
 1445              		.p2align 4,,15
 1446              		.global	waypoint_set_lla
 1447              		.syntax unified
 1448              		.thumb
 1449              		.thumb_func
 1450              		.fpu fpv4-sp-d16
 1451              		.type	waypoint_set_lla, %function
 1452              	waypoint_set_lla:
 1453              		@ args = 0, pretend = 0, frame = 0
 1454              		@ frame_needed = 0, uses_anonymous_args = 0
 1455 0000 0B28     		cmp	r0, #11
 1456 0002 1BD8     		bhi	.L212
 1457 0004 0E4A     		ldr	r2, .L216
 1458 0006 70B5     		push	{r4, r5, r6, lr}
 1459 0008 00EB800E 		add	lr, r0, r0, lsl #2
 1460 000c 0D4C     		ldr	r4, .L216+4
 1461 000e 92F85C60 		ldrb	r6, [r2, #92]	@ zero_extendqisi2
 1462 0012 14F83E50 		ldrb	r5, [r4, lr, lsl #3]	@ zero_extendqisi2
 1463 0016 0346     		mov	r3, r0
 1464 0018 07C9     		ldm	r1, {r0, r1, r2}
 1465 001a 04EBCE0C 		add	ip, r4, lr, lsl #3
 1466 001e 0CF11C0C 		add	ip, ip, #28
 1467 0022 45F00805 		orr	r5, r5, #8
 1468 0026 8CE80700 		stm	ip, {r0, r1, r2}
 1469 002a 04F83E50 		strb	r5, [r4, lr, lsl #3]
 1470 002e 06B9     		cbnz	r6, .L215
 1471 0030 70BD     		pop	{r4, r5, r6, pc}
 1472              	.L215:
 1473 0032 BDE87040 		pop	{r4, r5, r6, lr}
 1474 0036 1846     		mov	r0, r3
ARM GAS  /tmp/cciWyQIO.s 			page 27


 1475 0038 FFF7FEBF 		b	waypoint_localize.part.0
 1476              	.L212:
 1477 003c 7047     		bx	lr
 1478              	.L217:
 1479 003e 00BF     		.align	2
 1480              	.L216:
 1481 0040 00000000 		.word	state
 1482 0044 00000000 		.word	.LANCHOR0
 1483              		.size	waypoint_set_lla, .-waypoint_set_lla
 1484              		.section	.text.waypoint_move_lla,"ax",%progbits
 1485              		.align	1
 1486              		.p2align 4,,15
 1487              		.global	waypoint_move_lla
 1488              		.syntax unified
 1489              		.thumb
 1490              		.thumb_func
 1491              		.fpu fpv4-sp-d16
 1492              		.type	waypoint_move_lla, %function
 1493              	waypoint_move_lla:
 1494              		@ args = 0, pretend = 0, frame = 24
 1495              		@ frame_needed = 0, uses_anonymous_args = 0
 1496 0000 30B5     		push	{r4, r5, lr}
 1497 0002 89B0     		sub	sp, sp, #36
 1498 0004 0B28     		cmp	r0, #11
 1499 0006 8DF80F00 		strb	r0, [sp, #15]
 1500 000a 01D9     		bls	.L226
 1501              	.L218:
 1502 000c 09B0     		add	sp, sp, #36
 1503              		@ sp needed
 1504 000e 30BD     		pop	{r4, r5, pc}
 1505              	.L226:
 1506 0010 0C46     		mov	r4, r1
 1507 0012 FFF7FEFF 		bl	waypoint_set_lla.part.0
 1508 0016 9DF80F00 		ldrb	r0, [sp, #15]	@ zero_extendqisi2
 1509 001a 214A     		ldr	r2, .L228
 1510 001c 0B28     		cmp	r0, #11
 1511 001e 1CD9     		bls	.L227
 1512 0020 8300     		lsls	r3, r0, #2
 1513              	.L221:
 1514 0022 1918     		adds	r1, r3, r0
 1515 0024 C900     		lsls	r1, r1, #3
 1516 0026 1F4C     		ldr	r4, .L228+4
 1517 0028 0694     		str	r4, [sp, #24]
 1518 002a 01F10C00 		add	r0, r1, #12
 1519 002e 1E4C     		ldr	r4, .L228+8
 1520 0030 0794     		str	r4, [sp, #28]
 1521 0032 1044     		add	r0, r0, r2
 1522 0034 01F10803 		add	r3, r1, #8
 1523 0038 1F24     		movs	r4, #31
 1524 003a 0431     		adds	r1, r1, #4
 1525 003c 0090     		str	r0, [sp]
 1526 003e 1344     		add	r3, r3, r2
 1527 0040 ADF81440 		strh	r4, [sp, #20]	@ movhi
 1528 0044 0A44     		add	r2, r2, r1
 1529 0046 05A8     		add	r0, sp, #20
 1530 0048 0DF10F01 		add	r1, sp, #15
 1531 004c 0024     		movs	r4, #0
ARM GAS  /tmp/cciWyQIO.s 			page 28


 1532 004e 8DF81640 		strb	r4, [sp, #22]
 1533 0052 FFF7FEFF 		bl	pprzlink_msg_v2_send_WP_MOVED_ENU.constprop.0
 1534 0056 09B0     		add	sp, sp, #36
 1535              		@ sp needed
 1536 0058 30BD     		pop	{r4, r5, pc}
 1537              	.L227:
 1538 005a 00EB8001 		add	r1, r0, r0, lsl #2
 1539 005e 8300     		lsls	r3, r0, #2
 1540 0060 12F83110 		ldrb	r1, [r2, r1, lsl #3]	@ zero_extendqisi2
 1541 0064 C907     		lsls	r1, r1, #31
 1542 0066 DCD5     		bpl	.L221
 1543 0068 104A     		ldr	r2, .L228+12
 1544 006a A368     		ldr	r3, [r4, #8]
 1545 006c 106B     		ldr	r0, [r2, #48]
 1546 006e 916D     		ldr	r1, [r2, #88]
 1547 0070 0C4D     		ldr	r5, .L228+4
 1548 0072 0695     		str	r5, [sp, #24]
 1549 0074 1B1A     		subs	r3, r3, r0
 1550 0076 1944     		add	r1, r1, r3
 1551 0078 04AA     		add	r2, sp, #16
 1552 007a 0B48     		ldr	r0, .L228+8
 1553 007c 0491     		str	r1, [sp, #16]
 1554 007e 1F21     		movs	r1, #31
 1555 0080 0092     		str	r2, [sp]
 1556 0082 231D     		adds	r3, r4, #4
 1557 0084 2246     		mov	r2, r4
 1558 0086 0790     		str	r0, [sp, #28]
 1559 0088 0024     		movs	r4, #0
 1560 008a ADF81410 		strh	r1, [sp, #20]	@ movhi
 1561 008e 05A8     		add	r0, sp, #20
 1562 0090 0DF10F01 		add	r1, sp, #15
 1563 0094 8DF81640 		strb	r4, [sp, #22]
 1564 0098 FFF7FEFF 		bl	pprzlink_msg_v2_send_WP_MOVED_LLA.constprop.0
 1565 009c B6E7     		b	.L218
 1566              	.L229:
 1567 009e 00BF     		.align	2
 1568              	.L228:
 1569 00a0 00000000 		.word	.LANCHOR0
 1570 00a4 08010000 		.word	pprz_tp+264
 1571 00a8 40030000 		.word	syslink+832
 1572 00ac 00000000 		.word	state
 1573              		.size	waypoint_move_lla, .-waypoint_move_lla
 1574              		.section	.text.waypoint_set_latlon,"ax",%progbits
 1575              		.align	1
 1576              		.p2align 4,,15
 1577              		.global	waypoint_set_latlon
 1578              		.syntax unified
 1579              		.thumb
 1580              		.thumb_func
 1581              		.fpu fpv4-sp-d16
 1582              		.type	waypoint_set_latlon, %function
 1583              	waypoint_set_latlon:
 1584              		@ args = 0, pretend = 0, frame = 0
 1585              		@ frame_needed = 0, uses_anonymous_args = 0
 1586              		@ link register save eliminated.
 1587 0000 0B28     		cmp	r0, #11
 1588 0002 18D8     		bhi	.L238
ARM GAS  /tmp/cciWyQIO.s 			page 29


 1589 0004 70B4     		push	{r4, r5, r6}
 1590 0006 0C4A     		ldr	r2, .L242
 1591 0008 D1E90065 		ldrd	r6, r5, [r1]
 1592 000c 00EB8003 		add	r3, r0, r0, lsl #2
 1593 0010 0A49     		ldr	r1, .L242+4
 1594 0012 91F85C40 		ldrb	r4, [r1, #92]	@ zero_extendqisi2
 1595 0016 12F83310 		ldrb	r1, [r2, r3, lsl #3]	@ zero_extendqisi2
 1596 001a 41F00801 		orr	r1, r1, #8
 1597 001e 02F83310 		strb	r1, [r2, r3, lsl #3]
 1598 0022 02EBC303 		add	r3, r2, r3, lsl #3
 1599 0026 C3E90765 		strd	r6, r5, [r3, #28]
 1600 002a 0CB9     		cbnz	r4, .L241
 1601 002c 70BC     		pop	{r4, r5, r6}
 1602 002e 7047     		bx	lr
 1603              	.L241:
 1604 0030 70BC     		pop	{r4, r5, r6}
 1605 0032 FFF7FEBF 		b	waypoint_localize.part.0
 1606              	.L238:
 1607 0036 7047     		bx	lr
 1608              	.L243:
 1609              		.align	2
 1610              	.L242:
 1611 0038 00000000 		.word	.LANCHOR0
 1612 003c 00000000 		.word	state
 1613              		.size	waypoint_set_latlon, .-waypoint_set_latlon
 1614              		.section	.text.waypoint_set_here,"ax",%progbits
 1615              		.align	1
 1616              		.p2align 4,,15
 1617              		.global	waypoint_set_here
 1618              		.syntax unified
 1619              		.thumb
 1620              		.thumb_func
 1621              		.fpu fpv4-sp-d16
 1622              		.type	waypoint_set_here, %function
 1623              	waypoint_set_here:
 1624              		@ args = 0, pretend = 0, frame = 8
 1625              		@ frame_needed = 0, uses_anonymous_args = 0
 1626 0000 0B28     		cmp	r0, #11
 1627 0002 1BD8     		bhi	.L244
 1628 0004 00B5     		push	{lr}
 1629 0006 184B     		ldr	r3, .L254
 1630 0008 00EB8002 		add	r2, r0, r0, lsl #2
 1631 000c 83B0     		sub	sp, sp, #12
 1632 000e 13F83230 		ldrb	r3, [r3, r2, lsl #3]	@ zero_extendqisi2
 1633 0012 13F0010F 		tst	r3, #1
 1634 0016 154B     		ldr	r3, .L254+4
 1635 0018 1B88     		ldrh	r3, [r3]
 1636 001a 07D0     		beq	.L246
 1637 001c 1A07     		lsls	r2, r3, #28
 1638 001e 18D5     		bpl	.L252
 1639 0020 1349     		ldr	r1, .L254+8
 1640 0022 03B0     		add	sp, sp, #12
 1641              		@ sp needed
 1642 0024 5DF804EB 		ldr	lr, [sp], #4
 1643 0028 FFF7FEBF 		b	waypoint_set_lla.part.0
 1644              	.L246:
 1645 002c 5B07     		lsls	r3, r3, #29
ARM GAS  /tmp/cciWyQIO.s 			page 30


 1646 002e 06D5     		bpl	.L253
 1647 0030 1049     		ldr	r1, .L254+12
 1648 0032 03B0     		add	sp, sp, #12
 1649              		@ sp needed
 1650 0034 5DF804EB 		ldr	lr, [sp], #4
 1651 0038 FFF7FEBF 		b	waypoint_set_enu_i.part.0
 1652              	.L244:
 1653 003c 7047     		bx	lr
 1654              	.L253:
 1655 003e 0190     		str	r0, [sp, #4]
 1656 0040 FFF7FEFF 		bl	stateCalcPositionEnu_i
 1657 0044 0198     		ldr	r0, [sp, #4]
 1658 0046 0B49     		ldr	r1, .L254+12
 1659 0048 03B0     		add	sp, sp, #12
 1660              		@ sp needed
 1661 004a 5DF804EB 		ldr	lr, [sp], #4
 1662 004e FFF7FEBF 		b	waypoint_set_enu_i.part.0
 1663              	.L252:
 1664 0052 0190     		str	r0, [sp, #4]
 1665 0054 FFF7FEFF 		bl	stateCalcPositionLla_i
 1666 0058 0198     		ldr	r0, [sp, #4]
 1667 005a 0549     		ldr	r1, .L254+8
 1668 005c 03B0     		add	sp, sp, #12
 1669              		@ sp needed
 1670 005e 5DF804EB 		ldr	lr, [sp], #4
 1671 0062 FFF7FEBF 		b	waypoint_set_lla.part.0
 1672              	.L255:
 1673 0066 00BF     		.align	2
 1674              	.L254:
 1675 0068 00000000 		.word	.LANCHOR0
 1676 006c 00000000 		.word	state
 1677 0070 10000000 		.word	state+16
 1678 0074 6C000000 		.word	state+108
 1679              		.size	waypoint_set_here, .-waypoint_set_here
 1680              		.section	.text.waypoint_set_here_2d,"ax",%progbits
 1681              		.align	1
 1682              		.p2align 4,,15
 1683              		.global	waypoint_set_here_2d
 1684              		.syntax unified
 1685              		.thumb
 1686              		.thumb_func
 1687              		.fpu fpv4-sp-d16
 1688              		.type	waypoint_set_here_2d, %function
 1689              	waypoint_set_here_2d:
 1690              		@ args = 0, pretend = 0, frame = 16
 1691              		@ frame_needed = 0, uses_anonymous_args = 0
 1692 0000 0B28     		cmp	r0, #11
 1693 0002 4BD8     		bhi	.L271
 1694 0004 2DE9F041 		push	{r4, r5, r6, r7, r8, lr}
 1695 0008 00EB8003 		add	r3, r0, r0, lsl #2
 1696 000c 354F     		ldr	r7, .L278
 1697 000e 364E     		ldr	r6, .L278+4
 1698 0010 17F83330 		ldrb	r3, [r7, r3, lsl #3]	@ zero_extendqisi2
 1699 0014 13F0010F 		tst	r3, #1
 1700 0018 84B0     		sub	sp, sp, #16
 1701 001a 3388     		ldrh	r3, [r6]
 1702 001c 0446     		mov	r4, r0
ARM GAS  /tmp/cciWyQIO.s 			page 31


 1703 001e 4FEA8005 		lsl	r5, r0, #2
 1704 0022 22D1     		bne	.L274
 1705 0024 5A07     		lsls	r2, r3, #29
 1706 0026 53D5     		bpl	.L275
 1707 0028 D6F86C80 		ldr	r8, [r6, #108]
 1708              	.L263:
 1709 002c 326F     		ldr	r2, [r6, #112]
 1710 002e DFED2F6A 		vldr.32	s13, .L278+8
 1711 0032 96F85C10 		ldrb	r1, [r6, #92]	@ zero_extendqisi2
 1712 0036 07EE908A 		vmov	s15, r8	@ int
 1713 003a B8EEE77A 		vcvt.f32.s32	s14, s15
 1714 003e 07EE902A 		vmov	s15, r2	@ int
 1715 0042 F8EEE77A 		vcvt.f32.s32	s15, s15
 1716 0046 2544     		add	r5, r5, r4
 1717 0048 27EE267A 		vmul.f32	s14, s14, s13
 1718 004c 67EEA67A 		vmul.f32	s15, s15, s13
 1719 0050 07EBC503 		add	r3, r7, r5, lsl #3
 1720 0054 C3E90182 		strd	r8, r2, [r3, #4]
 1721 0058 ED00     		lsls	r5, r5, #3
 1722 005a 83ED047A 		vstr.32	s14, [r3, #16]
 1723 005e C3ED057A 		vstr.32	s15, [r3, #20]
 1724 0062 F9B9     		cbnz	r1, .L276
 1725              	.L256:
 1726 0064 04B0     		add	sp, sp, #16
 1727              		@ sp needed
 1728 0066 BDE8F081 		pop	{r4, r5, r6, r7, r8, pc}
 1729              	.L274:
 1730 006a 1907     		lsls	r1, r3, #28
 1731 006c 17D5     		bpl	.L277
 1732              	.L260:
 1733 006e 2544     		add	r5, r5, r4
 1734 0070 7269     		ldr	r2, [r6, #20]
 1735 0072 17F83530 		ldrb	r3, [r7, r5, lsl #3]	@ zero_extendqisi2
 1736 0076 3169     		ldr	r1, [r6, #16]
 1737 0078 43F00803 		orr	r3, r3, #8
 1738 007c 07F83530 		strb	r3, [r7, r5, lsl #3]
 1739 0080 96F85C30 		ldrb	r3, [r6, #92]	@ zero_extendqisi2
 1740 0084 07EBC505 		add	r5, r7, r5, lsl #3
 1741 0088 C5E90712 		strd	r1, r2, [r5, #28]
 1742 008c 002B     		cmp	r3, #0
 1743 008e E9D0     		beq	.L256
 1744 0090 2046     		mov	r0, r4
 1745 0092 04B0     		add	sp, sp, #16
 1746              		@ sp needed
 1747 0094 BDE8F041 		pop	{r4, r5, r6, r7, r8, lr}
 1748 0098 FFF7FEBF 		b	waypoint_localize.part.0
 1749              	.L271:
 1750 009c 7047     		bx	lr
 1751              	.L277:
 1752 009e FFF7FEFF 		bl	stateCalcPositionLla_i
 1753 00a2 E4E7     		b	.L260
 1754              	.L276:
 1755 00a4 04EB8404 		add	r4, r4, r4, lsl #2
 1756 00a8 E400     		lsls	r4, r4, #3
 1757 00aa 221D     		adds	r2, r4, #4
 1758 00ac 3A44     		add	r2, r2, r7
 1759 00ae 01A8     		add	r0, sp, #4
ARM GAS  /tmp/cciWyQIO.s 			page 32


 1760 00b0 0F49     		ldr	r1, .L278+12
 1761 00b2 FFF7FEFF 		bl	ecef_of_enu_pos_i
 1762 00b6 04F11C00 		add	r0, r4, #28
 1763 00ba 01A9     		add	r1, sp, #4
 1764 00bc 3844     		add	r0, r0, r7
 1765 00be FFF7FEFF 		bl	lla_of_ecef_i
 1766 00c2 7B5D     		ldrb	r3, [r7, r5]	@ zero_extendqisi2
 1767 00c4 43F00803 		orr	r3, r3, #8
 1768 00c8 7B55     		strb	r3, [r7, r5]
 1769 00ca 04B0     		add	sp, sp, #16
 1770              		@ sp needed
 1771 00cc BDE8F081 		pop	{r4, r5, r6, r7, r8, pc}
 1772              	.L275:
 1773 00d0 FFF7FEFF 		bl	stateCalcPositionEnu_i
 1774 00d4 3388     		ldrh	r3, [r6]
 1775 00d6 D6F86C80 		ldr	r8, [r6, #108]
 1776 00da 5B07     		lsls	r3, r3, #29
 1777 00dc A6D4     		bmi	.L263
 1778 00de FFF7FEFF 		bl	stateCalcPositionEnu_i
 1779 00e2 A3E7     		b	.L263
 1780              	.L279:
 1781              		.align	2
 1782              	.L278:
 1783 00e4 00000000 		.word	.LANCHOR0
 1784 00e8 00000000 		.word	state
 1785 00ec 0000803B 		.word	998244352
 1786 00f0 1C000000 		.word	state+28
 1787              		.size	waypoint_set_here_2d, .-waypoint_set_here_2d
 1788              		.section	.text.waypoint_move_here_2d,"ax",%progbits
 1789              		.align	1
 1790              		.p2align 4,,15
 1791              		.global	waypoint_move_here_2d
 1792              		.syntax unified
 1793              		.thumb
 1794              		.thumb_func
 1795              		.fpu fpv4-sp-d16
 1796              		.type	waypoint_move_here_2d, %function
 1797              	waypoint_move_here_2d:
 1798              		@ args = 0, pretend = 0, frame = 24
 1799              		@ frame_needed = 0, uses_anonymous_args = 0
 1800 0000 30B5     		push	{r4, r5, lr}
 1801 0002 89B0     		sub	sp, sp, #36
 1802 0004 0B28     		cmp	r0, #11
 1803 0006 8DF80F00 		strb	r0, [sp, #15]
 1804 000a 2AD8     		bhi	.L280
 1805 000c 00EB8001 		add	r1, r0, r0, lsl #2
 1806 0010 234A     		ldr	r2, .L284
 1807 0012 CC00     		lsls	r4, r1, #3
 1808 0014 12F83110 		ldrb	r1, [r2, r1, lsl #3]	@ zero_extendqisi2
 1809 0018 0346     		mov	r3, r0
 1810 001a 11F00100 		ands	r0, r1, #1
 1811 001e 22D0     		beq	.L282
 1812 0020 2048     		ldr	r0, .L284+4
 1813 0022 1444     		add	r4, r4, r2
 1814 0024 056B     		ldr	r5, [r0, #48]
 1815 0026 646A     		ldr	r4, [r4, #36]
 1816 0028 806D     		ldr	r0, [r0, #88]
ARM GAS  /tmp/cciWyQIO.s 			page 33


 1817 002a 641B     		subs	r4, r4, r5
 1818 002c 0444     		add	r4, r4, r0
 1819 002e 03EB8303 		add	r3, r3, r3, lsl #2
 1820 0032 0494     		str	r4, [sp, #16]
 1821 0034 04AC     		add	r4, sp, #16
 1822 0036 D900     		lsls	r1, r3, #3
 1823 0038 0094     		str	r4, [sp]
 1824 003a 1B4C     		ldr	r4, .L284+8
 1825 003c 0794     		str	r4, [sp, #28]
 1826 003e 01F12003 		add	r3, r1, #32
 1827 0042 1F24     		movs	r4, #31
 1828 0044 1C31     		adds	r1, r1, #28
 1829 0046 194D     		ldr	r5, .L284+12
 1830 0048 ADF81440 		strh	r4, [sp, #20]	@ movhi
 1831 004c 1344     		add	r3, r3, r2
 1832 004e 0024     		movs	r4, #0
 1833 0050 0A44     		add	r2, r2, r1
 1834 0052 05A8     		add	r0, sp, #20
 1835 0054 0DF10F01 		add	r1, sp, #15
 1836 0058 0695     		str	r5, [sp, #24]
 1837 005a 8DF81640 		strb	r4, [sp, #22]
 1838 005e FFF7FEFF 		bl	pprzlink_msg_v2_send_WP_MOVED_LLA.constprop.0
 1839              	.L280:
 1840 0062 09B0     		add	sp, sp, #36
 1841              		@ sp needed
 1842 0064 30BD     		pop	{r4, r5, pc}
 1843              	.L282:
 1844 0066 03EB8303 		add	r3, r3, r3, lsl #2
 1845 006a D900     		lsls	r1, r3, #3
 1846 006c 01F10C04 		add	r4, r1, #12
 1847 0070 1444     		add	r4, r4, r2
 1848 0072 0094     		str	r4, [sp]
 1849 0074 0D4C     		ldr	r4, .L284+12
 1850 0076 0694     		str	r4, [sp, #24]
 1851 0078 01F10803 		add	r3, r1, #8
 1852 007c 0A4C     		ldr	r4, .L284+8
 1853 007e 0794     		str	r4, [sp, #28]
 1854 0080 0431     		adds	r1, r1, #4
 1855 0082 1344     		add	r3, r3, r2
 1856 0084 8DF81600 		strb	r0, [sp, #22]
 1857 0088 0A44     		add	r2, r2, r1
 1858 008a 1F24     		movs	r4, #31
 1859 008c 0DF10F01 		add	r1, sp, #15
 1860 0090 05A8     		add	r0, sp, #20
 1861 0092 ADF81440 		strh	r4, [sp, #20]	@ movhi
 1862 0096 FFF7FEFF 		bl	pprzlink_msg_v2_send_WP_MOVED_ENU.constprop.0
 1863 009a 09B0     		add	sp, sp, #36
 1864              		@ sp needed
 1865 009c 30BD     		pop	{r4, r5, pc}
 1866              	.L285:
 1867 009e 00BF     		.align	2
 1868              	.L284:
 1869 00a0 00000000 		.word	.LANCHOR0
 1870 00a4 00000000 		.word	state
 1871 00a8 40030000 		.word	syslink+832
 1872 00ac 08010000 		.word	pprz_tp+264
 1873              		.size	waypoint_move_here_2d, .-waypoint_move_here_2d
ARM GAS  /tmp/cciWyQIO.s 			page 34


 1874              		.section	.text.waypoint_globalize,"ax",%progbits
 1875              		.align	1
 1876              		.p2align 4,,15
 1877              		.global	waypoint_globalize
 1878              		.syntax unified
 1879              		.thumb
 1880              		.thumb_func
 1881              		.fpu fpv4-sp-d16
 1882              		.type	waypoint_globalize, %function
 1883              	waypoint_globalize:
 1884              		@ args = 0, pretend = 0, frame = 16
 1885              		@ frame_needed = 0, uses_anonymous_args = 0
 1886 0000 1049     		ldr	r1, .L296
 1887 0002 91F85C30 		ldrb	r3, [r1, #92]	@ zero_extendqisi2
 1888 0006 03B9     		cbnz	r3, .L295
 1889 0008 7047     		bx	lr
 1890              	.L295:
 1891 000a 70B5     		push	{r4, r5, r6, lr}
 1892 000c 00EB8005 		add	r5, r0, r0, lsl #2
 1893 0010 0D4E     		ldr	r6, .L296+4
 1894 0012 ED00     		lsls	r5, r5, #3
 1895 0014 84B0     		sub	sp, sp, #16
 1896 0016 2A1D     		adds	r2, r5, #4
 1897 0018 3244     		add	r2, r2, r6
 1898 001a 0446     		mov	r4, r0
 1899 001c 1C31     		adds	r1, r1, #28
 1900 001e 01A8     		add	r0, sp, #4
 1901 0020 FFF7FEFF 		bl	ecef_of_enu_pos_i
 1902 0024 04EB8404 		add	r4, r4, r4, lsl #2
 1903 0028 05F11C00 		add	r0, r5, #28
 1904 002c 01A9     		add	r1, sp, #4
 1905 002e 3044     		add	r0, r0, r6
 1906 0030 FFF7FEFF 		bl	lla_of_ecef_i
 1907 0034 16F83430 		ldrb	r3, [r6, r4, lsl #3]	@ zero_extendqisi2
 1908 0038 43F00803 		orr	r3, r3, #8
 1909 003c 06F83430 		strb	r3, [r6, r4, lsl #3]
 1910 0040 04B0     		add	sp, sp, #16
 1911              		@ sp needed
 1912 0042 70BD     		pop	{r4, r5, r6, pc}
 1913              	.L297:
 1914              		.align	2
 1915              	.L296:
 1916 0044 00000000 		.word	state
 1917 0048 00000000 		.word	.LANCHOR0
 1918              		.size	waypoint_globalize, .-waypoint_globalize
 1919              		.section	.text.waypoint_localize,"ax",%progbits
 1920              		.align	1
 1921              		.p2align 4,,15
 1922              		.global	waypoint_localize
 1923              		.syntax unified
 1924              		.thumb
 1925              		.thumb_func
 1926              		.fpu fpv4-sp-d16
 1927              		.type	waypoint_localize, %function
 1928              	waypoint_localize:
 1929              		@ args = 0, pretend = 0, frame = 0
 1930              		@ frame_needed = 0, uses_anonymous_args = 0
ARM GAS  /tmp/cciWyQIO.s 			page 35


 1931              		@ link register save eliminated.
 1932 0000 034B     		ldr	r3, .L301
 1933 0002 93F85C30 		ldrb	r3, [r3, #92]	@ zero_extendqisi2
 1934 0006 03B9     		cbnz	r3, .L300
 1935 0008 7047     		bx	lr
 1936              	.L300:
 1937 000a FFF7FEBF 		b	waypoint_localize.part.0
 1938              	.L302:
 1939 000e 00BF     		.align	2
 1940              	.L301:
 1941 0010 00000000 		.word	state
 1942              		.size	waypoint_localize, .-waypoint_localize
 1943              		.section	.text.waypoints_localize_all,"ax",%progbits
 1944              		.align	1
 1945              		.p2align 4,,15
 1946              		.global	waypoints_localize_all
 1947              		.syntax unified
 1948              		.thumb
 1949              		.thumb_func
 1950              		.fpu fpv4-sp-d16
 1951              		.type	waypoints_localize_all, %function
 1952              	waypoints_localize_all:
 1953              		@ args = 0, pretend = 0, frame = 0
 1954              		@ frame_needed = 0, uses_anonymous_args = 0
 1955 0000 70B5     		push	{r4, r5, r6, lr}
 1956 0002 0C4D     		ldr	r5, .L315
 1957 0004 0C4E     		ldr	r6, .L315+4
 1958 0006 0024     		movs	r4, #0
 1959 0008 01E0     		b	.L305
 1960              	.L304:
 1961 000a 0C2C     		cmp	r4, #12
 1962 000c 10D0     		beq	.L314
 1963              	.L305:
 1964 000e 2B78     		ldrb	r3, [r5]	@ zero_extendqisi2
 1965 0010 13F0010F 		tst	r3, #1
 1966 0014 E0B2     		uxtb	r0, r4
 1967 0016 05F12805 		add	r5, r5, #40
 1968 001a 04F10104 		add	r4, r4, #1
 1969 001e F4D0     		beq	.L304
 1970 0020 96F85C30 		ldrb	r3, [r6, #92]	@ zero_extendqisi2
 1971 0024 002B     		cmp	r3, #0
 1972 0026 F0D0     		beq	.L304
 1973 0028 FFF7FEFF 		bl	waypoint_localize.part.0
 1974 002c 0C2C     		cmp	r4, #12
 1975 002e EED1     		bne	.L305
 1976              	.L314:
 1977 0030 70BD     		pop	{r4, r5, r6, pc}
 1978              	.L316:
 1979 0032 00BF     		.align	2
 1980              	.L315:
 1981 0034 00000000 		.word	.LANCHOR0
 1982 0038 00000000 		.word	state
 1983              		.size	waypoints_localize_all, .-waypoints_localize_all
 1984              		.section	.text.waypoint_get_lla,"ax",%progbits
 1985              		.align	1
 1986              		.p2align 4,,15
 1987              		.global	waypoint_get_lla
ARM GAS  /tmp/cciWyQIO.s 			page 36


 1988              		.syntax unified
 1989              		.thumb
 1990              		.thumb_func
 1991              		.fpu fpv4-sp-d16
 1992              		.type	waypoint_get_lla, %function
 1993              	waypoint_get_lla:
 1994              		@ args = 0, pretend = 0, frame = 24
 1995              		@ frame_needed = 0, uses_anonymous_args = 0
 1996 0000 0B28     		cmp	r0, #11
 1997 0002 2CD8     		bhi	.L323
 1998 0004 70B5     		push	{r4, r5, r6, lr}
 1999 0006 00EB8003 		add	r3, r0, r0, lsl #2
 2000 000a 164D     		ldr	r5, .L329
 2001 000c DE00     		lsls	r6, r3, #3
 2002 000e 15F83330 		ldrb	r3, [r5, r3, lsl #3]	@ zero_extendqisi2
 2003 0012 DA07     		lsls	r2, r3, #31
 2004 0014 86B0     		sub	sp, sp, #24
 2005 0016 05D5     		bpl	.L319
 2006              	.L328:
 2007 0018 2823     		movs	r3, #40
 2008 001a 03FB0050 		mla	r0, r3, r0, r5
 2009 001e 1C30     		adds	r0, r0, #28
 2010              	.L317:
 2011 0020 06B0     		add	sp, sp, #24
 2012              		@ sp needed
 2013 0022 70BD     		pop	{r4, r5, r6, pc}
 2014              	.L319:
 2015 0024 1B07     		lsls	r3, r3, #28
 2016 0026 F7D4     		bmi	.L328
 2017 0028 0F49     		ldr	r1, .L329+4
 2018 002a 91F85C30 		ldrb	r3, [r1, #92]	@ zero_extendqisi2
 2019 002e 002B     		cmp	r3, #0
 2020 0030 F2D0     		beq	.L328
 2021 0032 00EB8000 		add	r0, r0, r0, lsl #2
 2022 0036 C400     		lsls	r4, r0, #3
 2023 0038 221D     		adds	r2, r4, #4
 2024 003a 2A44     		add	r2, r2, r5
 2025 003c 1C31     		adds	r1, r1, #28
 2026 003e 03A8     		add	r0, sp, #12
 2027 0040 FFF7FEFF 		bl	ecef_of_enu_pos_i
 2028 0044 04F11C00 		add	r0, r4, #28
 2029 0048 2844     		add	r0, r0, r5
 2030 004a 03A9     		add	r1, sp, #12
 2031 004c 0190     		str	r0, [sp, #4]
 2032 004e FFF7FEFF 		bl	lla_of_ecef_i
 2033 0052 AB5D     		ldrb	r3, [r5, r6]	@ zero_extendqisi2
 2034 0054 0198     		ldr	r0, [sp, #4]
 2035 0056 43F00803 		orr	r3, r3, #8
 2036 005a AB55     		strb	r3, [r5, r6]
 2037 005c E0E7     		b	.L317
 2038              	.L323:
 2039 005e 0020     		movs	r0, #0
 2040 0060 7047     		bx	lr
 2041              	.L330:
 2042 0062 00BF     		.align	2
 2043              	.L329:
 2044 0064 00000000 		.word	.LANCHOR0
ARM GAS  /tmp/cciWyQIO.s 			page 37


 2045 0068 00000000 		.word	state
 2046              		.size	waypoint_get_lla, .-waypoint_get_lla
 2047              		.section	.text.waypoint_get_enu_f,"ax",%progbits
 2048              		.align	1
 2049              		.p2align 4,,15
 2050              		.global	waypoint_get_enu_f
 2051              		.syntax unified
 2052              		.thumb
 2053              		.thumb_func
 2054              		.fpu fpv4-sp-d16
 2055              		.type	waypoint_get_enu_f, %function
 2056              	waypoint_get_enu_f:
 2057              		@ args = 0, pretend = 0, frame = 0
 2058              		@ frame_needed = 0, uses_anonymous_args = 0
 2059 0000 0B28     		cmp	r0, #11
 2060 0002 15D8     		bhi	.L334
 2061 0004 38B5     		push	{r3, r4, r5, lr}
 2062 0006 0B4D     		ldr	r5, .L345
 2063 0008 00EB8003 		add	r3, r0, r0, lsl #2
 2064 000c 0446     		mov	r4, r0
 2065 000e 15F83330 		ldrb	r3, [r5, r3, lsl #3]	@ zero_extendqisi2
 2066 0012 DA07     		lsls	r2, r3, #31
 2067 0014 07D5     		bpl	.L333
 2068 0016 5B07     		lsls	r3, r3, #29
 2069 0018 05D4     		bmi	.L333
 2070 001a 074B     		ldr	r3, .L345+4
 2071 001c 93F85C30 		ldrb	r3, [r3, #92]	@ zero_extendqisi2
 2072 0020 0BB1     		cbz	r3, .L333
 2073 0022 FFF7FEFF 		bl	waypoint_localize.part.0
 2074              	.L333:
 2075 0026 2820     		movs	r0, #40
 2076 0028 00FB0450 		mla	r0, r0, r4, r5
 2077 002c 1030     		adds	r0, r0, #16
 2078 002e 38BD     		pop	{r3, r4, r5, pc}
 2079              	.L334:
 2080 0030 0020     		movs	r0, #0
 2081 0032 7047     		bx	lr
 2082              	.L346:
 2083              		.align	2
 2084              	.L345:
 2085 0034 00000000 		.word	.LANCHOR0
 2086 0038 00000000 		.word	state
 2087              		.size	waypoint_get_enu_f, .-waypoint_get_enu_f
 2088              		.section	.text.waypoint_get_enu_i,"ax",%progbits
 2089              		.align	1
 2090              		.p2align 4,,15
 2091              		.global	waypoint_get_enu_i
 2092              		.syntax unified
 2093              		.thumb
 2094              		.thumb_func
 2095              		.fpu fpv4-sp-d16
 2096              		.type	waypoint_get_enu_i, %function
 2097              	waypoint_get_enu_i:
 2098              		@ args = 0, pretend = 0, frame = 0
 2099              		@ frame_needed = 0, uses_anonymous_args = 0
 2100 0000 0B28     		cmp	r0, #11
 2101 0002 15D8     		bhi	.L350
ARM GAS  /tmp/cciWyQIO.s 			page 38


 2102 0004 38B5     		push	{r3, r4, r5, lr}
 2103 0006 0B4D     		ldr	r5, .L361
 2104 0008 00EB8003 		add	r3, r0, r0, lsl #2
 2105 000c 0446     		mov	r4, r0
 2106 000e 15F83330 		ldrb	r3, [r5, r3, lsl #3]	@ zero_extendqisi2
 2107 0012 DA07     		lsls	r2, r3, #31
 2108 0014 07D5     		bpl	.L349
 2109 0016 9B07     		lsls	r3, r3, #30
 2110 0018 05D4     		bmi	.L349
 2111 001a 074B     		ldr	r3, .L361+4
 2112 001c 93F85C30 		ldrb	r3, [r3, #92]	@ zero_extendqisi2
 2113 0020 0BB1     		cbz	r3, .L349
 2114 0022 FFF7FEFF 		bl	waypoint_localize.part.0
 2115              	.L349:
 2116 0026 2820     		movs	r0, #40
 2117 0028 00FB0450 		mla	r0, r0, r4, r5
 2118 002c 0430     		adds	r0, r0, #4
 2119 002e 38BD     		pop	{r3, r4, r5, pc}
 2120              	.L350:
 2121 0030 0020     		movs	r0, #0
 2122 0032 7047     		bx	lr
 2123              	.L362:
 2124              		.align	2
 2125              	.L361:
 2126 0034 00000000 		.word	.LANCHOR0
 2127 0038 00000000 		.word	state
 2128              		.size	waypoint_get_enu_i, .-waypoint_get_enu_i
 2129              		.section	.text.waypoint_copy,"ax",%progbits
 2130              		.align	1
 2131              		.p2align 4,,15
 2132              		.global	waypoint_copy
 2133              		.syntax unified
 2134              		.thumb
 2135              		.thumb_func
 2136              		.fpu fpv4-sp-d16
 2137              		.type	waypoint_copy, %function
 2138              	waypoint_copy:
 2139              		@ args = 0, pretend = 0, frame = 0
 2140              		@ frame_needed = 0, uses_anonymous_args = 0
 2141 0000 0B28     		cmp	r0, #11
 2142 0002 19D8     		bhi	.L366
 2143 0004 0B29     		cmp	r1, #11
 2144 0006 17D8     		bhi	.L366
 2145 0008 0C4B     		ldr	r3, .L369
 2146 000a 01EB8101 		add	r1, r1, r1, lsl #2
 2147 000e 00EB8000 		add	r0, r0, r0, lsl #2
 2148 0012 03EBC10C 		add	ip, r3, r1, lsl #3
 2149 0016 00B5     		push	{lr}
 2150 0018 03EBC00E 		add	lr, r3, r0, lsl #3
 2151 001c BCE80F00 		ldmia	ip!, {r0, r1, r2, r3}
 2152 0020 AEE80F00 		stmia	lr!, {r0, r1, r2, r3}
 2153 0024 BCE80F00 		ldmia	ip!, {r0, r1, r2, r3}
 2154 0028 AEE80F00 		stmia	lr!, {r0, r1, r2, r3}
 2155 002c 9CE80300 		ldm	ip, {r0, r1}
 2156 0030 8EE80300 		stm	lr, {r0, r1}
 2157 0034 5DF804FB 		ldr	pc, [sp], #4
 2158              	.L366:
ARM GAS  /tmp/cciWyQIO.s 			page 39


 2159 0038 7047     		bx	lr
 2160              	.L370:
 2161 003a 00BF     		.align	2
 2162              	.L369:
 2163 003c 00000000 		.word	.LANCHOR0
 2164              		.size	waypoint_copy, .-waypoint_copy
 2165              		.section	.text.waypoint_position_copy,"ax",%progbits
 2166              		.align	1
 2167              		.p2align 4,,15
 2168              		.global	waypoint_position_copy
 2169              		.syntax unified
 2170              		.thumb
 2171              		.thumb_func
 2172              		.fpu fpv4-sp-d16
 2173              		.type	waypoint_position_copy, %function
 2174              	waypoint_position_copy:
 2175              		@ args = 0, pretend = 0, frame = 0
 2176              		@ frame_needed = 0, uses_anonymous_args = 0
 2177              		@ link register save eliminated.
 2178 0000 0B28     		cmp	r0, #11
 2179 0002 19D8     		bhi	.L374
 2180 0004 0B29     		cmp	r1, #11
 2181 0006 17D8     		bhi	.L374
 2182 0008 0C4B     		ldr	r3, .L377
 2183 000a 01EB8101 		add	r1, r1, r1, lsl #2
 2184 000e 03EBC101 		add	r1, r3, r1, lsl #3
 2185 0012 00EB8000 		add	r0, r0, r0, lsl #2
 2186 0016 30B4     		push	{r4, r5}
 2187 0018 03EBC000 		add	r0, r3, r0, lsl #3
 2188 001c 0A69     		ldr	r2, [r1, #16]	@ float
 2189 001e 4B69     		ldr	r3, [r1, #20]	@ float
 2190 0020 0261     		str	r2, [r0, #16]	@ float
 2191 0022 4361     		str	r3, [r0, #20]	@ float
 2192 0024 D1E90723 		ldrd	r2, r3, [r1, #28]
 2193 0028 4D68     		ldr	r5, [r1, #4]
 2194 002a 8C68     		ldr	r4, [r1, #8]
 2195 002c C0E90723 		strd	r2, r3, [r0, #28]
 2196 0030 C0E90154 		strd	r5, r4, [r0, #4]
 2197 0034 30BC     		pop	{r4, r5}
 2198 0036 7047     		bx	lr
 2199              	.L374:
 2200 0038 7047     		bx	lr
 2201              	.L378:
 2202 003a 00BF     		.align	2
 2203              	.L377:
 2204 003c 00000000 		.word	.LANCHOR0
 2205              		.size	waypoint_position_copy, .-waypoint_position_copy
 2206              		.global	waypoints
 2207              		.global	nb_waypoint
 2208              		.section	.rodata
 2209              		.align	2
 2210              		.set	.LANCHOR2,. + 0
 2211              	.LC0:
 2212 0000 00000000 		.word	0
 2213 0004 00000080 		.word	-2147483648
 2214 0008 0000803F 		.word	1065353216
 2215 000c 00000000 		.word	0
ARM GAS  /tmp/cciWyQIO.s 			page 40


 2216 0010 00000080 		.word	-2147483648
 2217 0014 0000803F 		.word	1065353216
 2218 0018 D7A330BF 		.word	-1087331369
 2219 001c 295C4FBF 		.word	-1085318103
 2220 0020 0000803F 		.word	1065353216
 2221 0024 E17A543F 		.word	1062501089
 2222 0028 EC51D8BF 		.word	-1076342292
 2223 002c 0000803F 		.word	1065353216
 2224 0030 EC51F83F 		.word	1073238508
 2225 0034 5C8F6240 		.word	1080201052
 2226 0038 0000803F 		.word	1065353216
 2227 003c 0AD70340 		.word	1073993482
 2228 0040 A4705DC0 		.word	-1067618140
 2229 0044 0000803F 		.word	1065353216
 2230 0048 F6283CC0 		.word	-1069799178
 2231 004c 0AD763C0 		.word	-1067198710
 2232 0050 0000803F 		.word	1065353216
 2233 0054 0AD743C0 		.word	-1069295862
 2234 0058 CDCC5C40 		.word	1079823565
 2235 005c 0000803F 		.word	1065353216
 2236 0060 B81E8D40 		.word	1082990264
 2237 0064 C3F5A840 		.word	1084814787
 2238 0068 0000803F 		.word	1065353216
 2239 006c 33339340 		.word	1083388723
 2240 0070 0AD7A3C0 		.word	-1063004406
 2241 0074 0000803F 		.word	1065353216
 2242 0078 B81E8DC0 		.word	-1064493384
 2243 007c C3F5A8C0 		.word	-1062668861
 2244 0080 0000803F 		.word	1065353216
 2245 0084 333393C0 		.word	-1064094925
 2246 0088 0AD7A340 		.word	1084479242
 2247 008c 0000803F 		.word	1065353216
 2248              		.section	.bss.i.0,"aw",%nobits
 2249              		.set	.LANCHOR1,. + 0
 2250              		.type	i.0, %object
 2251              		.size	i.0, 1
 2252              	i.0:
 2253 0000 00       		.space	1
 2254              		.section	.bss.waypoints,"aw",%nobits
 2255              		.align	2
 2256              		.set	.LANCHOR0,. + 0
 2257              		.type	waypoints, %object
 2258              		.size	waypoints, 480
 2259              	waypoints:
 2260 0000 00000000 		.space	480
 2260      00000000 
 2260      00000000 
 2260      00000000 
 2260      00000000 
 2261              		.section	.rodata.nb_waypoint,"a"
 2262              		.type	nb_waypoint, %object
 2263              		.size	nb_waypoint, 1
 2264              	nb_waypoint:
 2265 0000 0C       		.byte	12
 2266              		.ident	"GCC: (15:10.3-2021.07-4) 10.3.1 20210621 (release)"
ARM GAS  /tmp/cciWyQIO.s 			page 41

